

Microchip MPLAB XC8 Assembler V2.35 build 20211206165544 
                                                                                               Wed Mar 01 14:34:57 2023

Microchip MPLAB XC8 C Compiler v2.35 (Free license) build 20211206165544 Og1 
     1                           	processor	16F18345
     2                           	pagewidth 120
     3                           	opt	flic
     4                           	psect	idataCOMMON,global,class=CODE,delta=2,noexec
     5                           	psect	idataBANK0,global,class=CODE,delta=2,noexec
     6                           	psect	stringtext1,global,class=STRCODE,delta=2,noexec
     7                           	psect	nvBANK1,global,class=BANK1,space=1,delta=1,noexec
     8                           	psect	stringtext2,global,class=STRCODE,delta=2,noexec
     9                           	psect	stringtext3,global,class=STRCODE,delta=2,noexec
    10                           	psect	stringtext4,global,class=STRCODE,delta=2,noexec
    11                           	psect	stringtext5,global,class=STRCODE,delta=2,noexec
    12                           	psect	cinit,global,class=CODE,merge=1,delta=2
    13                           	psect	dataCOMMON,global,class=COMMON,space=1,delta=1,noexec
    14                           	psect	bssBANK0,global,class=BANK0,space=1,delta=1,noexec
    15                           	psect	dataBANK0,global,class=BANK0,space=1,delta=1,noexec
    16                           	psect	bssBANK1,global,class=BANK1,space=1,delta=1,noexec
    17                           	psect	bssBANK2,global,class=BANK2,space=1,delta=1,noexec
    18                           	psect	clrtext,global,class=CODE,delta=2
    19                           	psect	cstackBANK1,global,class=BANK1,space=1,delta=1,noexec
    20                           	psect	cstackCOMMON,global,class=COMMON,space=1,delta=1,noexec
    21                           	psect	cstackBANK0,global,class=BANK0,space=1,delta=1,noexec
    22                           	psect	maintext,global,class=CODE,merge=1,split=1,delta=2
    23                           	psect	text1,local,class=CODE,merge=1,delta=2
    24                           	psect	text2,local,class=CODE,merge=1,delta=2
    25                           	psect	text3,local,class=CODE,merge=1,delta=2
    26                           	psect	text4,local,class=CODE,merge=1,delta=2
    27                           	psect	text5,local,class=CODE,merge=1,delta=2
    28                           	psect	text6,local,class=CODE,merge=1,delta=2
    29                           	psect	text7,local,class=CODE,merge=1,delta=2
    30                           	psect	text8,local,class=CODE,merge=1,delta=2
    31                           	psect	text9,local,class=CODE,merge=1,delta=2
    32                           	psect	text10,local,class=CODE,merge=1,delta=2
    33                           	psect	text11,local,class=CODE,merge=1,delta=2
    34                           	psect	text12,local,class=CODE,merge=1,delta=2
    35                           	psect	text13,local,class=CODE,merge=1,delta=2,group=3
    36                           	psect	text14,local,class=CODE,merge=1,delta=2,group=1
    37                           	psect	text15,local,class=CODE,merge=1,delta=2,group=1
    38                           	psect	text16,local,class=CODE,merge=1,delta=2,group=1
    39                           	psect	text17,local,class=CODE,merge=1,delta=2,group=1
    40                           	psect	text18,local,class=CODE,merge=1,delta=2,group=3
    41                           	psect	text19,local,class=CODE,merge=1,delta=2,group=3
    42                           	psect	text20,local,class=CODE,merge=1,delta=2,group=3
    43                           	psect	text21,local,class=CODE,merge=1,delta=2
    44                           	psect	text22,local,class=CODE,merge=1,delta=2
    45                           	psect	text23,local,class=CODE,merge=1,delta=2,group=3
    46                           	psect	text24,local,class=CODE,merge=1,delta=2,group=2
    47                           	psect	text25,local,class=CODE,merge=1,delta=2,group=2
    48                           	psect	text26,local,class=CODE,merge=1,delta=2
    49                           	psect	text27,local,class=CODE,merge=1,delta=2
    50                           	psect	text28,local,class=CODE,merge=1,delta=2
    51                           	psect	text29,local,class=CODE,merge=1,delta=2
    52                           	psect	text30,local,class=CODE,merge=1,delta=2
    53                           	psect	text31,local,class=CODE,merge=1,delta=2
    54                           	psect	text32,local,class=CODE,merge=1,delta=2
    55                           	psect	text33,local,class=CODE,merge=1,inline,delta=2
    56                           	psect	text34,local,class=CODE,merge=1,inline,delta=2
    57                           	psect	text35,local,class=CODE,merge=1,delta=2
    58                           	psect	text36,local,class=CODE,merge=1,delta=2
    59                           	psect	text37,local,class=CODE,merge=1,inline,delta=2
    60                           	psect	text38,local,class=CODE,merge=1,delta=2
    61                           	psect	text39,local,class=CODE,merge=1,inline,delta=2
    62                           	psect	text40,local,class=CODE,merge=1,inline,delta=2
    63                           	psect	text41,local,class=CODE,merge=1,inline,delta=2
    64                           	psect	intentry,global,class=CODE,delta=2
    65                           	psect	text43,local,class=CODE,merge=1,delta=2
    66                           	psect	text44,local,class=CODE,merge=1,inline,delta=2
    67                           	psect	text45,local,class=CODE,merge=1,inline,delta=2
    68                           	psect	text46,local,class=CODE,merge=1,delta=2
    69                           	psect	text47,local,class=CODE,merge=1,delta=2
    70                           	psect	text48,local,class=CODE,merge=1,delta=2
    71                           	psect	text49,local,class=CODE,merge=1,delta=2
    72                           	psect	text50,local,class=CODE,merge=1,delta=2
    73                           	psect	text51,local,class=CODE,merge=1,delta=2
    74                           	psect	text52,local,class=CODE,merge=1,delta=2
    75                           	psect	text53,local,class=CODE,merge=1,delta=2
    76                           	psect	text54,local,class=CODE,merge=1,delta=2
    77                           	psect	text55,local,class=CODE,merge=1,delta=2
    78                           	psect	text56,local,class=CODE,merge=1,delta=2
    79                           	psect	text57,local,class=CODE,merge=1,delta=2
    80                           	psect	text58,local,class=CODE,merge=1,delta=2
    81                           	psect	text59,local,class=CODE,merge=1,delta=2
    82                           	psect	text60,local,class=CODE,merge=1,delta=2
    83                           	psect	text61,local,class=CODE,merge=1,delta=2
    84                           	psect	text62,local,class=CODE,merge=1,inline,delta=2
    85                           	psect	text63,local,class=CODE,merge=1,inline,delta=2
    86                           	psect	text64,local,class=CODE,merge=1,inline,delta=2
    87                           	psect	text65,local,class=CODE,merge=1,inline,delta=2
    88                           	psect	text66,local,class=CODE,merge=1,inline,delta=2
    89                           	psect	text67,local,class=CODE,merge=1,inline,delta=2
    90                           	psect	text68,local,class=CODE,merge=1,inline,delta=2
    91                           	psect	text69,local,class=CODE,merge=1,delta=2
    92                           	psect	text70,local,class=CODE,merge=1,delta=2
    93                           	psect	text71,local,class=CODE,merge=1,delta=2
    94                           	psect	text72,local,class=CODE,merge=1,delta=2
    95                           	psect	text73,local,class=CODE,merge=1,delta=2
    96                           	psect	text74,local,class=CODE,merge=1,delta=2
    97                           	psect	text75,local,class=CODE,merge=1,delta=2
    98                           	psect	text76,local,class=CODE,merge=1,delta=2
    99                           	psect	text77,local,class=CODE,merge=1,delta=2
   100                           	psect	text78,local,class=CODE,merge=1,delta=2
   101                           	psect	text79,local,class=CODE,merge=1,delta=2
   102                           	psect	text80,local,class=CODE,merge=1,delta=2
   103                           	psect	text81,local,class=CODE,merge=1,delta=2
   104                           	psect	text82,local,class=CODE,merge=1,delta=2
   105                           	psect	text83,local,class=CODE,merge=1,delta=2
   106                           	psect	text84,local,class=CODE,merge=1,inline,delta=2
   107                           	psect	text85,local,class=CODE,merge=1,inline,delta=2
   108                           	psect	idloc,global,abs,ovrld,class=IDLOC,space=5,delta=2,noexec
   109                           	psect	config,global,abs,ovrld,class=CONFIG,space=4,delta=2,noexec
   110                           	dabs	1,0x7E,2
   111  0000                     
   112                           ; Version 2.40
   113                           ; Generated 02/12/2021 GMT
   114                           ; 
   115                           ; Copyright © 2021, Microchip Technology Inc. and its subsidiaries ("Microchip")
   116                           ; All rights reserved.
   117                           ; 
   118                           ; This software is developed by Microchip Technology Inc. and its subsidiaries ("Microch
      +                          ip").
   119                           ; 
   120                           ; Redistribution and use in source and binary forms, with or without modification, are
   121                           ; permitted provided that the following conditions are met:
   122                           ; 
   123                           ;     1. Redistributions of source code must retain the above copyright notice, this lis
      +                          t of
   124                           ;        conditions and the following disclaimer.
   125                           ; 
   126                           ;     2. Redistributions in binary form must reproduce the above copyright notice, this 
      +                          list
   127                           ;        of conditions and the following disclaimer in the documentation and/or other
   128                           ;        materials provided with the distribution. Publication is not required when
   129                           ;        this file is used in an embedded application.
   130                           ; 
   131                           ;     3. Microchip's name may not be used to endorse or promote products derived from th
      +                          is
   132                           ;        software without specific prior written permission.
   133                           ; 
   134                           ; THIS SOFTWARE IS PROVIDED BY MICROCHIP "AS IS" AND ANY EXPRESS OR IMPLIED WARRANTIES,
   135                           ; INCLUDING, BUT NOT LIMITED TO, THE IMPLIED WARRANTIES OF MERCHANTABILITY AND FITNESS F
      +                          OR
   136                           ; PURPOSE ARE DISCLAIMED.  IN NO EVENT SHALL MICROCHIP BE LIABLE FOR ANY DIRECT, INDIREC
      +                          T,
   137                           ; INCIDENTAL, SPECIAL, EXEMPLARY, OR CONSEQUENTIAL DAMAGES (INCLUDING BUT NOT LIMITED TO
   138                           ; PROCUREMENT OF SUBSTITUTE GOODS OR SERVICES; LOSS OF USE, DATA OR PROFITS; OR BUSINESS
   139                           ; INTERRUPTION) HOWSOEVER CAUSED AND ON ANY THEORY OF LIABILITY, WHETHER IN CONTRACT, ST
      +                          RICT
   140                           ; LIABILITY, OR TORT (INCLUDING NEGLIGENCE OR OTHERWISE) ARISING IN ANY WAY OUT OF THE U
      +                          SE OF
   141                           ; THIS SOFTWARE, EVEN IF ADVISED OF THE POSSIBILITY OF SUCH DAMAGE.
   142                           ; 
   143                           ; 
   144                           ; Code-generator required, PIC16F18345 Definitions
   145                           ; 
   146                           ; SFR Addresses
   147  0000                     	;# 
   148  0001                     	;# 
   149  0002                     	;# 
   150  0003                     	;# 
   151  0004                     	;# 
   152  0005                     	;# 
   153  0006                     	;# 
   154  0007                     	;# 
   155  0008                     	;# 
   156  0009                     	;# 
   157  000A                     	;# 
   158  000B                     	;# 
   159  000C                     	;# 
   160  000D                     	;# 
   161  000E                     	;# 
   162  0010                     	;# 
   163  0011                     	;# 
   164  0012                     	;# 
   165  0013                     	;# 
   166  0014                     	;# 
   167  0015                     	;# 
   168  0015                     	;# 
   169  0016                     	;# 
   170  0016                     	;# 
   171  0017                     	;# 
   172  0018                     	;# 
   173  0019                     	;# 
   174  0019                     	;# 
   175  001A                     	;# 
   176  001B                     	;# 
   177  001C                     	;# 
   178  001D                     	;# 
   179  001E                     	;# 
   180  001F                     	;# 
   181  008C                     	;# 
   182  008D                     	;# 
   183  008E                     	;# 
   184  0090                     	;# 
   185  0091                     	;# 
   186  0092                     	;# 
   187  0093                     	;# 
   188  0094                     	;# 
   189  0097                     	;# 
   190  009B                     	;# 
   191  009B                     	;# 
   192  009C                     	;# 
   193  009D                     	;# 
   194  009E                     	;# 
   195  009F                     	;# 
   196  010C                     	;# 
   197  010D                     	;# 
   198  010E                     	;# 
   199  0111                     	;# 
   200  0112                     	;# 
   201  0113                     	;# 
   202  0114                     	;# 
   203  0115                     	;# 
   204  0116                     	;# 
   205  0117                     	;# 
   206  0118                     	;# 
   207  0119                     	;# 
   208  018C                     	;# 
   209  018D                     	;# 
   210  018E                     	;# 
   211  0197                     	;# 
   212  0199                     	;# 
   213  0199                     	;# 
   214  0199                     	;# 
   215  019A                     	;# 
   216  019A                     	;# 
   217  019A                     	;# 
   218  019B                     	;# 
   219  019B                     	;# 
   220  019B                     	;# 
   221  019B                     	;# 
   222  019B                     	;# 
   223  019C                     	;# 
   224  019C                     	;# 
   225  019C                     	;# 
   226  019D                     	;# 
   227  019D                     	;# 
   228  019D                     	;# 
   229  019E                     	;# 
   230  019E                     	;# 
   231  019E                     	;# 
   232  019F                     	;# 
   233  019F                     	;# 
   234  019F                     	;# 
   235  019F                     	;# 
   236  019F                     	;# 
   237  020C                     	;# 
   238  020D                     	;# 
   239  020E                     	;# 
   240  0211                     	;# 
   241  0211                     	;# 
   242  0212                     	;# 
   243  0212                     	;# 
   244  0213                     	;# 
   245  0213                     	;# 
   246  0214                     	;# 
   247  0214                     	;# 
   248  0215                     	;# 
   249  0215                     	;# 
   250  0215                     	;# 
   251  0215                     	;# 
   252  0216                     	;# 
   253  0216                     	;# 
   254  0217                     	;# 
   255  0217                     	;# 
   256  0219                     	;# 
   257  021A                     	;# 
   258  021B                     	;# 
   259  021C                     	;# 
   260  021D                     	;# 
   261  021D                     	;# 
   262  021E                     	;# 
   263  021F                     	;# 
   264  028C                     	;# 
   265  028D                     	;# 
   266  028E                     	;# 
   267  0291                     	;# 
   268  0291                     	;# 
   269  0292                     	;# 
   270  0293                     	;# 
   271  0294                     	;# 
   272  0295                     	;# 
   273  0295                     	;# 
   274  0296                     	;# 
   275  0297                     	;# 
   276  0298                     	;# 
   277  029F                     	;# 
   278  030C                     	;# 
   279  030D                     	;# 
   280  030E                     	;# 
   281  0311                     	;# 
   282  0311                     	;# 
   283  0312                     	;# 
   284  0313                     	;# 
   285  0314                     	;# 
   286  0315                     	;# 
   287  0315                     	;# 
   288  0316                     	;# 
   289  0317                     	;# 
   290  0318                     	;# 
   291  038C                     	;# 
   292  038D                     	;# 
   293  038E                     	;# 
   294  0391                     	;# 
   295  0392                     	;# 
   296  0393                     	;# 
   297  0394                     	;# 
   298  0395                     	;# 
   299  0396                     	;# 
   300  0397                     	;# 
   301  0398                     	;# 
   302  0399                     	;# 
   303  039A                     	;# 
   304  039C                     	;# 
   305  039D                     	;# 
   306  039E                     	;# 
   307  039F                     	;# 
   308  0411                     	;# 
   309  0411                     	;# 
   310  0412                     	;# 
   311  0413                     	;# 
   312  0414                     	;# 
   313  0415                     	;# 
   314  0416                     	;# 
   315  0417                     	;# 
   316  0418                     	;# 
   317  0418                     	;# 
   318  0419                     	;# 
   319  041A                     	;# 
   320  041B                     	;# 
   321  041C                     	;# 
   322  041D                     	;# 
   323  041E                     	;# 
   324  041F                     	;# 
   325  0498                     	;# 
   326  0498                     	;# 
   327  0499                     	;# 
   328  049A                     	;# 
   329  049B                     	;# 
   330  049B                     	;# 
   331  049C                     	;# 
   332  049D                     	;# 
   333  049E                     	;# 
   334  049F                     	;# 
   335  0617                     	;# 
   336  0618                     	;# 
   337  0619                     	;# 
   338  0619                     	;# 
   339  061A                     	;# 
   340  061B                     	;# 
   341  061C                     	;# 
   342  061C                     	;# 
   343  061F                     	;# 
   344  0691                     	;# 
   345  0692                     	;# 
   346  0693                     	;# 
   347  0694                     	;# 
   348  0695                     	;# 
   349  0696                     	;# 
   350  0697                     	;# 
   351  0698                     	;# 
   352  0699                     	;# 
   353  0711                     	;# 
   354  0712                     	;# 
   355  0713                     	;# 
   356  0714                     	;# 
   357  0715                     	;# 
   358  0716                     	;# 
   359  0717                     	;# 
   360  0718                     	;# 
   361  0719                     	;# 
   362  0891                     	;# 
   363  0891                     	;# 
   364  0891                     	;# 
   365  0891                     	;# 
   366  0891                     	;# 
   367  0891                     	;# 
   368  0892                     	;# 
   369  0892                     	;# 
   370  0892                     	;# 
   371  0893                     	;# 
   372  0893                     	;# 
   373  0893                     	;# 
   374  0893                     	;# 
   375  0893                     	;# 
   376  0893                     	;# 
   377  0894                     	;# 
   378  0894                     	;# 
   379  0894                     	;# 
   380  0895                     	;# 
   381  0895                     	;# 
   382  0895                     	;# 
   383  0896                     	;# 
   384  0896                     	;# 
   385  0896                     	;# 
   386  089B                     	;# 
   387  0911                     	;# 
   388  0912                     	;# 
   389  0913                     	;# 
   390  0914                     	;# 
   391  0915                     	;# 
   392  0916                     	;# 
   393  0918                     	;# 
   394  0919                     	;# 
   395  091A                     	;# 
   396  091B                     	;# 
   397  091C                     	;# 
   398  091D                     	;# 
   399  091E                     	;# 
   400  091F                     	;# 
   401  0E0F                     	;# 
   402  0E10                     	;# 
   403  0E11                     	;# 
   404  0E12                     	;# 
   405  0E13                     	;# 
   406  0E14                     	;# 
   407  0E15                     	;# 
   408  0E16                     	;# 
   409  0E17                     	;# 
   410  0E18                     	;# 
   411  0E19                     	;# 
   412  0E1A                     	;# 
   413  0E1B                     	;# 
   414  0E1C                     	;# 
   415  0E1D                     	;# 
   416  0E1E                     	;# 
   417  0E1F                     	;# 
   418  0E20                     	;# 
   419  0E21                     	;# 
   420  0E22                     	;# 
   421  0E24                     	;# 
   422  0E25                     	;# 
   423  0E28                     	;# 
   424  0E29                     	;# 
   425  0E2A                     	;# 
   426  0E2B                     	;# 
   427  0E2C                     	;# 
   428  0E2D                     	;# 
   429  0E2E                     	;# 
   430  0E2F                     	;# 
   431  0E90                     	;# 
   432  0E91                     	;# 
   433  0E92                     	;# 
   434  0E94                     	;# 
   435  0E95                     	;# 
   436  0E9C                     	;# 
   437  0E9D                     	;# 
   438  0E9E                     	;# 
   439  0E9F                     	;# 
   440  0EA0                     	;# 
   441  0EA1                     	;# 
   442  0EA2                     	;# 
   443  0EA3                     	;# 
   444  0EA4                     	;# 
   445  0EA5                     	;# 
   446  0EA6                     	;# 
   447  0EA7                     	;# 
   448  0F0F                     	;# 
   449  0F10                     	;# 
   450  0F11                     	;# 
   451  0F12                     	;# 
   452  0F13                     	;# 
   453  0F14                     	;# 
   454  0F15                     	;# 
   455  0F16                     	;# 
   456  0F17                     	;# 
   457  0F18                     	;# 
   458  0F19                     	;# 
   459  0F1A                     	;# 
   460  0F1B                     	;# 
   461  0F1C                     	;# 
   462  0F1D                     	;# 
   463  0F1E                     	;# 
   464  0F1F                     	;# 
   465  0F20                     	;# 
   466  0F21                     	;# 
   467  0F22                     	;# 
   468  0F23                     	;# 
   469  0F24                     	;# 
   470  0F25                     	;# 
   471  0F26                     	;# 
   472  0F27                     	;# 
   473  0F28                     	;# 
   474  0F29                     	;# 
   475  0F2A                     	;# 
   476  0F2B                     	;# 
   477  0F2C                     	;# 
   478  0F2D                     	;# 
   479  0F2E                     	;# 
   480  0F2F                     	;# 
   481  0F30                     	;# 
   482  0F31                     	;# 
   483  0F32                     	;# 
   484  0F33                     	;# 
   485  0F34                     	;# 
   486  0F35                     	;# 
   487  0F36                     	;# 
   488  0F37                     	;# 
   489  0FE4                     	;# 
   490  0FE5                     	;# 
   491  0FE6                     	;# 
   492  0FE7                     	;# 
   493  0FE8                     	;# 
   494  0FE9                     	;# 
   495  0FEA                     	;# 
   496  0FEB                     	;# 
   497  0FED                     	;# 
   498  0FEE                     	;# 
   499  0FEF                     	;# 
   500  0000                     	;# 
   501  0001                     	;# 
   502  0002                     	;# 
   503  0003                     	;# 
   504  0004                     	;# 
   505  0005                     	;# 
   506  0006                     	;# 
   507  0007                     	;# 
   508  0008                     	;# 
   509  0009                     	;# 
   510  000A                     	;# 
   511  000B                     	;# 
   512  000C                     	;# 
   513  000D                     	;# 
   514  000E                     	;# 
   515  0010                     	;# 
   516  0011                     	;# 
   517  0012                     	;# 
   518  0013                     	;# 
   519  0014                     	;# 
   520  0015                     	;# 
   521  0015                     	;# 
   522  0016                     	;# 
   523  0016                     	;# 
   524  0017                     	;# 
   525  0018                     	;# 
   526  0019                     	;# 
   527  0019                     	;# 
   528  001A                     	;# 
   529  001B                     	;# 
   530  001C                     	;# 
   531  001D                     	;# 
   532  001E                     	;# 
   533  001F                     	;# 
   534  008C                     	;# 
   535  008D                     	;# 
   536  008E                     	;# 
   537  0090                     	;# 
   538  0091                     	;# 
   539  0092                     	;# 
   540  0093                     	;# 
   541  0094                     	;# 
   542  0097                     	;# 
   543  009B                     	;# 
   544  009B                     	;# 
   545  009C                     	;# 
   546  009D                     	;# 
   547  009E                     	;# 
   548  009F                     	;# 
   549  010C                     	;# 
   550  010D                     	;# 
   551  010E                     	;# 
   552  0111                     	;# 
   553  0112                     	;# 
   554  0113                     	;# 
   555  0114                     	;# 
   556  0115                     	;# 
   557  0116                     	;# 
   558  0117                     	;# 
   559  0118                     	;# 
   560  0119                     	;# 
   561  018C                     	;# 
   562  018D                     	;# 
   563  018E                     	;# 
   564  0197                     	;# 
   565  0199                     	;# 
   566  0199                     	;# 
   567  0199                     	;# 
   568  019A                     	;# 
   569  019A                     	;# 
   570  019A                     	;# 
   571  019B                     	;# 
   572  019B                     	;# 
   573  019B                     	;# 
   574  019B                     	;# 
   575  019B                     	;# 
   576  019C                     	;# 
   577  019C                     	;# 
   578  019C                     	;# 
   579  019D                     	;# 
   580  019D                     	;# 
   581  019D                     	;# 
   582  019E                     	;# 
   583  019E                     	;# 
   584  019E                     	;# 
   585  019F                     	;# 
   586  019F                     	;# 
   587  019F                     	;# 
   588  019F                     	;# 
   589  019F                     	;# 
   590  020C                     	;# 
   591  020D                     	;# 
   592  020E                     	;# 
   593  0211                     	;# 
   594  0211                     	;# 
   595  0212                     	;# 
   596  0212                     	;# 
   597  0213                     	;# 
   598  0213                     	;# 
   599  0214                     	;# 
   600  0214                     	;# 
   601  0215                     	;# 
   602  0215                     	;# 
   603  0215                     	;# 
   604  0215                     	;# 
   605  0216                     	;# 
   606  0216                     	;# 
   607  0217                     	;# 
   608  0217                     	;# 
   609  0219                     	;# 
   610  021A                     	;# 
   611  021B                     	;# 
   612  021C                     	;# 
   613  021D                     	;# 
   614  021D                     	;# 
   615  021E                     	;# 
   616  021F                     	;# 
   617  028C                     	;# 
   618  028D                     	;# 
   619  028E                     	;# 
   620  0291                     	;# 
   621  0291                     	;# 
   622  0292                     	;# 
   623  0293                     	;# 
   624  0294                     	;# 
   625  0295                     	;# 
   626  0295                     	;# 
   627  0296                     	;# 
   628  0297                     	;# 
   629  0298                     	;# 
   630  029F                     	;# 
   631  030C                     	;# 
   632  030D                     	;# 
   633  030E                     	;# 
   634  0311                     	;# 
   635  0311                     	;# 
   636  0312                     	;# 
   637  0313                     	;# 
   638  0314                     	;# 
   639  0315                     	;# 
   640  0315                     	;# 
   641  0316                     	;# 
   642  0317                     	;# 
   643  0318                     	;# 
   644  038C                     	;# 
   645  038D                     	;# 
   646  038E                     	;# 
   647  0391                     	;# 
   648  0392                     	;# 
   649  0393                     	;# 
   650  0394                     	;# 
   651  0395                     	;# 
   652  0396                     	;# 
   653  0397                     	;# 
   654  0398                     	;# 
   655  0399                     	;# 
   656  039A                     	;# 
   657  039C                     	;# 
   658  039D                     	;# 
   659  039E                     	;# 
   660  039F                     	;# 
   661  0411                     	;# 
   662  0411                     	;# 
   663  0412                     	;# 
   664  0413                     	;# 
   665  0414                     	;# 
   666  0415                     	;# 
   667  0416                     	;# 
   668  0417                     	;# 
   669  0418                     	;# 
   670  0418                     	;# 
   671  0419                     	;# 
   672  041A                     	;# 
   673  041B                     	;# 
   674  041C                     	;# 
   675  041D                     	;# 
   676  041E                     	;# 
   677  041F                     	;# 
   678  0498                     	;# 
   679  0498                     	;# 
   680  0499                     	;# 
   681  049A                     	;# 
   682  049B                     	;# 
   683  049B                     	;# 
   684  049C                     	;# 
   685  049D                     	;# 
   686  049E                     	;# 
   687  049F                     	;# 
   688  0617                     	;# 
   689  0618                     	;# 
   690  0619                     	;# 
   691  0619                     	;# 
   692  061A                     	;# 
   693  061B                     	;# 
   694  061C                     	;# 
   695  061C                     	;# 
   696  061F                     	;# 
   697  0691                     	;# 
   698  0692                     	;# 
   699  0693                     	;# 
   700  0694                     	;# 
   701  0695                     	;# 
   702  0696                     	;# 
   703  0697                     	;# 
   704  0698                     	;# 
   705  0699                     	;# 
   706  0711                     	;# 
   707  0712                     	;# 
   708  0713                     	;# 
   709  0714                     	;# 
   710  0715                     	;# 
   711  0716                     	;# 
   712  0717                     	;# 
   713  0718                     	;# 
   714  0719                     	;# 
   715  0891                     	;# 
   716  0891                     	;# 
   717  0891                     	;# 
   718  0891                     	;# 
   719  0891                     	;# 
   720  0891                     	;# 
   721  0892                     	;# 
   722  0892                     	;# 
   723  0892                     	;# 
   724  0893                     	;# 
   725  0893                     	;# 
   726  0893                     	;# 
   727  0893                     	;# 
   728  0893                     	;# 
   729  0893                     	;# 
   730  0894                     	;# 
   731  0894                     	;# 
   732  0894                     	;# 
   733  0895                     	;# 
   734  0895                     	;# 
   735  0895                     	;# 
   736  0896                     	;# 
   737  0896                     	;# 
   738  0896                     	;# 
   739  089B                     	;# 
   740  0911                     	;# 
   741  0912                     	;# 
   742  0913                     	;# 
   743  0914                     	;# 
   744  0915                     	;# 
   745  0916                     	;# 
   746  0918                     	;# 
   747  0919                     	;# 
   748  091A                     	;# 
   749  091B                     	;# 
   750  091C                     	;# 
   751  091D                     	;# 
   752  091E                     	;# 
   753  091F                     	;# 
   754  0E0F                     	;# 
   755  0E10                     	;# 
   756  0E11                     	;# 
   757  0E12                     	;# 
   758  0E13                     	;# 
   759  0E14                     	;# 
   760  0E15                     	;# 
   761  0E16                     	;# 
   762  0E17                     	;# 
   763  0E18                     	;# 
   764  0E19                     	;# 
   765  0E1A                     	;# 
   766  0E1B                     	;# 
   767  0E1C                     	;# 
   768  0E1D                     	;# 
   769  0E1E                     	;# 
   770  0E1F                     	;# 
   771  0E20                     	;# 
   772  0E21                     	;# 
   773  0E22                     	;# 
   774  0E24                     	;# 
   775  0E25                     	;# 
   776  0E28                     	;# 
   777  0E29                     	;# 
   778  0E2A                     	;# 
   779  0E2B                     	;# 
   780  0E2C                     	;# 
   781  0E2D                     	;# 
   782  0E2E                     	;# 
   783  0E2F                     	;# 
   784  0E90                     	;# 
   785  0E91                     	;# 
   786  0E92                     	;# 
   787  0E94                     	;# 
   788  0E95                     	;# 
   789  0E9C                     	;# 
   790  0E9D                     	;# 
   791  0E9E                     	;# 
   792  0E9F                     	;# 
   793  0EA0                     	;# 
   794  0EA1                     	;# 
   795  0EA2                     	;# 
   796  0EA3                     	;# 
   797  0EA4                     	;# 
   798  0EA5                     	;# 
   799  0EA6                     	;# 
   800  0EA7                     	;# 
   801  0F0F                     	;# 
   802  0F10                     	;# 
   803  0F11                     	;# 
   804  0F12                     	;# 
   805  0F13                     	;# 
   806  0F14                     	;# 
   807  0F15                     	;# 
   808  0F16                     	;# 
   809  0F17                     	;# 
   810  0F18                     	;# 
   811  0F19                     	;# 
   812  0F1A                     	;# 
   813  0F1B                     	;# 
   814  0F1C                     	;# 
   815  0F1D                     	;# 
   816  0F1E                     	;# 
   817  0F1F                     	;# 
   818  0F20                     	;# 
   819  0F21                     	;# 
   820  0F22                     	;# 
   821  0F23                     	;# 
   822  0F24                     	;# 
   823  0F25                     	;# 
   824  0F26                     	;# 
   825  0F27                     	;# 
   826  0F28                     	;# 
   827  0F29                     	;# 
   828  0F2A                     	;# 
   829  0F2B                     	;# 
   830  0F2C                     	;# 
   831  0F2D                     	;# 
   832  0F2E                     	;# 
   833  0F2F                     	;# 
   834  0F30                     	;# 
   835  0F31                     	;# 
   836  0F32                     	;# 
   837  0F33                     	;# 
   838  0F34                     	;# 
   839  0F35                     	;# 
   840  0F36                     	;# 
   841  0F37                     	;# 
   842  0FE4                     	;# 
   843  0FE5                     	;# 
   844  0FE6                     	;# 
   845  0FE7                     	;# 
   846  0FE8                     	;# 
   847  0FE9                     	;# 
   848  0FEA                     	;# 
   849  0FEB                     	;# 
   850  0FED                     	;# 
   851  0FEE                     	;# 
   852  0FEF                     	;# 
   853  0000                     	;# 
   854  0001                     	;# 
   855  0002                     	;# 
   856  0003                     	;# 
   857  0004                     	;# 
   858  0005                     	;# 
   859  0006                     	;# 
   860  0007                     	;# 
   861  0008                     	;# 
   862  0009                     	;# 
   863  000A                     	;# 
   864  000B                     	;# 
   865  000C                     	;# 
   866  000D                     	;# 
   867  000E                     	;# 
   868  0010                     	;# 
   869  0011                     	;# 
   870  0012                     	;# 
   871  0013                     	;# 
   872  0014                     	;# 
   873  0015                     	;# 
   874  0015                     	;# 
   875  0016                     	;# 
   876  0016                     	;# 
   877  0017                     	;# 
   878  0018                     	;# 
   879  0019                     	;# 
   880  0019                     	;# 
   881  001A                     	;# 
   882  001B                     	;# 
   883  001C                     	;# 
   884  001D                     	;# 
   885  001E                     	;# 
   886  001F                     	;# 
   887  008C                     	;# 
   888  008D                     	;# 
   889  008E                     	;# 
   890  0090                     	;# 
   891  0091                     	;# 
   892  0092                     	;# 
   893  0093                     	;# 
   894  0094                     	;# 
   895  0097                     	;# 
   896  009B                     	;# 
   897  009B                     	;# 
   898  009C                     	;# 
   899  009D                     	;# 
   900  009E                     	;# 
   901  009F                     	;# 
   902  010C                     	;# 
   903  010D                     	;# 
   904  010E                     	;# 
   905  0111                     	;# 
   906  0112                     	;# 
   907  0113                     	;# 
   908  0114                     	;# 
   909  0115                     	;# 
   910  0116                     	;# 
   911  0117                     	;# 
   912  0118                     	;# 
   913  0119                     	;# 
   914  018C                     	;# 
   915  018D                     	;# 
   916  018E                     	;# 
   917  0197                     	;# 
   918  0199                     	;# 
   919  0199                     	;# 
   920  0199                     	;# 
   921  019A                     	;# 
   922  019A                     	;# 
   923  019A                     	;# 
   924  019B                     	;# 
   925  019B                     	;# 
   926  019B                     	;# 
   927  019B                     	;# 
   928  019B                     	;# 
   929  019C                     	;# 
   930  019C                     	;# 
   931  019C                     	;# 
   932  019D                     	;# 
   933  019D                     	;# 
   934  019D                     	;# 
   935  019E                     	;# 
   936  019E                     	;# 
   937  019E                     	;# 
   938  019F                     	;# 
   939  019F                     	;# 
   940  019F                     	;# 
   941  019F                     	;# 
   942  019F                     	;# 
   943  020C                     	;# 
   944  020D                     	;# 
   945  020E                     	;# 
   946  0211                     	;# 
   947  0211                     	;# 
   948  0212                     	;# 
   949  0212                     	;# 
   950  0213                     	;# 
   951  0213                     	;# 
   952  0214                     	;# 
   953  0214                     	;# 
   954  0215                     	;# 
   955  0215                     	;# 
   956  0215                     	;# 
   957  0215                     	;# 
   958  0216                     	;# 
   959  0216                     	;# 
   960  0217                     	;# 
   961  0217                     	;# 
   962  0219                     	;# 
   963  021A                     	;# 
   964  021B                     	;# 
   965  021C                     	;# 
   966  021D                     	;# 
   967  021D                     	;# 
   968  021E                     	;# 
   969  021F                     	;# 
   970  028C                     	;# 
   971  028D                     	;# 
   972  028E                     	;# 
   973  0291                     	;# 
   974  0291                     	;# 
   975  0292                     	;# 
   976  0293                     	;# 
   977  0294                     	;# 
   978  0295                     	;# 
   979  0295                     	;# 
   980  0296                     	;# 
   981  0297                     	;# 
   982  0298                     	;# 
   983  029F                     	;# 
   984  030C                     	;# 
   985  030D                     	;# 
   986  030E                     	;# 
   987  0311                     	;# 
   988  0311                     	;# 
   989  0312                     	;# 
   990  0313                     	;# 
   991  0314                     	;# 
   992  0315                     	;# 
   993  0315                     	;# 
   994  0316                     	;# 
   995  0317                     	;# 
   996  0318                     	;# 
   997  038C                     	;# 
   998  038D                     	;# 
   999  038E                     	;# 
  1000  0391                     	;# 
  1001  0392                     	;# 
  1002  0393                     	;# 
  1003  0394                     	;# 
  1004  0395                     	;# 
  1005  0396                     	;# 
  1006  0397                     	;# 
  1007  0398                     	;# 
  1008  0399                     	;# 
  1009  039A                     	;# 
  1010  039C                     	;# 
  1011  039D                     	;# 
  1012  039E                     	;# 
  1013  039F                     	;# 
  1014  0411                     	;# 
  1015  0411                     	;# 
  1016  0412                     	;# 
  1017  0413                     	;# 
  1018  0414                     	;# 
  1019  0415                     	;# 
  1020  0416                     	;# 
  1021  0417                     	;# 
  1022  0418                     	;# 
  1023  0418                     	;# 
  1024  0419                     	;# 
  1025  041A                     	;# 
  1026  041B                     	;# 
  1027  041C                     	;# 
  1028  041D                     	;# 
  1029  041E                     	;# 
  1030  041F                     	;# 
  1031  0498                     	;# 
  1032  0498                     	;# 
  1033  0499                     	;# 
  1034  049A                     	;# 
  1035  049B                     	;# 
  1036  049B                     	;# 
  1037  049C                     	;# 
  1038  049D                     	;# 
  1039  049E                     	;# 
  1040  049F                     	;# 
  1041  0617                     	;# 
  1042  0618                     	;# 
  1043  0619                     	;# 
  1044  0619                     	;# 
  1045  061A                     	;# 
  1046  061B                     	;# 
  1047  061C                     	;# 
  1048  061C                     	;# 
  1049  061F                     	;# 
  1050  0691                     	;# 
  1051  0692                     	;# 
  1052  0693                     	;# 
  1053  0694                     	;# 
  1054  0695                     	;# 
  1055  0696                     	;# 
  1056  0697                     	;# 
  1057  0698                     	;# 
  1058  0699                     	;# 
  1059  0711                     	;# 
  1060  0712                     	;# 
  1061  0713                     	;# 
  1062  0714                     	;# 
  1063  0715                     	;# 
  1064  0716                     	;# 
  1065  0717                     	;# 
  1066  0718                     	;# 
  1067  0719                     	;# 
  1068  0891                     	;# 
  1069  0891                     	;# 
  1070  0891                     	;# 
  1071  0891                     	;# 
  1072  0891                     	;# 
  1073  0891                     	;# 
  1074  0892                     	;# 
  1075  0892                     	;# 
  1076  0892                     	;# 
  1077  0893                     	;# 
  1078  0893                     	;# 
  1079  0893                     	;# 
  1080  0893                     	;# 
  1081  0893                     	;# 
  1082  0893                     	;# 
  1083  0894                     	;# 
  1084  0894                     	;# 
  1085  0894                     	;# 
  1086  0895                     	;# 
  1087  0895                     	;# 
  1088  0895                     	;# 
  1089  0896                     	;# 
  1090  0896                     	;# 
  1091  0896                     	;# 
  1092  089B                     	;# 
  1093  0911                     	;# 
  1094  0912                     	;# 
  1095  0913                     	;# 
  1096  0914                     	;# 
  1097  0915                     	;# 
  1098  0916                     	;# 
  1099  0918                     	;# 
  1100  0919                     	;# 
  1101  091A                     	;# 
  1102  091B                     	;# 
  1103  091C                     	;# 
  1104  091D                     	;# 
  1105  091E                     	;# 
  1106  091F                     	;# 
  1107  0E0F                     	;# 
  1108  0E10                     	;# 
  1109  0E11                     	;# 
  1110  0E12                     	;# 
  1111  0E13                     	;# 
  1112  0E14                     	;# 
  1113  0E15                     	;# 
  1114  0E16                     	;# 
  1115  0E17                     	;# 
  1116  0E18                     	;# 
  1117  0E19                     	;# 
  1118  0E1A                     	;# 
  1119  0E1B                     	;# 
  1120  0E1C                     	;# 
  1121  0E1D                     	;# 
  1122  0E1E                     	;# 
  1123  0E1F                     	;# 
  1124  0E20                     	;# 
  1125  0E21                     	;# 
  1126  0E22                     	;# 
  1127  0E24                     	;# 
  1128  0E25                     	;# 
  1129  0E28                     	;# 
  1130  0E29                     	;# 
  1131  0E2A                     	;# 
  1132  0E2B                     	;# 
  1133  0E2C                     	;# 
  1134  0E2D                     	;# 
  1135  0E2E                     	;# 
  1136  0E2F                     	;# 
  1137  0E90                     	;# 
  1138  0E91                     	;# 
  1139  0E92                     	;# 
  1140  0E94                     	;# 
  1141  0E95                     	;# 
  1142  0E9C                     	;# 
  1143  0E9D                     	;# 
  1144  0E9E                     	;# 
  1145  0E9F                     	;# 
  1146  0EA0                     	;# 
  1147  0EA1                     	;# 
  1148  0EA2                     	;# 
  1149  0EA3                     	;# 
  1150  0EA4                     	;# 
  1151  0EA5                     	;# 
  1152  0EA6                     	;# 
  1153  0EA7                     	;# 
  1154  0F0F                     	;# 
  1155  0F10                     	;# 
  1156  0F11                     	;# 
  1157  0F12                     	;# 
  1158  0F13                     	;# 
  1159  0F14                     	;# 
  1160  0F15                     	;# 
  1161  0F16                     	;# 
  1162  0F17                     	;# 
  1163  0F18                     	;# 
  1164  0F19                     	;# 
  1165  0F1A                     	;# 
  1166  0F1B                     	;# 
  1167  0F1C                     	;# 
  1168  0F1D                     	;# 
  1169  0F1E                     	;# 
  1170  0F1F                     	;# 
  1171  0F20                     	;# 
  1172  0F21                     	;# 
  1173  0F22                     	;# 
  1174  0F23                     	;# 
  1175  0F24                     	;# 
  1176  0F25                     	;# 
  1177  0F26                     	;# 
  1178  0F27                     	;# 
  1179  0F28                     	;# 
  1180  0F29                     	;# 
  1181  0F2A                     	;# 
  1182  0F2B                     	;# 
  1183  0F2C                     	;# 
  1184  0F2D                     	;# 
  1185  0F2E                     	;# 
  1186  0F2F                     	;# 
  1187  0F30                     	;# 
  1188  0F31                     	;# 
  1189  0F32                     	;# 
  1190  0F33                     	;# 
  1191  0F34                     	;# 
  1192  0F35                     	;# 
  1193  0F36                     	;# 
  1194  0F37                     	;# 
  1195  0FE4                     	;# 
  1196  0FE5                     	;# 
  1197  0FE6                     	;# 
  1198  0FE7                     	;# 
  1199  0FE8                     	;# 
  1200  0FE9                     	;# 
  1201  0FEA                     	;# 
  1202  0FEB                     	;# 
  1203  0FED                     	;# 
  1204  0FEE                     	;# 
  1205  0FEF                     	;# 
  1206  0000                     	;# 
  1207  0001                     	;# 
  1208  0002                     	;# 
  1209  0003                     	;# 
  1210  0004                     	;# 
  1211  0005                     	;# 
  1212  0006                     	;# 
  1213  0007                     	;# 
  1214  0008                     	;# 
  1215  0009                     	;# 
  1216  000A                     	;# 
  1217  000B                     	;# 
  1218  000C                     	;# 
  1219  000D                     	;# 
  1220  000E                     	;# 
  1221  0010                     	;# 
  1222  0011                     	;# 
  1223  0012                     	;# 
  1224  0013                     	;# 
  1225  0014                     	;# 
  1226  0015                     	;# 
  1227  0015                     	;# 
  1228  0016                     	;# 
  1229  0016                     	;# 
  1230  0017                     	;# 
  1231  0018                     	;# 
  1232  0019                     	;# 
  1233  0019                     	;# 
  1234  001A                     	;# 
  1235  001B                     	;# 
  1236  001C                     	;# 
  1237  001D                     	;# 
  1238  001E                     	;# 
  1239  001F                     	;# 
  1240  008C                     	;# 
  1241  008D                     	;# 
  1242  008E                     	;# 
  1243  0090                     	;# 
  1244  0091                     	;# 
  1245  0092                     	;# 
  1246  0093                     	;# 
  1247  0094                     	;# 
  1248  0097                     	;# 
  1249  009B                     	;# 
  1250  009B                     	;# 
  1251  009C                     	;# 
  1252  009D                     	;# 
  1253  009E                     	;# 
  1254  009F                     	;# 
  1255  010C                     	;# 
  1256  010D                     	;# 
  1257  010E                     	;# 
  1258  0111                     	;# 
  1259  0112                     	;# 
  1260  0113                     	;# 
  1261  0114                     	;# 
  1262  0115                     	;# 
  1263  0116                     	;# 
  1264  0117                     	;# 
  1265  0118                     	;# 
  1266  0119                     	;# 
  1267  018C                     	;# 
  1268  018D                     	;# 
  1269  018E                     	;# 
  1270  0197                     	;# 
  1271  0199                     	;# 
  1272  0199                     	;# 
  1273  0199                     	;# 
  1274  019A                     	;# 
  1275  019A                     	;# 
  1276  019A                     	;# 
  1277  019B                     	;# 
  1278  019B                     	;# 
  1279  019B                     	;# 
  1280  019B                     	;# 
  1281  019B                     	;# 
  1282  019C                     	;# 
  1283  019C                     	;# 
  1284  019C                     	;# 
  1285  019D                     	;# 
  1286  019D                     	;# 
  1287  019D                     	;# 
  1288  019E                     	;# 
  1289  019E                     	;# 
  1290  019E                     	;# 
  1291  019F                     	;# 
  1292  019F                     	;# 
  1293  019F                     	;# 
  1294  019F                     	;# 
  1295  019F                     	;# 
  1296  020C                     	;# 
  1297  020D                     	;# 
  1298  020E                     	;# 
  1299  0211                     	;# 
  1300  0211                     	;# 
  1301  0212                     	;# 
  1302  0212                     	;# 
  1303  0213                     	;# 
  1304  0213                     	;# 
  1305  0214                     	;# 
  1306  0214                     	;# 
  1307  0215                     	;# 
  1308  0215                     	;# 
  1309  0215                     	;# 
  1310  0215                     	;# 
  1311  0216                     	;# 
  1312  0216                     	;# 
  1313  0217                     	;# 
  1314  0217                     	;# 
  1315  0219                     	;# 
  1316  021A                     	;# 
  1317  021B                     	;# 
  1318  021C                     	;# 
  1319  021D                     	;# 
  1320  021D                     	;# 
  1321  021E                     	;# 
  1322  021F                     	;# 
  1323  028C                     	;# 
  1324  028D                     	;# 
  1325  028E                     	;# 
  1326  0291                     	;# 
  1327  0291                     	;# 
  1328  0292                     	;# 
  1329  0293                     	;# 
  1330  0294                     	;# 
  1331  0295                     	;# 
  1332  0295                     	;# 
  1333  0296                     	;# 
  1334  0297                     	;# 
  1335  0298                     	;# 
  1336  029F                     	;# 
  1337  030C                     	;# 
  1338  030D                     	;# 
  1339  030E                     	;# 
  1340  0311                     	;# 
  1341  0311                     	;# 
  1342  0312                     	;# 
  1343  0313                     	;# 
  1344  0314                     	;# 
  1345  0315                     	;# 
  1346  0315                     	;# 
  1347  0316                     	;# 
  1348  0317                     	;# 
  1349  0318                     	;# 
  1350  038C                     	;# 
  1351  038D                     	;# 
  1352  038E                     	;# 
  1353  0391                     	;# 
  1354  0392                     	;# 
  1355  0393                     	;# 
  1356  0394                     	;# 
  1357  0395                     	;# 
  1358  0396                     	;# 
  1359  0397                     	;# 
  1360  0398                     	;# 
  1361  0399                     	;# 
  1362  039A                     	;# 
  1363  039C                     	;# 
  1364  039D                     	;# 
  1365  039E                     	;# 
  1366  039F                     	;# 
  1367  0411                     	;# 
  1368  0411                     	;# 
  1369  0412                     	;# 
  1370  0413                     	;# 
  1371  0414                     	;# 
  1372  0415                     	;# 
  1373  0416                     	;# 
  1374  0417                     	;# 
  1375  0418                     	;# 
  1376  0418                     	;# 
  1377  0419                     	;# 
  1378  041A                     	;# 
  1379  041B                     	;# 
  1380  041C                     	;# 
  1381  041D                     	;# 
  1382  041E                     	;# 
  1383  041F                     	;# 
  1384  0498                     	;# 
  1385  0498                     	;# 
  1386  0499                     	;# 
  1387  049A                     	;# 
  1388  049B                     	;# 
  1389  049B                     	;# 
  1390  049C                     	;# 
  1391  049D                     	;# 
  1392  049E                     	;# 
  1393  049F                     	;# 
  1394  0617                     	;# 
  1395  0618                     	;# 
  1396  0619                     	;# 
  1397  0619                     	;# 
  1398  061A                     	;# 
  1399  061B                     	;# 
  1400  061C                     	;# 
  1401  061C                     	;# 
  1402  061F                     	;# 
  1403  0691                     	;# 
  1404  0692                     	;# 
  1405  0693                     	;# 
  1406  0694                     	;# 
  1407  0695                     	;# 
  1408  0696                     	;# 
  1409  0697                     	;# 
  1410  0698                     	;# 
  1411  0699                     	;# 
  1412  0711                     	;# 
  1413  0712                     	;# 
  1414  0713                     	;# 
  1415  0714                     	;# 
  1416  0715                     	;# 
  1417  0716                     	;# 
  1418  0717                     	;# 
  1419  0718                     	;# 
  1420  0719                     	;# 
  1421  0891                     	;# 
  1422  0891                     	;# 
  1423  0891                     	;# 
  1424  0891                     	;# 
  1425  0891                     	;# 
  1426  0891                     	;# 
  1427  0892                     	;# 
  1428  0892                     	;# 
  1429  0892                     	;# 
  1430  0893                     	;# 
  1431  0893                     	;# 
  1432  0893                     	;# 
  1433  0893                     	;# 
  1434  0893                     	;# 
  1435  0893                     	;# 
  1436  0894                     	;# 
  1437  0894                     	;# 
  1438  0894                     	;# 
  1439  0895                     	;# 
  1440  0895                     	;# 
  1441  0895                     	;# 
  1442  0896                     	;# 
  1443  0896                     	;# 
  1444  0896                     	;# 
  1445  089B                     	;# 
  1446  0911                     	;# 
  1447  0912                     	;# 
  1448  0913                     	;# 
  1449  0914                     	;# 
  1450  0915                     	;# 
  1451  0916                     	;# 
  1452  0918                     	;# 
  1453  0919                     	;# 
  1454  091A                     	;# 
  1455  091B                     	;# 
  1456  091C                     	;# 
  1457  091D                     	;# 
  1458  091E                     	;# 
  1459  091F                     	;# 
  1460  0E0F                     	;# 
  1461  0E10                     	;# 
  1462  0E11                     	;# 
  1463  0E12                     	;# 
  1464  0E13                     	;# 
  1465  0E14                     	;# 
  1466  0E15                     	;# 
  1467  0E16                     	;# 
  1468  0E17                     	;# 
  1469  0E18                     	;# 
  1470  0E19                     	;# 
  1471  0E1A                     	;# 
  1472  0E1B                     	;# 
  1473  0E1C                     	;# 
  1474  0E1D                     	;# 
  1475  0E1E                     	;# 
  1476  0E1F                     	;# 
  1477  0E20                     	;# 
  1478  0E21                     	;# 
  1479  0E22                     	;# 
  1480  0E24                     	;# 
  1481  0E25                     	;# 
  1482  0E28                     	;# 
  1483  0E29                     	;# 
  1484  0E2A                     	;# 
  1485  0E2B                     	;# 
  1486  0E2C                     	;# 
  1487  0E2D                     	;# 
  1488  0E2E                     	;# 
  1489  0E2F                     	;# 
  1490  0E90                     	;# 
  1491  0E91                     	;# 
  1492  0E92                     	;# 
  1493  0E94                     	;# 
  1494  0E95                     	;# 
  1495  0E9C                     	;# 
  1496  0E9D                     	;# 
  1497  0E9E                     	;# 
  1498  0E9F                     	;# 
  1499  0EA0                     	;# 
  1500  0EA1                     	;# 
  1501  0EA2                     	;# 
  1502  0EA3                     	;# 
  1503  0EA4                     	;# 
  1504  0EA5                     	;# 
  1505  0EA6                     	;# 
  1506  0EA7                     	;# 
  1507  0F0F                     	;# 
  1508  0F10                     	;# 
  1509  0F11                     	;# 
  1510  0F12                     	;# 
  1511  0F13                     	;# 
  1512  0F14                     	;# 
  1513  0F15                     	;# 
  1514  0F16                     	;# 
  1515  0F17                     	;# 
  1516  0F18                     	;# 
  1517  0F19                     	;# 
  1518  0F1A                     	;# 
  1519  0F1B                     	;# 
  1520  0F1C                     	;# 
  1521  0F1D                     	;# 
  1522  0F1E                     	;# 
  1523  0F1F                     	;# 
  1524  0F20                     	;# 
  1525  0F21                     	;# 
  1526  0F22                     	;# 
  1527  0F23                     	;# 
  1528  0F24                     	;# 
  1529  0F25                     	;# 
  1530  0F26                     	;# 
  1531  0F27                     	;# 
  1532  0F28                     	;# 
  1533  0F29                     	;# 
  1534  0F2A                     	;# 
  1535  0F2B                     	;# 
  1536  0F2C                     	;# 
  1537  0F2D                     	;# 
  1538  0F2E                     	;# 
  1539  0F2F                     	;# 
  1540  0F30                     	;# 
  1541  0F31                     	;# 
  1542  0F32                     	;# 
  1543  0F33                     	;# 
  1544  0F34                     	;# 
  1545  0F35                     	;# 
  1546  0F36                     	;# 
  1547  0F37                     	;# 
  1548  0FE4                     	;# 
  1549  0FE5                     	;# 
  1550  0FE6                     	;# 
  1551  0FE7                     	;# 
  1552  0FE8                     	;# 
  1553  0FE9                     	;# 
  1554  0FEA                     	;# 
  1555  0FEB                     	;# 
  1556  0FED                     	;# 
  1557  0FEE                     	;# 
  1558  0FEF                     	;# 
  1559  0000                     	;# 
  1560  0001                     	;# 
  1561  0002                     	;# 
  1562  0003                     	;# 
  1563  0004                     	;# 
  1564  0005                     	;# 
  1565  0006                     	;# 
  1566  0007                     	;# 
  1567  0008                     	;# 
  1568  0009                     	;# 
  1569  000A                     	;# 
  1570  000B                     	;# 
  1571  000C                     	;# 
  1572  000D                     	;# 
  1573  000E                     	;# 
  1574  0010                     	;# 
  1575  0011                     	;# 
  1576  0012                     	;# 
  1577  0013                     	;# 
  1578  0014                     	;# 
  1579  0015                     	;# 
  1580  0015                     	;# 
  1581  0016                     	;# 
  1582  0016                     	;# 
  1583  0017                     	;# 
  1584  0018                     	;# 
  1585  0019                     	;# 
  1586  0019                     	;# 
  1587  001A                     	;# 
  1588  001B                     	;# 
  1589  001C                     	;# 
  1590  001D                     	;# 
  1591  001E                     	;# 
  1592  001F                     	;# 
  1593  008C                     	;# 
  1594  008D                     	;# 
  1595  008E                     	;# 
  1596  0090                     	;# 
  1597  0091                     	;# 
  1598  0092                     	;# 
  1599  0093                     	;# 
  1600  0094                     	;# 
  1601  0097                     	;# 
  1602  009B                     	;# 
  1603  009B                     	;# 
  1604  009C                     	;# 
  1605  009D                     	;# 
  1606  009E                     	;# 
  1607  009F                     	;# 
  1608  010C                     	;# 
  1609  010D                     	;# 
  1610  010E                     	;# 
  1611  0111                     	;# 
  1612  0112                     	;# 
  1613  0113                     	;# 
  1614  0114                     	;# 
  1615  0115                     	;# 
  1616  0116                     	;# 
  1617  0117                     	;# 
  1618  0118                     	;# 
  1619  0119                     	;# 
  1620  018C                     	;# 
  1621  018D                     	;# 
  1622  018E                     	;# 
  1623  0197                     	;# 
  1624  0199                     	;# 
  1625  0199                     	;# 
  1626  0199                     	;# 
  1627  019A                     	;# 
  1628  019A                     	;# 
  1629  019A                     	;# 
  1630  019B                     	;# 
  1631  019B                     	;# 
  1632  019B                     	;# 
  1633  019B                     	;# 
  1634  019B                     	;# 
  1635  019C                     	;# 
  1636  019C                     	;# 
  1637  019C                     	;# 
  1638  019D                     	;# 
  1639  019D                     	;# 
  1640  019D                     	;# 
  1641  019E                     	;# 
  1642  019E                     	;# 
  1643  019E                     	;# 
  1644  019F                     	;# 
  1645  019F                     	;# 
  1646  019F                     	;# 
  1647  019F                     	;# 
  1648  019F                     	;# 
  1649  020C                     	;# 
  1650  020D                     	;# 
  1651  020E                     	;# 
  1652  0211                     	;# 
  1653  0211                     	;# 
  1654  0212                     	;# 
  1655  0212                     	;# 
  1656  0213                     	;# 
  1657  0213                     	;# 
  1658  0214                     	;# 
  1659  0214                     	;# 
  1660  0215                     	;# 
  1661  0215                     	;# 
  1662  0215                     	;# 
  1663  0215                     	;# 
  1664  0216                     	;# 
  1665  0216                     	;# 
  1666  0217                     	;# 
  1667  0217                     	;# 
  1668  0219                     	;# 
  1669  021A                     	;# 
  1670  021B                     	;# 
  1671  021C                     	;# 
  1672  021D                     	;# 
  1673  021D                     	;# 
  1674  021E                     	;# 
  1675  021F                     	;# 
  1676  028C                     	;# 
  1677  028D                     	;# 
  1678  028E                     	;# 
  1679  0291                     	;# 
  1680  0291                     	;# 
  1681  0292                     	;# 
  1682  0293                     	;# 
  1683  0294                     	;# 
  1684  0295                     	;# 
  1685  0295                     	;# 
  1686  0296                     	;# 
  1687  0297                     	;# 
  1688  0298                     	;# 
  1689  029F                     	;# 
  1690  030C                     	;# 
  1691  030D                     	;# 
  1692  030E                     	;# 
  1693  0311                     	;# 
  1694  0311                     	;# 
  1695  0312                     	;# 
  1696  0313                     	;# 
  1697  0314                     	;# 
  1698  0315                     	;# 
  1699  0315                     	;# 
  1700  0316                     	;# 
  1701  0317                     	;# 
  1702  0318                     	;# 
  1703  038C                     	;# 
  1704  038D                     	;# 
  1705  038E                     	;# 
  1706  0391                     	;# 
  1707  0392                     	;# 
  1708  0393                     	;# 
  1709  0394                     	;# 
  1710  0395                     	;# 
  1711  0396                     	;# 
  1712  0397                     	;# 
  1713  0398                     	;# 
  1714  0399                     	;# 
  1715  039A                     	;# 
  1716  039C                     	;# 
  1717  039D                     	;# 
  1718  039E                     	;# 
  1719  039F                     	;# 
  1720  0411                     	;# 
  1721  0411                     	;# 
  1722  0412                     	;# 
  1723  0413                     	;# 
  1724  0414                     	;# 
  1725  0415                     	;# 
  1726  0416                     	;# 
  1727  0417                     	;# 
  1728  0418                     	;# 
  1729  0418                     	;# 
  1730  0419                     	;# 
  1731  041A                     	;# 
  1732  041B                     	;# 
  1733  041C                     	;# 
  1734  041D                     	;# 
  1735  041E                     	;# 
  1736  041F                     	;# 
  1737  0498                     	;# 
  1738  0498                     	;# 
  1739  0499                     	;# 
  1740  049A                     	;# 
  1741  049B                     	;# 
  1742  049B                     	;# 
  1743  049C                     	;# 
  1744  049D                     	;# 
  1745  049E                     	;# 
  1746  049F                     	;# 
  1747  0617                     	;# 
  1748  0618                     	;# 
  1749  0619                     	;# 
  1750  0619                     	;# 
  1751  061A                     	;# 
  1752  061B                     	;# 
  1753  061C                     	;# 
  1754  061C                     	;# 
  1755  061F                     	;# 
  1756  0691                     	;# 
  1757  0692                     	;# 
  1758  0693                     	;# 
  1759  0694                     	;# 
  1760  0695                     	;# 
  1761  0696                     	;# 
  1762  0697                     	;# 
  1763  0698                     	;# 
  1764  0699                     	;# 
  1765  0711                     	;# 
  1766  0712                     	;# 
  1767  0713                     	;# 
  1768  0714                     	;# 
  1769  0715                     	;# 
  1770  0716                     	;# 
  1771  0717                     	;# 
  1772  0718                     	;# 
  1773  0719                     	;# 
  1774  0891                     	;# 
  1775  0891                     	;# 
  1776  0891                     	;# 
  1777  0891                     	;# 
  1778  0891                     	;# 
  1779  0891                     	;# 
  1780  0892                     	;# 
  1781  0892                     	;# 
  1782  0892                     	;# 
  1783  0893                     	;# 
  1784  0893                     	;# 
  1785  0893                     	;# 
  1786  0893                     	;# 
  1787  0893                     	;# 
  1788  0893                     	;# 
  1789  0894                     	;# 
  1790  0894                     	;# 
  1791  0894                     	;# 
  1792  0895                     	;# 
  1793  0895                     	;# 
  1794  0895                     	;# 
  1795  0896                     	;# 
  1796  0896                     	;# 
  1797  0896                     	;# 
  1798  089B                     	;# 
  1799  0911                     	;# 
  1800  0912                     	;# 
  1801  0913                     	;# 
  1802  0914                     	;# 
  1803  0915                     	;# 
  1804  0916                     	;# 
  1805  0918                     	;# 
  1806  0919                     	;# 
  1807  091A                     	;# 
  1808  091B                     	;# 
  1809  091C                     	;# 
  1810  091D                     	;# 
  1811  091E                     	;# 
  1812  091F                     	;# 
  1813  0E0F                     	;# 
  1814  0E10                     	;# 
  1815  0E11                     	;# 
  1816  0E12                     	;# 
  1817  0E13                     	;# 
  1818  0E14                     	;# 
  1819  0E15                     	;# 
  1820  0E16                     	;# 
  1821  0E17                     	;# 
  1822  0E18                     	;# 
  1823  0E19                     	;# 
  1824  0E1A                     	;# 
  1825  0E1B                     	;# 
  1826  0E1C                     	;# 
  1827  0E1D                     	;# 
  1828  0E1E                     	;# 
  1829  0E1F                     	;# 
  1830  0E20                     	;# 
  1831  0E21                     	;# 
  1832  0E22                     	;# 
  1833  0E24                     	;# 
  1834  0E25                     	;# 
  1835  0E28                     	;# 
  1836  0E29                     	;# 
  1837  0E2A                     	;# 
  1838  0E2B                     	;# 
  1839  0E2C                     	;# 
  1840  0E2D                     	;# 
  1841  0E2E                     	;# 
  1842  0E2F                     	;# 
  1843  0E90                     	;# 
  1844  0E91                     	;# 
  1845  0E92                     	;# 
  1846  0E94                     	;# 
  1847  0E95                     	;# 
  1848  0E9C                     	;# 
  1849  0E9D                     	;# 
  1850  0E9E                     	;# 
  1851  0E9F                     	;# 
  1852  0EA0                     	;# 
  1853  0EA1                     	;# 
  1854  0EA2                     	;# 
  1855  0EA3                     	;# 
  1856  0EA4                     	;# 
  1857  0EA5                     	;# 
  1858  0EA6                     	;# 
  1859  0EA7                     	;# 
  1860  0F0F                     	;# 
  1861  0F10                     	;# 
  1862  0F11                     	;# 
  1863  0F12                     	;# 
  1864  0F13                     	;# 
  1865  0F14                     	;# 
  1866  0F15                     	;# 
  1867  0F16                     	;# 
  1868  0F17                     	;# 
  1869  0F18                     	;# 
  1870  0F19                     	;# 
  1871  0F1A                     	;# 
  1872  0F1B                     	;# 
  1873  0F1C                     	;# 
  1874  0F1D                     	;# 
  1875  0F1E                     	;# 
  1876  0F1F                     	;# 
  1877  0F20                     	;# 
  1878  0F21                     	;# 
  1879  0F22                     	;# 
  1880  0F23                     	;# 
  1881  0F24                     	;# 
  1882  0F25                     	;# 
  1883  0F26                     	;# 
  1884  0F27                     	;# 
  1885  0F28                     	;# 
  1886  0F29                     	;# 
  1887  0F2A                     	;# 
  1888  0F2B                     	;# 
  1889  0F2C                     	;# 
  1890  0F2D                     	;# 
  1891  0F2E                     	;# 
  1892  0F2F                     	;# 
  1893  0F30                     	;# 
  1894  0F31                     	;# 
  1895  0F32                     	;# 
  1896  0F33                     	;# 
  1897  0F34                     	;# 
  1898  0F35                     	;# 
  1899  0F36                     	;# 
  1900  0F37                     	;# 
  1901  0FE4                     	;# 
  1902  0FE5                     	;# 
  1903  0FE6                     	;# 
  1904  0FE7                     	;# 
  1905  0FE8                     	;# 
  1906  0FE9                     	;# 
  1907  0FEA                     	;# 
  1908  0FEB                     	;# 
  1909  0FED                     	;# 
  1910  0FEE                     	;# 
  1911  0FEF                     	;# 
  1912  0000                     	;# 
  1913  0001                     	;# 
  1914  0002                     	;# 
  1915  0003                     	;# 
  1916  0004                     	;# 
  1917  0005                     	;# 
  1918  0006                     	;# 
  1919  0007                     	;# 
  1920  0008                     	;# 
  1921  0009                     	;# 
  1922  000A                     	;# 
  1923  000B                     	;# 
  1924  000C                     	;# 
  1925  000D                     	;# 
  1926  000E                     	;# 
  1927  0010                     	;# 
  1928  0011                     	;# 
  1929  0012                     	;# 
  1930  0013                     	;# 
  1931  0014                     	;# 
  1932  0015                     	;# 
  1933  0015                     	;# 
  1934  0016                     	;# 
  1935  0016                     	;# 
  1936  0017                     	;# 
  1937  0018                     	;# 
  1938  0019                     	;# 
  1939  0019                     	;# 
  1940  001A                     	;# 
  1941  001B                     	;# 
  1942  001C                     	;# 
  1943  001D                     	;# 
  1944  001E                     	;# 
  1945  001F                     	;# 
  1946  008C                     	;# 
  1947  008D                     	;# 
  1948  008E                     	;# 
  1949  0090                     	;# 
  1950  0091                     	;# 
  1951  0092                     	;# 
  1952  0093                     	;# 
  1953  0094                     	;# 
  1954  0097                     	;# 
  1955  009B                     	;# 
  1956  009B                     	;# 
  1957  009C                     	;# 
  1958  009D                     	;# 
  1959  009E                     	;# 
  1960  009F                     	;# 
  1961  010C                     	;# 
  1962  010D                     	;# 
  1963  010E                     	;# 
  1964  0111                     	;# 
  1965  0112                     	;# 
  1966  0113                     	;# 
  1967  0114                     	;# 
  1968  0115                     	;# 
  1969  0116                     	;# 
  1970  0117                     	;# 
  1971  0118                     	;# 
  1972  0119                     	;# 
  1973  018C                     	;# 
  1974  018D                     	;# 
  1975  018E                     	;# 
  1976  0197                     	;# 
  1977  0199                     	;# 
  1978  0199                     	;# 
  1979  0199                     	;# 
  1980  019A                     	;# 
  1981  019A                     	;# 
  1982  019A                     	;# 
  1983  019B                     	;# 
  1984  019B                     	;# 
  1985  019B                     	;# 
  1986  019B                     	;# 
  1987  019B                     	;# 
  1988  019C                     	;# 
  1989  019C                     	;# 
  1990  019C                     	;# 
  1991  019D                     	;# 
  1992  019D                     	;# 
  1993  019D                     	;# 
  1994  019E                     	;# 
  1995  019E                     	;# 
  1996  019E                     	;# 
  1997  019F                     	;# 
  1998  019F                     	;# 
  1999  019F                     	;# 
  2000  019F                     	;# 
  2001  019F                     	;# 
  2002  020C                     	;# 
  2003  020D                     	;# 
  2004  020E                     	;# 
  2005  0211                     	;# 
  2006  0211                     	;# 
  2007  0212                     	;# 
  2008  0212                     	;# 
  2009  0213                     	;# 
  2010  0213                     	;# 
  2011  0214                     	;# 
  2012  0214                     	;# 
  2013  0215                     	;# 
  2014  0215                     	;# 
  2015  0215                     	;# 
  2016  0215                     	;# 
  2017  0216                     	;# 
  2018  0216                     	;# 
  2019  0217                     	;# 
  2020  0217                     	;# 
  2021  0219                     	;# 
  2022  021A                     	;# 
  2023  021B                     	;# 
  2024  021C                     	;# 
  2025  021D                     	;# 
  2026  021D                     	;# 
  2027  021E                     	;# 
  2028  021F                     	;# 
  2029  028C                     	;# 
  2030  028D                     	;# 
  2031  028E                     	;# 
  2032  0291                     	;# 
  2033  0291                     	;# 
  2034  0292                     	;# 
  2035  0293                     	;# 
  2036  0294                     	;# 
  2037  0295                     	;# 
  2038  0295                     	;# 
  2039  0296                     	;# 
  2040  0297                     	;# 
  2041  0298                     	;# 
  2042  029F                     	;# 
  2043  030C                     	;# 
  2044  030D                     	;# 
  2045  030E                     	;# 
  2046  0311                     	;# 
  2047  0311                     	;# 
  2048  0312                     	;# 
  2049  0313                     	;# 
  2050  0314                     	;# 
  2051  0315                     	;# 
  2052  0315                     	;# 
  2053  0316                     	;# 
  2054  0317                     	;# 
  2055  0318                     	;# 
  2056  038C                     	;# 
  2057  038D                     	;# 
  2058  038E                     	;# 
  2059  0391                     	;# 
  2060  0392                     	;# 
  2061  0393                     	;# 
  2062  0394                     	;# 
  2063  0395                     	;# 
  2064  0396                     	;# 
  2065  0397                     	;# 
  2066  0398                     	;# 
  2067  0399                     	;# 
  2068  039A                     	;# 
  2069  039C                     	;# 
  2070  039D                     	;# 
  2071  039E                     	;# 
  2072  039F                     	;# 
  2073  0411                     	;# 
  2074  0411                     	;# 
  2075  0412                     	;# 
  2076  0413                     	;# 
  2077  0414                     	;# 
  2078  0415                     	;# 
  2079  0416                     	;# 
  2080  0417                     	;# 
  2081  0418                     	;# 
  2082  0418                     	;# 
  2083  0419                     	;# 
  2084  041A                     	;# 
  2085  041B                     	;# 
  2086  041C                     	;# 
  2087  041D                     	;# 
  2088  041E                     	;# 
  2089  041F                     	;# 
  2090  0498                     	;# 
  2091  0498                     	;# 
  2092  0499                     	;# 
  2093  049A                     	;# 
  2094  049B                     	;# 
  2095  049B                     	;# 
  2096  049C                     	;# 
  2097  049D                     	;# 
  2098  049E                     	;# 
  2099  049F                     	;# 
  2100  0617                     	;# 
  2101  0618                     	;# 
  2102  0619                     	;# 
  2103  0619                     	;# 
  2104  061A                     	;# 
  2105  061B                     	;# 
  2106  061C                     	;# 
  2107  061C                     	;# 
  2108  061F                     	;# 
  2109  0691                     	;# 
  2110  0692                     	;# 
  2111  0693                     	;# 
  2112  0694                     	;# 
  2113  0695                     	;# 
  2114  0696                     	;# 
  2115  0697                     	;# 
  2116  0698                     	;# 
  2117  0699                     	;# 
  2118  0711                     	;# 
  2119  0712                     	;# 
  2120  0713                     	;# 
  2121  0714                     	;# 
  2122  0715                     	;# 
  2123  0716                     	;# 
  2124  0717                     	;# 
  2125  0718                     	;# 
  2126  0719                     	;# 
  2127  0891                     	;# 
  2128  0891                     	;# 
  2129  0891                     	;# 
  2130  0891                     	;# 
  2131  0891                     	;# 
  2132  0891                     	;# 
  2133  0892                     	;# 
  2134  0892                     	;# 
  2135  0892                     	;# 
  2136  0893                     	;# 
  2137  0893                     	;# 
  2138  0893                     	;# 
  2139  0893                     	;# 
  2140  0893                     	;# 
  2141  0893                     	;# 
  2142  0894                     	;# 
  2143  0894                     	;# 
  2144  0894                     	;# 
  2145  0895                     	;# 
  2146  0895                     	;# 
  2147  0895                     	;# 
  2148  0896                     	;# 
  2149  0896                     	;# 
  2150  0896                     	;# 
  2151  089B                     	;# 
  2152  0911                     	;# 
  2153  0912                     	;# 
  2154  0913                     	;# 
  2155  0914                     	;# 
  2156  0915                     	;# 
  2157  0916                     	;# 
  2158  0918                     	;# 
  2159  0919                     	;# 
  2160  091A                     	;# 
  2161  091B                     	;# 
  2162  091C                     	;# 
  2163  091D                     	;# 
  2164  091E                     	;# 
  2165  091F                     	;# 
  2166  0E0F                     	;# 
  2167  0E10                     	;# 
  2168  0E11                     	;# 
  2169  0E12                     	;# 
  2170  0E13                     	;# 
  2171  0E14                     	;# 
  2172  0E15                     	;# 
  2173  0E16                     	;# 
  2174  0E17                     	;# 
  2175  0E18                     	;# 
  2176  0E19                     	;# 
  2177  0E1A                     	;# 
  2178  0E1B                     	;# 
  2179  0E1C                     	;# 
  2180  0E1D                     	;# 
  2181  0E1E                     	;# 
  2182  0E1F                     	;# 
  2183  0E20                     	;# 
  2184  0E21                     	;# 
  2185  0E22                     	;# 
  2186  0E24                     	;# 
  2187  0E25                     	;# 
  2188  0E28                     	;# 
  2189  0E29                     	;# 
  2190  0E2A                     	;# 
  2191  0E2B                     	;# 
  2192  0E2C                     	;# 
  2193  0E2D                     	;# 
  2194  0E2E                     	;# 
  2195  0E2F                     	;# 
  2196  0E90                     	;# 
  2197  0E91                     	;# 
  2198  0E92                     	;# 
  2199  0E94                     	;# 
  2200  0E95                     	;# 
  2201  0E9C                     	;# 
  2202  0E9D                     	;# 
  2203  0E9E                     	;# 
  2204  0E9F                     	;# 
  2205  0EA0                     	;# 
  2206  0EA1                     	;# 
  2207  0EA2                     	;# 
  2208  0EA3                     	;# 
  2209  0EA4                     	;# 
  2210  0EA5                     	;# 
  2211  0EA6                     	;# 
  2212  0EA7                     	;# 
  2213  0F0F                     	;# 
  2214  0F10                     	;# 
  2215  0F11                     	;# 
  2216  0F12                     	;# 
  2217  0F13                     	;# 
  2218  0F14                     	;# 
  2219  0F15                     	;# 
  2220  0F16                     	;# 
  2221  0F17                     	;# 
  2222  0F18                     	;# 
  2223  0F19                     	;# 
  2224  0F1A                     	;# 
  2225  0F1B                     	;# 
  2226  0F1C                     	;# 
  2227  0F1D                     	;# 
  2228  0F1E                     	;# 
  2229  0F1F                     	;# 
  2230  0F20                     	;# 
  2231  0F21                     	;# 
  2232  0F22                     	;# 
  2233  0F23                     	;# 
  2234  0F24                     	;# 
  2235  0F25                     	;# 
  2236  0F26                     	;# 
  2237  0F27                     	;# 
  2238  0F28                     	;# 
  2239  0F29                     	;# 
  2240  0F2A                     	;# 
  2241  0F2B                     	;# 
  2242  0F2C                     	;# 
  2243  0F2D                     	;# 
  2244  0F2E                     	;# 
  2245  0F2F                     	;# 
  2246  0F30                     	;# 
  2247  0F31                     	;# 
  2248  0F32                     	;# 
  2249  0F33                     	;# 
  2250  0F34                     	;# 
  2251  0F35                     	;# 
  2252  0F36                     	;# 
  2253  0F37                     	;# 
  2254  0FE4                     	;# 
  2255  0FE5                     	;# 
  2256  0FE6                     	;# 
  2257  0FE7                     	;# 
  2258  0FE8                     	;# 
  2259  0FE9                     	;# 
  2260  0FEA                     	;# 
  2261  0FEB                     	;# 
  2262  0FED                     	;# 
  2263  0FEE                     	;# 
  2264  0FEF                     	;# 
  2265  0000                     	;# 
  2266  0001                     	;# 
  2267  0002                     	;# 
  2268  0003                     	;# 
  2269  0004                     	;# 
  2270  0005                     	;# 
  2271  0006                     	;# 
  2272  0007                     	;# 
  2273  0008                     	;# 
  2274  0009                     	;# 
  2275  000A                     	;# 
  2276  000B                     	;# 
  2277  000C                     	;# 
  2278  000D                     	;# 
  2279  000E                     	;# 
  2280  0010                     	;# 
  2281  0011                     	;# 
  2282  0012                     	;# 
  2283  0013                     	;# 
  2284  0014                     	;# 
  2285  0015                     	;# 
  2286  0015                     	;# 
  2287  0016                     	;# 
  2288  0016                     	;# 
  2289  0017                     	;# 
  2290  0018                     	;# 
  2291  0019                     	;# 
  2292  0019                     	;# 
  2293  001A                     	;# 
  2294  001B                     	;# 
  2295  001C                     	;# 
  2296  001D                     	;# 
  2297  001E                     	;# 
  2298  001F                     	;# 
  2299  008C                     	;# 
  2300  008D                     	;# 
  2301  008E                     	;# 
  2302  0090                     	;# 
  2303  0091                     	;# 
  2304  0092                     	;# 
  2305  0093                     	;# 
  2306  0094                     	;# 
  2307  0097                     	;# 
  2308  009B                     	;# 
  2309  009B                     	;# 
  2310  009C                     	;# 
  2311  009D                     	;# 
  2312  009E                     	;# 
  2313  009F                     	;# 
  2314  010C                     	;# 
  2315  010D                     	;# 
  2316  010E                     	;# 
  2317  0111                     	;# 
  2318  0112                     	;# 
  2319  0113                     	;# 
  2320  0114                     	;# 
  2321  0115                     	;# 
  2322  0116                     	;# 
  2323  0117                     	;# 
  2324  0118                     	;# 
  2325  0119                     	;# 
  2326  018C                     	;# 
  2327  018D                     	;# 
  2328  018E                     	;# 
  2329  0197                     	;# 
  2330  0199                     	;# 
  2331  0199                     	;# 
  2332  0199                     	;# 
  2333  019A                     	;# 
  2334  019A                     	;# 
  2335  019A                     	;# 
  2336  019B                     	;# 
  2337  019B                     	;# 
  2338  019B                     	;# 
  2339  019B                     	;# 
  2340  019B                     	;# 
  2341  019C                     	;# 
  2342  019C                     	;# 
  2343  019C                     	;# 
  2344  019D                     	;# 
  2345  019D                     	;# 
  2346  019D                     	;# 
  2347  019E                     	;# 
  2348  019E                     	;# 
  2349  019E                     	;# 
  2350  019F                     	;# 
  2351  019F                     	;# 
  2352  019F                     	;# 
  2353  019F                     	;# 
  2354  019F                     	;# 
  2355  020C                     	;# 
  2356  020D                     	;# 
  2357  020E                     	;# 
  2358  0211                     	;# 
  2359  0211                     	;# 
  2360  0212                     	;# 
  2361  0212                     	;# 
  2362  0213                     	;# 
  2363  0213                     	;# 
  2364  0214                     	;# 
  2365  0214                     	;# 
  2366  0215                     	;# 
  2367  0215                     	;# 
  2368  0215                     	;# 
  2369  0215                     	;# 
  2370  0216                     	;# 
  2371  0216                     	;# 
  2372  0217                     	;# 
  2373  0217                     	;# 
  2374  0219                     	;# 
  2375  021A                     	;# 
  2376  021B                     	;# 
  2377  021C                     	;# 
  2378  021D                     	;# 
  2379  021D                     	;# 
  2380  021E                     	;# 
  2381  021F                     	;# 
  2382  028C                     	;# 
  2383  028D                     	;# 
  2384  028E                     	;# 
  2385  0291                     	;# 
  2386  0291                     	;# 
  2387  0292                     	;# 
  2388  0293                     	;# 
  2389  0294                     	;# 
  2390  0295                     	;# 
  2391  0295                     	;# 
  2392  0296                     	;# 
  2393  0297                     	;# 
  2394  0298                     	;# 
  2395  029F                     	;# 
  2396  030C                     	;# 
  2397  030D                     	;# 
  2398  030E                     	;# 
  2399  0311                     	;# 
  2400  0311                     	;# 
  2401  0312                     	;# 
  2402  0313                     	;# 
  2403  0314                     	;# 
  2404  0315                     	;# 
  2405  0315                     	;# 
  2406  0316                     	;# 
  2407  0317                     	;# 
  2408  0318                     	;# 
  2409  038C                     	;# 
  2410  038D                     	;# 
  2411  038E                     	;# 
  2412  0391                     	;# 
  2413  0392                     	;# 
  2414  0393                     	;# 
  2415  0394                     	;# 
  2416  0395                     	;# 
  2417  0396                     	;# 
  2418  0397                     	;# 
  2419  0398                     	;# 
  2420  0399                     	;# 
  2421  039A                     	;# 
  2422  039C                     	;# 
  2423  039D                     	;# 
  2424  039E                     	;# 
  2425  039F                     	;# 
  2426  0411                     	;# 
  2427  0411                     	;# 
  2428  0412                     	;# 
  2429  0413                     	;# 
  2430  0414                     	;# 
  2431  0415                     	;# 
  2432  0416                     	;# 
  2433  0417                     	;# 
  2434  0418                     	;# 
  2435  0418                     	;# 
  2436  0419                     	;# 
  2437  041A                     	;# 
  2438  041B                     	;# 
  2439  041C                     	;# 
  2440  041D                     	;# 
  2441  041E                     	;# 
  2442  041F                     	;# 
  2443  0498                     	;# 
  2444  0498                     	;# 
  2445  0499                     	;# 
  2446  049A                     	;# 
  2447  049B                     	;# 
  2448  049B                     	;# 
  2449  049C                     	;# 
  2450  049D                     	;# 
  2451  049E                     	;# 
  2452  049F                     	;# 
  2453  0617                     	;# 
  2454  0618                     	;# 
  2455  0619                     	;# 
  2456  0619                     	;# 
  2457  061A                     	;# 
  2458  061B                     	;# 
  2459  061C                     	;# 
  2460  061C                     	;# 
  2461  061F                     	;# 
  2462  0691                     	;# 
  2463  0692                     	;# 
  2464  0693                     	;# 
  2465  0694                     	;# 
  2466  0695                     	;# 
  2467  0696                     	;# 
  2468  0697                     	;# 
  2469  0698                     	;# 
  2470  0699                     	;# 
  2471  0711                     	;# 
  2472  0712                     	;# 
  2473  0713                     	;# 
  2474  0714                     	;# 
  2475  0715                     	;# 
  2476  0716                     	;# 
  2477  0717                     	;# 
  2478  0718                     	;# 
  2479  0719                     	;# 
  2480  0891                     	;# 
  2481  0891                     	;# 
  2482  0891                     	;# 
  2483  0891                     	;# 
  2484  0891                     	;# 
  2485  0891                     	;# 
  2486  0892                     	;# 
  2487  0892                     	;# 
  2488  0892                     	;# 
  2489  0893                     	;# 
  2490  0893                     	;# 
  2491  0893                     	;# 
  2492  0893                     	;# 
  2493  0893                     	;# 
  2494  0893                     	;# 
  2495  0894                     	;# 
  2496  0894                     	;# 
  2497  0894                     	;# 
  2498  0895                     	;# 
  2499  0895                     	;# 
  2500  0895                     	;# 
  2501  0896                     	;# 
  2502  0896                     	;# 
  2503  0896                     	;# 
  2504  089B                     	;# 
  2505  0911                     	;# 
  2506  0912                     	;# 
  2507  0913                     	;# 
  2508  0914                     	;# 
  2509  0915                     	;# 
  2510  0916                     	;# 
  2511  0918                     	;# 
  2512  0919                     	;# 
  2513  091A                     	;# 
  2514  091B                     	;# 
  2515  091C                     	;# 
  2516  091D                     	;# 
  2517  091E                     	;# 
  2518  091F                     	;# 
  2519  0E0F                     	;# 
  2520  0E10                     	;# 
  2521  0E11                     	;# 
  2522  0E12                     	;# 
  2523  0E13                     	;# 
  2524  0E14                     	;# 
  2525  0E15                     	;# 
  2526  0E16                     	;# 
  2527  0E17                     	;# 
  2528  0E18                     	;# 
  2529  0E19                     	;# 
  2530  0E1A                     	;# 
  2531  0E1B                     	;# 
  2532  0E1C                     	;# 
  2533  0E1D                     	;# 
  2534  0E1E                     	;# 
  2535  0E1F                     	;# 
  2536  0E20                     	;# 
  2537  0E21                     	;# 
  2538  0E22                     	;# 
  2539  0E24                     	;# 
  2540  0E25                     	;# 
  2541  0E28                     	;# 
  2542  0E29                     	;# 
  2543  0E2A                     	;# 
  2544  0E2B                     	;# 
  2545  0E2C                     	;# 
  2546  0E2D                     	;# 
  2547  0E2E                     	;# 
  2548  0E2F                     	;# 
  2549  0E90                     	;# 
  2550  0E91                     	;# 
  2551  0E92                     	;# 
  2552  0E94                     	;# 
  2553  0E95                     	;# 
  2554  0E9C                     	;# 
  2555  0E9D                     	;# 
  2556  0E9E                     	;# 
  2557  0E9F                     	;# 
  2558  0EA0                     	;# 
  2559  0EA1                     	;# 
  2560  0EA2                     	;# 
  2561  0EA3                     	;# 
  2562  0EA4                     	;# 
  2563  0EA5                     	;# 
  2564  0EA6                     	;# 
  2565  0EA7                     	;# 
  2566  0F0F                     	;# 
  2567  0F10                     	;# 
  2568  0F11                     	;# 
  2569  0F12                     	;# 
  2570  0F13                     	;# 
  2571  0F14                     	;# 
  2572  0F15                     	;# 
  2573  0F16                     	;# 
  2574  0F17                     	;# 
  2575  0F18                     	;# 
  2576  0F19                     	;# 
  2577  0F1A                     	;# 
  2578  0F1B                     	;# 
  2579  0F1C                     	;# 
  2580  0F1D                     	;# 
  2581  0F1E                     	;# 
  2582  0F1F                     	;# 
  2583  0F20                     	;# 
  2584  0F21                     	;# 
  2585  0F22                     	;# 
  2586  0F23                     	;# 
  2587  0F24                     	;# 
  2588  0F25                     	;# 
  2589  0F26                     	;# 
  2590  0F27                     	;# 
  2591  0F28                     	;# 
  2592  0F29                     	;# 
  2593  0F2A                     	;# 
  2594  0F2B                     	;# 
  2595  0F2C                     	;# 
  2596  0F2D                     	;# 
  2597  0F2E                     	;# 
  2598  0F2F                     	;# 
  2599  0F30                     	;# 
  2600  0F31                     	;# 
  2601  0F32                     	;# 
  2602  0F33                     	;# 
  2603  0F34                     	;# 
  2604  0F35                     	;# 
  2605  0F36                     	;# 
  2606  0F37                     	;# 
  2607  0FE4                     	;# 
  2608  0FE5                     	;# 
  2609  0FE6                     	;# 
  2610  0FE7                     	;# 
  2611  0FE8                     	;# 
  2612  0FE9                     	;# 
  2613  0FEA                     	;# 
  2614  0FEB                     	;# 
  2615  0FED                     	;# 
  2616  0FEE                     	;# 
  2617  0FEF                     	;# 
  2618  0000                     	;# 
  2619  0001                     	;# 
  2620  0002                     	;# 
  2621  0003                     	;# 
  2622  0004                     	;# 
  2623  0005                     	;# 
  2624  0006                     	;# 
  2625  0007                     	;# 
  2626  0008                     	;# 
  2627  0009                     	;# 
  2628  000A                     	;# 
  2629  000B                     	;# 
  2630  000C                     	;# 
  2631  000D                     	;# 
  2632  000E                     	;# 
  2633  0010                     	;# 
  2634  0011                     	;# 
  2635  0012                     	;# 
  2636  0013                     	;# 
  2637  0014                     	;# 
  2638  0015                     	;# 
  2639  0015                     	;# 
  2640  0016                     	;# 
  2641  0016                     	;# 
  2642  0017                     	;# 
  2643  0018                     	;# 
  2644  0019                     	;# 
  2645  0019                     	;# 
  2646  001A                     	;# 
  2647  001B                     	;# 
  2648  001C                     	;# 
  2649  001D                     	;# 
  2650  001E                     	;# 
  2651  001F                     	;# 
  2652  008C                     	;# 
  2653  008D                     	;# 
  2654  008E                     	;# 
  2655  0090                     	;# 
  2656  0091                     	;# 
  2657  0092                     	;# 
  2658  0093                     	;# 
  2659  0094                     	;# 
  2660  0097                     	;# 
  2661  009B                     	;# 
  2662  009B                     	;# 
  2663  009C                     	;# 
  2664  009D                     	;# 
  2665  009E                     	;# 
  2666  009F                     	;# 
  2667  010C                     	;# 
  2668  010D                     	;# 
  2669  010E                     	;# 
  2670  0111                     	;# 
  2671  0112                     	;# 
  2672  0113                     	;# 
  2673  0114                     	;# 
  2674  0115                     	;# 
  2675  0116                     	;# 
  2676  0117                     	;# 
  2677  0118                     	;# 
  2678  0119                     	;# 
  2679  018C                     	;# 
  2680  018D                     	;# 
  2681  018E                     	;# 
  2682  0197                     	;# 
  2683  0199                     	;# 
  2684  0199                     	;# 
  2685  0199                     	;# 
  2686  019A                     	;# 
  2687  019A                     	;# 
  2688  019A                     	;# 
  2689  019B                     	;# 
  2690  019B                     	;# 
  2691  019B                     	;# 
  2692  019B                     	;# 
  2693  019B                     	;# 
  2694  019C                     	;# 
  2695  019C                     	;# 
  2696  019C                     	;# 
  2697  019D                     	;# 
  2698  019D                     	;# 
  2699  019D                     	;# 
  2700  019E                     	;# 
  2701  019E                     	;# 
  2702  019E                     	;# 
  2703  019F                     	;# 
  2704  019F                     	;# 
  2705  019F                     	;# 
  2706  019F                     	;# 
  2707  019F                     	;# 
  2708  020C                     	;# 
  2709  020D                     	;# 
  2710  020E                     	;# 
  2711  0211                     	;# 
  2712  0211                     	;# 
  2713  0212                     	;# 
  2714  0212                     	;# 
  2715  0213                     	;# 
  2716  0213                     	;# 
  2717  0214                     	;# 
  2718  0214                     	;# 
  2719  0215                     	;# 
  2720  0215                     	;# 
  2721  0215                     	;# 
  2722  0215                     	;# 
  2723  0216                     	;# 
  2724  0216                     	;# 
  2725  0217                     	;# 
  2726  0217                     	;# 
  2727  0219                     	;# 
  2728  021A                     	;# 
  2729  021B                     	;# 
  2730  021C                     	;# 
  2731  021D                     	;# 
  2732  021D                     	;# 
  2733  021E                     	;# 
  2734  021F                     	;# 
  2735  028C                     	;# 
  2736  028D                     	;# 
  2737  028E                     	;# 
  2738  0291                     	;# 
  2739  0291                     	;# 
  2740  0292                     	;# 
  2741  0293                     	;# 
  2742  0294                     	;# 
  2743  0295                     	;# 
  2744  0295                     	;# 
  2745  0296                     	;# 
  2746  0297                     	;# 
  2747  0298                     	;# 
  2748  029F                     	;# 
  2749  030C                     	;# 
  2750  030D                     	;# 
  2751  030E                     	;# 
  2752  0311                     	;# 
  2753  0311                     	;# 
  2754  0312                     	;# 
  2755  0313                     	;# 
  2756  0314                     	;# 
  2757  0315                     	;# 
  2758  0315                     	;# 
  2759  0316                     	;# 
  2760  0317                     	;# 
  2761  0318                     	;# 
  2762  038C                     	;# 
  2763  038D                     	;# 
  2764  038E                     	;# 
  2765  0391                     	;# 
  2766  0392                     	;# 
  2767  0393                     	;# 
  2768  0394                     	;# 
  2769  0395                     	;# 
  2770  0396                     	;# 
  2771  0397                     	;# 
  2772  0398                     	;# 
  2773  0399                     	;# 
  2774  039A                     	;# 
  2775  039C                     	;# 
  2776  039D                     	;# 
  2777  039E                     	;# 
  2778  039F                     	;# 
  2779  0411                     	;# 
  2780  0411                     	;# 
  2781  0412                     	;# 
  2782  0413                     	;# 
  2783  0414                     	;# 
  2784  0415                     	;# 
  2785  0416                     	;# 
  2786  0417                     	;# 
  2787  0418                     	;# 
  2788  0418                     	;# 
  2789  0419                     	;# 
  2790  041A                     	;# 
  2791  041B                     	;# 
  2792  041C                     	;# 
  2793  041D                     	;# 
  2794  041E                     	;# 
  2795  041F                     	;# 
  2796  0498                     	;# 
  2797  0498                     	;# 
  2798  0499                     	;# 
  2799  049A                     	;# 
  2800  049B                     	;# 
  2801  049B                     	;# 
  2802  049C                     	;# 
  2803  049D                     	;# 
  2804  049E                     	;# 
  2805  049F                     	;# 
  2806  0617                     	;# 
  2807  0618                     	;# 
  2808  0619                     	;# 
  2809  0619                     	;# 
  2810  061A                     	;# 
  2811  061B                     	;# 
  2812  061C                     	;# 
  2813  061C                     	;# 
  2814  061F                     	;# 
  2815  0691                     	;# 
  2816  0692                     	;# 
  2817  0693                     	;# 
  2818  0694                     	;# 
  2819  0695                     	;# 
  2820  0696                     	;# 
  2821  0697                     	;# 
  2822  0698                     	;# 
  2823  0699                     	;# 
  2824  0711                     	;# 
  2825  0712                     	;# 
  2826  0713                     	;# 
  2827  0714                     	;# 
  2828  0715                     	;# 
  2829  0716                     	;# 
  2830  0717                     	;# 
  2831  0718                     	;# 
  2832  0719                     	;# 
  2833  0891                     	;# 
  2834  0891                     	;# 
  2835  0891                     	;# 
  2836  0891                     	;# 
  2837  0891                     	;# 
  2838  0891                     	;# 
  2839  0892                     	;# 
  2840  0892                     	;# 
  2841  0892                     	;# 
  2842  0893                     	;# 
  2843  0893                     	;# 
  2844  0893                     	;# 
  2845  0893                     	;# 
  2846  0893                     	;# 
  2847  0893                     	;# 
  2848  0894                     	;# 
  2849  0894                     	;# 
  2850  0894                     	;# 
  2851  0895                     	;# 
  2852  0895                     	;# 
  2853  0895                     	;# 
  2854  0896                     	;# 
  2855  0896                     	;# 
  2856  0896                     	;# 
  2857  089B                     	;# 
  2858  0911                     	;# 
  2859  0912                     	;# 
  2860  0913                     	;# 
  2861  0914                     	;# 
  2862  0915                     	;# 
  2863  0916                     	;# 
  2864  0918                     	;# 
  2865  0919                     	;# 
  2866  091A                     	;# 
  2867  091B                     	;# 
  2868  091C                     	;# 
  2869  091D                     	;# 
  2870  091E                     	;# 
  2871  091F                     	;# 
  2872  0E0F                     	;# 
  2873  0E10                     	;# 
  2874  0E11                     	;# 
  2875  0E12                     	;# 
  2876  0E13                     	;# 
  2877  0E14                     	;# 
  2878  0E15                     	;# 
  2879  0E16                     	;# 
  2880  0E17                     	;# 
  2881  0E18                     	;# 
  2882  0E19                     	;# 
  2883  0E1A                     	;# 
  2884  0E1B                     	;# 
  2885  0E1C                     	;# 
  2886  0E1D                     	;# 
  2887  0E1E                     	;# 
  2888  0E1F                     	;# 
  2889  0E20                     	;# 
  2890  0E21                     	;# 
  2891  0E22                     	;# 
  2892  0E24                     	;# 
  2893  0E25                     	;# 
  2894  0E28                     	;# 
  2895  0E29                     	;# 
  2896  0E2A                     	;# 
  2897  0E2B                     	;# 
  2898  0E2C                     	;# 
  2899  0E2D                     	;# 
  2900  0E2E                     	;# 
  2901  0E2F                     	;# 
  2902  0E90                     	;# 
  2903  0E91                     	;# 
  2904  0E92                     	;# 
  2905  0E94                     	;# 
  2906  0E95                     	;# 
  2907  0E9C                     	;# 
  2908  0E9D                     	;# 
  2909  0E9E                     	;# 
  2910  0E9F                     	;# 
  2911  0EA0                     	;# 
  2912  0EA1                     	;# 
  2913  0EA2                     	;# 
  2914  0EA3                     	;# 
  2915  0EA4                     	;# 
  2916  0EA5                     	;# 
  2917  0EA6                     	;# 
  2918  0EA7                     	;# 
  2919  0F0F                     	;# 
  2920  0F10                     	;# 
  2921  0F11                     	;# 
  2922  0F12                     	;# 
  2923  0F13                     	;# 
  2924  0F14                     	;# 
  2925  0F15                     	;# 
  2926  0F16                     	;# 
  2927  0F17                     	;# 
  2928  0F18                     	;# 
  2929  0F19                     	;# 
  2930  0F1A                     	;# 
  2931  0F1B                     	;# 
  2932  0F1C                     	;# 
  2933  0F1D                     	;# 
  2934  0F1E                     	;# 
  2935  0F1F                     	;# 
  2936  0F20                     	;# 
  2937  0F21                     	;# 
  2938  0F22                     	;# 
  2939  0F23                     	;# 
  2940  0F24                     	;# 
  2941  0F25                     	;# 
  2942  0F26                     	;# 
  2943  0F27                     	;# 
  2944  0F28                     	;# 
  2945  0F29                     	;# 
  2946  0F2A                     	;# 
  2947  0F2B                     	;# 
  2948  0F2C                     	;# 
  2949  0F2D                     	;# 
  2950  0F2E                     	;# 
  2951  0F2F                     	;# 
  2952  0F30                     	;# 
  2953  0F31                     	;# 
  2954  0F32                     	;# 
  2955  0F33                     	;# 
  2956  0F34                     	;# 
  2957  0F35                     	;# 
  2958  0F36                     	;# 
  2959  0F37                     	;# 
  2960  0FE4                     	;# 
  2961  0FE5                     	;# 
  2962  0FE6                     	;# 
  2963  0FE7                     	;# 
  2964  0FE8                     	;# 
  2965  0FE9                     	;# 
  2966  0FEA                     	;# 
  2967  0FEB                     	;# 
  2968  0FED                     	;# 
  2969  0FEE                     	;# 
  2970  0FEF                     	;# 
  2971                           
  2972 ;; Function _EUSART_DefaultFramingErrorHandler is unused but had its address taken
  2973  0000                     
  2974 ;; Function _EUSART_DefaultOverrunErrorHandler is unused but had its address taken
  2975  0000                     
  2976 ;; Function _EUSART_DefaultErrorHandler is unused but had its address taken
  2977  0000                     
  2978                           	psect	idataCOMMON
  2979  0C56                     __pidataCOMMON:
  2980                           
  2981                           ;initializer for _receiveDataFIFO
  2982  0C56  340F               	retlw	15
  2983                           
  2984                           	psect	idataBANK0
  2985  0C55                     __pidataBANK0:
  2986                           
  2987                           ;initializer for _receiveData17
  2988  0C55  340F               	retlw	15
  2989                           
  2990                           	psect	stringtext1
  2991  1000                     __pstringtext1:
  2992  1000                     _i2c1_fsmStateTable:
  2993  1000  348F               	retlw	low _I2C1_DO_IDLE
  2994  1001  340C               	retlw	high _I2C1_DO_IDLE
  2995  1002  34EB               	retlw	low _I2C1_DO_SEND_ADR_READ
  2996  1003  340C               	retlw	high _I2C1_DO_SEND_ADR_READ
  2997  1004  34DB               	retlw	low _I2C1_DO_SEND_ADR_WRITE
  2998  1005  340C               	retlw	high _I2C1_DO_SEND_ADR_WRITE
  2999  1006  349E               	retlw	low _I2C1_DO_TX
  3000  1007  3405               	retlw	high _I2C1_DO_TX
  3001  1008  3491               	retlw	low _I2C1_DO_RX
  3002  1009  3406               	retlw	high _I2C1_DO_RX
  3003  100A  34CD               	retlw	low _I2C1_DO_RCEN
  3004  100B  340C               	retlw	high _I2C1_DO_RCEN
  3005  100C  34D1               	retlw	low _I2C1_DO_TX_EMPTY
  3006  100D  340F               	retlw	high _I2C1_DO_TX_EMPTY
  3007  100E  3494               	retlw	low _I2C1_DO_SEND_RESTART_READ
  3008  100F  340C               	retlw	high _I2C1_DO_SEND_RESTART_READ
  3009  1010  3499               	retlw	low _I2C1_DO_SEND_RESTART_WRITE
  3010  1011  340C               	retlw	high _I2C1_DO_SEND_RESTART_WRITE
  3011  1012  349E               	retlw	low _I2C1_DO_SEND_RESTART
  3012  1013  340C               	retlw	high _I2C1_DO_SEND_RESTART
  3013  1014  34A3               	retlw	low _I2C1_DO_SEND_STOP
  3014  1015  340C               	retlw	high _I2C1_DO_SEND_STOP
  3015  1016  34A8               	retlw	low _I2C1_DO_RX_ACK
  3016  1017  340C               	retlw	high _I2C1_DO_RX_ACK
  3017  1018  34AD               	retlw	low _I2C1_DO_RX_NACK_STOP
  3018  1019  340C               	retlw	high _I2C1_DO_RX_NACK_STOP
  3019  101A  34B2               	retlw	low _I2C1_DO_RX_NACK_RESTART
  3020  101B  340C               	retlw	high _I2C1_DO_RX_NACK_RESTART
  3021  101C  34B7               	retlw	low _I2C1_DO_RESET
  3022  101D  340C               	retlw	high _I2C1_DO_RESET
  3023  101E  3477               	retlw	low _I2C1_DO_ADDRESS_NACK
  3024  101F  340F               	retlw	high _I2C1_DO_ADDRESS_NACK
  3025  1020                     __end_of_i2c1_fsmStateTable:
  3026                           
  3027                           	psect	nvBANK1
  3028  00E9                     __pnvBANK1:
  3029  00E9                     _EUSART_ErrorHandler:
  3030  00E9                     	ds	2
  3031  00EB                     _EUSART_OverrunErrorHandler:
  3032  00EB                     	ds	2
  3033  00ED                     _EUSART_FramingErrorHandler:
  3034  00ED                     	ds	2
  3035  000B                     _INTCONbits	set	11
  3036  0011                     _PIR1bits	set	17
  3037  0091                     _PIE1bits	set	145
  3038  0097                     _WDTCON	set	151
  3039  008E                     _TRISC	set	142
  3040  008D                     _TRISB	set	141
  3041  008C                     _TRISA	set	140
  3042  010E                     _LATC	set	270
  3043  010D                     _LATB	set	269
  3044  010C                     _LATA	set	268
  3045  019A                     _TX1REG	set	410
  3046  0199                     _RC1REG	set	409
  3047  019D                     _RC1STAbits	set	413
  3048  019E                     _TX1STAbits	set	414
  3049  019C                     _SP1BRGH	set	412
  3050  019B                     _SP1BRGL	set	411
  3051  019E                     _TX1STA	set	414
  3052  019D                     _RC1STA	set	413
  3053  019F                     _BAUD1CON	set	415
  3054  018C                     _ANSELA	set	396
  3055  018D                     _ANSELB	set	397
  3056  018E                     _ANSELC	set	398
  3057  0214                     _SSP1STATbits	set	532
  3058  0216                     _SSP1CON2bits	set	534
  3059  0211                     _SSP1BUF	set	529
  3060  0215                     _SSP1CON1bits	set	533
  3061  0212                     _SSP1ADD	set	530
  3062  0216                     _SSP1CON2	set	534
  3063  0215                     _SSP1CON1	set	533
  3064  0214                     _SSP1STAT	set	532
  3065  020E                     _WPUC	set	526
  3066  020C                     _WPUA	set	524
  3067  020D                     _WPUB	set	525
  3068  028E                     _ODCONC	set	654
  3069  028D                     _ODCONB	set	653
  3070  028C                     _ODCONA	set	652
  3071  030E                     _SLRCONC	set	782
  3072  030D                     _SLRCONB	set	781
  3073  030C                     _SLRCONA	set	780
  3074  038E                     _INLVLC	set	910
  3075  038D                     _INLVLB	set	909
  3076  038C                     _INLVLA	set	908
  3077  0916                     _PMD5	set	2326
  3078  0915                     _PMD4	set	2325
  3079  0914                     _PMD3	set	2324
  3080  0913                     _PMD2	set	2323
  3081  0912                     _PMD1	set	2322
  3082  0911                     _PMD0	set	2321
  3083  091E                     _OSCTUNE	set	2334
  3084  091F                     _OSCFRQ	set	2335
  3085  091D                     _OSCEN	set	2333
  3086  091B                     _OSCCON3	set	2331
  3087  0919                     _OSCCON1	set	2329
  3088  0E21                     _SSP1DATPPS	set	3617
  3089  0E20                     _SSP1CLKPPS	set	3616
  3090  0E24                     _RXPPS	set	3620
  3091  0EA2                     _RC2PPS	set	3746
  3092  0EA1                     _RC1PPS	set	3745
  3093  0E9F                     _RB7PPS	set	3743
  3094                           
  3095                           	psect	stringtext2
  3096  1020                     __pstringtext2:
  3097  1020                     STR_1:
  3098  1020  3420               	retlw	32	;' '
  3099  1021  3458               	retlw	88	;'X'
  3100  1022  343A               	retlw	58	;':'
  3101  1023  3420               	retlw	32	;' '
  3102  1024  3425               	retlw	37	;'%'
  3103  1025  3464               	retlw	100	;'d'
  3104  1026  340A               	retlw	10
  3105  1027  340D               	retlw	13
  3106  1028  3400               	retlw	0
  3107                           
  3108                           	psect	stringtext3
  3109  1029                     __pstringtext3:
  3110  1029                     STR_2:
  3111  1029  3420               	retlw	32	;' '
  3112  102A  3459               	retlw	89	;'Y'
  3113  102B  343A               	retlw	58	;':'
  3114  102C  3420               	retlw	32	;' '
  3115  102D  3425               	retlw	37	;'%'
  3116  102E  3464               	retlw	100	;'d'
  3117  102F  340A               	retlw	10
  3118  1030  340D               	retlw	13
  3119  1031  3400               	retlw	0
  3120                           
  3121                           	psect	stringtext4
  3122  1032                     __pstringtext4:
  3123  1032                     STR_3:
  3124  1032  3420               	retlw	32	;' '
  3125  1033  345A               	retlw	90	;'Z'
  3126  1034  343A               	retlw	58	;':'
  3127  1035  3420               	retlw	32	;' '
  3128  1036  3425               	retlw	37	;'%'
  3129  1037  3464               	retlw	100	;'d'
  3130  1038  340A               	retlw	10
  3131  1039  340D               	retlw	13
  3132  103A  3400               	retlw	0
  3133                           
  3134                           	psect	stringtext5
  3135  0000                     __pstringtext5:
  3136                           
  3137                           	psect	cinit
  3138  002A                     start_initialization:	
  3139                           ; #config settings
  3140                           
  3141  002A                     __initialization:
  3142                           
  3143                           ; Initialize objects allocated to COMMON
  3144  002A  318C  2456  3180   	fcall	__pidataCOMMON	;fetch initializer
  3145  002D  00FD               	movwf	__pdataCOMMON& (0+127)
  3146                           
  3147                           ; Initialize objects allocated to BANK0
  3148  002E  318C  2455  3180   	fcall	__pidataBANK0	;fetch initializer
  3149  0031  00EC               	movwf	__pdataBANK0& (0+127)
  3150                           
  3151                           ; Clear objects allocated to BANK0
  3152  0032  01EA               	clrf	__pbssBANK0& (0+127)
  3153  0033  01EB               	clrf	(__pbssBANK0+1)& (0+127)
  3154                           
  3155                           ; Clear objects allocated to BANK1
  3156  0034  30A0               	movlw	low __pbssBANK1
  3157  0035  0084               	movwf	4
  3158  0036  3000               	movlw	high __pbssBANK1
  3159  0037  0085               	movwf	5
  3160  0038  302C               	movlw	44
  3161  0039  318C  24C7  3180   	fcall	clear_ram0
  3162                           
  3163                           ; Clear objects allocated to BANK2
  3164  003C  3020               	movlw	low __pbssBANK2
  3165  003D  0084               	movwf	4
  3166  003E  3001               	movlw	high __pbssBANK2
  3167  003F  0085               	movwf	5
  3168  0040  3020               	movlw	32
  3169  0041  318C  24C7  3180   	fcall	clear_ram0
  3170  0044                     end_of_initialization:	
  3171                           ;End of C runtime variable initialization code
  3172                           
  3173  0044                     __end_of__initialization:
  3174  0044  107E               	bcf	int$flags,0	;clear compiler interrupt flag (level 1)
  3175  0045  0020               	movlb	0
  3176  0046  3187  2F52         	ljmp	_main	;jump to C main() function
  3177                           
  3178                           	psect	dataCOMMON
  3179  007D                     __pdataCOMMON:
  3180  007D                     _receiveDataFIFO:
  3181  007D                     	ds	1
  3182                           
  3183                           	psect	bssBANK0
  3184  006A                     __pbssBANK0:
  3185  006A                     _flags:
  3186  006A                     	ds	2
  3187                           
  3188                           	psect	dataBANK0
  3189  006C                     __pdataBANK0:
  3190  006C                     _receiveData17:
  3191  006C                     	ds	1
  3192                           
  3193                           	psect	bssBANK1
  3194  00A0                     __pbssBANK1:
  3195  00A0                     _I2C1_Status:
  3196  00A0                     	ds	29
  3197  00BD                     _nout:
  3198  00BD                     	ds	2
  3199  00BF                     _width:
  3200  00BF                     	ds	2
  3201  00C1                     _prec:
  3202  00C1                     	ds	2
  3203  00C3                     _MSSP1_InterruptHandler:
  3204  00C3                     	ds	2
  3205  00C5                     _eusartRxLastError:
  3206  00C5                     	ds	1
  3207  00C6                     _receiveDatazh:
  3208  00C6                     	ds	1
  3209  00C7                     _receiveDatazl:
  3210  00C7                     	ds	1
  3211  00C8                     _receiveDatayh:
  3212  00C8                     	ds	1
  3213  00C9                     _receiveDatayl:
  3214  00C9                     	ds	1
  3215  00CA                     _receiveDataxh:
  3216  00CA                     	ds	1
  3217  00CB                     _receiveDataxl:
  3218  00CB                     	ds	1
  3219                           
  3220                           	psect	bssBANK2
  3221  0120                     __pbssBANK2:
  3222  0120                     _dbuf:
  3223  0120                     	ds	32
  3224                           
  3225                           	psect	clrtext
  3226  0CC7                     clear_ram0:	
  3227                           ;	Called with FSR0 containing the base address, and
  3228                           ;	WREG with the size to clear
  3229                           
  3230  0CC7  0064               	clrwdt	;clear the watchdog before getting into this loop
  3231  0CC8                     clrloop0:
  3232  0CC8  0180               	clrf	0	;clear RAM location pointed to by FSR
  3233  0CC9  3101               	addfsr 0,1
  3234  0CCA  0B89               	decfsz	9,f	;Have we reached the end of clearing yet?
  3235  0CCB  2CC8               	goto	clrloop0	;have we reached the end yet?
  3236  0CCC  3400               	retlw	0	;all done for this memory range, return
  3237                           
  3238                           	psect	cstackBANK1
  3239  00CC                     __pcstackBANK1:
  3240  00CC                     vfpfcnvrt@ll:
  3241                           
  3242                           ; 8 bytes @ 0x0
  3243  00CC                     	ds	8
  3244  00D4                     vfpfcnvrt@fp:
  3245                           
  3246                           ; 1 bytes @ 0x8
  3247  00D4                     	ds	1
  3248  00D5                     ?_vfprintf:
  3249  00D5                     vfprintf@fmt:	
  3250                           ; 2 bytes @ 0x9
  3251                           
  3252                           
  3253                           ; 2 bytes @ 0x9
  3254  00D5                     	ds	2
  3255  00D7                     vfprintf@ap:
  3256                           
  3257                           ; 1 bytes @ 0xB
  3258  00D7                     	ds	1
  3259  00D8                     ?_printf:
  3260  00D8                     printf@fmt:	
  3261                           ; 2 bytes @ 0xC
  3262                           
  3263                           
  3264                           ; 2 bytes @ 0xC
  3265  00D8                     	ds	4
  3266  00DC                     ??_I2CSIMPLE_example:
  3267                           
  3268                           ; 1 bytes @ 0x10
  3269  00DC                     	ds	5
  3270  00E1                     I2CSIMPLE_example@total_x:
  3271                           
  3272                           ; 2 bytes @ 0x15
  3273  00E1                     	ds	2
  3274  00E3                     I2CSIMPLE_example@total_y:
  3275                           
  3276                           ; 2 bytes @ 0x17
  3277  00E3                     	ds	2
  3278  00E5                     I2CSIMPLE_example@total_z:
  3279                           
  3280                           ; 2 bytes @ 0x19
  3281  00E5                     	ds	2
  3282  00E7                     ??_main:
  3283                           
  3284                           ; 1 bytes @ 0x1B
  3285  00E7                     	ds	2
  3286                           
  3287                           	psect	cstackCOMMON
  3288  0070                     __pcstackCOMMON:
  3289  0070                     ?_I2C1_Open:
  3290  0070                     ?_I2C1_MasterWrite:	
  3291                           ; 1 bytes @ 0x0
  3292                           
  3293  0070                     ?_I2C1_Close:	
  3294                           ; 1 bytes @ 0x0
  3295                           
  3296  0070                     ?_PMD_Initialize:	
  3297                           ; 1 bytes @ 0x0
  3298                           
  3299  0070                     ?_I2C1_Initialize:	
  3300                           ; 1 bytes @ 0x0
  3301                           
  3302  0070                     ?_OSCILLATOR_Initialize:	
  3303                           ; 1 bytes @ 0x0
  3304                           
  3305  0070                     ?_WDT_Initialize:	
  3306                           ; 1 bytes @ 0x0
  3307                           
  3308  0070                     ?_EUSART_Initialize:	
  3309                           ; 1 bytes @ 0x0
  3310                           
  3311  0070                     ?_I2C1_DO_IDLE:	
  3312                           ; 1 bytes @ 0x0
  3313                           
  3314  0070                     ??_I2C1_DO_IDLE:	
  3315                           ; 1 bytes @ 0x0
  3316                           
  3317  0070                     ?_I2C1_DO_SEND_ADR_READ:	
  3318                           ; 1 bytes @ 0x0
  3319                           
  3320  0070                     ??_I2C1_DO_SEND_ADR_READ:	
  3321                           ; 1 bytes @ 0x0
  3322                           
  3323  0070                     ?_I2C1_DO_SEND_ADR_WRITE:	
  3324                           ; 1 bytes @ 0x0
  3325                           
  3326  0070                     ?_I2C1_DO_TX:	
  3327                           ; 1 bytes @ 0x0
  3328                           
  3329  0070                     ?_I2C1_DO_RX:	
  3330                           ; 1 bytes @ 0x0
  3331                           
  3332  0070                     ?_I2C1_DO_RCEN:	
  3333                           ; 1 bytes @ 0x0
  3334                           
  3335  0070                     ??_I2C1_DO_RCEN:	
  3336                           ; 1 bytes @ 0x0
  3337                           
  3338  0070                     ?_I2C1_DO_TX_EMPTY:	
  3339                           ; 1 bytes @ 0x0
  3340                           
  3341  0070                     ?_I2C1_DO_SEND_RESTART_READ:	
  3342                           ; 1 bytes @ 0x0
  3343                           
  3344  0070                     ??_I2C1_DO_SEND_RESTART_READ:	
  3345                           ; 1 bytes @ 0x0
  3346                           
  3347  0070                     ?_I2C1_DO_SEND_RESTART_WRITE:	
  3348                           ; 1 bytes @ 0x0
  3349                           
  3350  0070                     ??_I2C1_DO_SEND_RESTART_WRITE:	
  3351                           ; 1 bytes @ 0x0
  3352                           
  3353  0070                     ?_I2C1_DO_SEND_RESTART:	
  3354                           ; 1 bytes @ 0x0
  3355                           
  3356  0070                     ??_I2C1_DO_SEND_RESTART:	
  3357                           ; 1 bytes @ 0x0
  3358                           
  3359  0070                     ?_I2C1_DO_SEND_STOP:	
  3360                           ; 1 bytes @ 0x0
  3361                           
  3362  0070                     ??_I2C1_DO_SEND_STOP:	
  3363                           ; 1 bytes @ 0x0
  3364                           
  3365  0070                     ?_I2C1_DO_RX_ACK:	
  3366                           ; 1 bytes @ 0x0
  3367                           
  3368  0070                     ??_I2C1_DO_RX_ACK:	
  3369                           ; 1 bytes @ 0x0
  3370                           
  3371  0070                     ?_I2C1_DO_RX_NACK_STOP:	
  3372                           ; 1 bytes @ 0x0
  3373                           
  3374  0070                     ??_I2C1_DO_RX_NACK_STOP:	
  3375                           ; 1 bytes @ 0x0
  3376                           
  3377  0070                     ?_I2C1_DO_RX_NACK_RESTART:	
  3378                           ; 1 bytes @ 0x0
  3379                           
  3380  0070                     ??_I2C1_DO_RX_NACK_RESTART:	
  3381                           ; 1 bytes @ 0x0
  3382                           
  3383  0070                     ?_I2C1_DO_RESET:	
  3384                           ; 1 bytes @ 0x0
  3385                           
  3386  0070                     ??_I2C1_DO_RESET:	
  3387                           ; 1 bytes @ 0x0
  3388                           
  3389  0070                     ?_I2C1_DO_ADDRESS_NACK:	
  3390                           ; 1 bytes @ 0x0
  3391                           
  3392  0070                     ?_I2C1_MasterIsr:	
  3393                           ; 1 bytes @ 0x0
  3394                           
  3395  0070                     ?_I2C1_MasterClearIrq:	
  3396                           ; 1 bytes @ 0x0
  3397                           
  3398  0070                     ?_I2C1_MasterOpen:	
  3399                           ; 1 bytes @ 0x0
  3400                           
  3401  0070                     ?_I2C1_MasterEnableIrq:	
  3402                           ; 1 bytes @ 0x0
  3403                           
  3404  0070                     ?_I2C1_MasterDisableIrq:	
  3405                           ; 1 bytes @ 0x0
  3406                           
  3407  0070                     ?_I2C1_MasterClose:	
  3408                           ; 1 bytes @ 0x0
  3409                           
  3410  0070                     ?_I2C1_MasterStart:	
  3411                           ; 1 bytes @ 0x0
  3412                           
  3413  0070                     ?_I2C1_MasterFsm:	
  3414                           ; 1 bytes @ 0x0
  3415                           
  3416  0070                     ?_I2C1_MasterIsNack:	
  3417                           ; 1 bytes @ 0x0
  3418                           
  3419  0070                     ??_I2C1_MasterIsNack:	
  3420                           ; 1 bytes @ 0x0
  3421                           
  3422  0070                     ?_I2C1_MasterSendTxData:	
  3423                           ; 1 bytes @ 0x0
  3424                           
  3425  0070                     ??_I2C1_MasterSendTxData:	
  3426                           ; 1 bytes @ 0x0
  3427                           
  3428  0070                     ?_I2C1_MasterGetRxData:	
  3429                           ; 1 bytes @ 0x0
  3430                           
  3431  0070                     ??_I2C1_MasterGetRxData:	
  3432                           ; 1 bytes @ 0x0
  3433                           
  3434  0070                     ?_I2C1_MasterSendAck:	
  3435                           ; 1 bytes @ 0x0
  3436                           
  3437  0070                     ??_I2C1_MasterSendAck:	
  3438                           ; 1 bytes @ 0x0
  3439                           
  3440  0070                     ?_I2C1_MasterStartRx:	
  3441                           ; 1 bytes @ 0x0
  3442                           
  3443  0070                     ??_I2C1_MasterStartRx:	
  3444                           ; 1 bytes @ 0x0
  3445                           
  3446  0070                     ?_I2C1_MasterSetIrq:	
  3447                           ; 1 bytes @ 0x0
  3448                           
  3449  0070                     ??_I2C1_MasterSetIrq:	
  3450                           ; 1 bytes @ 0x0
  3451                           
  3452  0070                     ?_I2C1_MasterEnableRestart:	
  3453                           ; 1 bytes @ 0x0
  3454                           
  3455  0070                     ??_I2C1_MasterEnableRestart:	
  3456                           ; 1 bytes @ 0x0
  3457                           
  3458  0070                     ?_I2C1_MasterStop:	
  3459                           ; 1 bytes @ 0x0
  3460                           
  3461  0070                     ??_I2C1_MasterStop:	
  3462                           ; 1 bytes @ 0x0
  3463                           
  3464  0070                     ?_I2C1_MasterSendNack:	
  3465                           ; 1 bytes @ 0x0
  3466                           
  3467  0070                     ??_I2C1_MasterSendNack:	
  3468                           ; 1 bytes @ 0x0
  3469                           
  3470  0070                     ?_I2CSIMPLE_example:	
  3471                           ; 1 bytes @ 0x0
  3472                           
  3473  0070                     ?_PIN_MANAGER_Initialize:	
  3474                           ; 1 bytes @ 0x0
  3475                           
  3476  0070                     ?_SYSTEM_Initialize:	
  3477                           ; 1 bytes @ 0x0
  3478                           
  3479  0070                     ?_EUSART_Write:	
  3480                           ; 1 bytes @ 0x0
  3481                           
  3482  0070                     ?_putch:	
  3483                           ; 1 bytes @ 0x0
  3484                           
  3485  0070                     ?_I2C1_MasterOperation:	
  3486                           ; 1 bytes @ 0x0
  3487                           
  3488  0070                     ?_INTERRUPT_InterruptManager:	
  3489                           ; 1 bytes @ 0x0
  3490                           
  3491  0070                     ?_main:	
  3492                           ; 1 bytes @ 0x0
  3493                           
  3494  0070                     ?i1_I2C1_SetBuffer:	
  3495                           ; 1 bytes @ 0x0
  3496                           
  3497  0070                     ?i1_I2C1_SetCallback:	
  3498                           ; 1 bytes @ 0x0
  3499                           
  3500  0070                     ?i1_I2C1_MasterClearIrq:	
  3501                           ; 1 bytes @ 0x0
  3502                           
  3503  0070                     ??i1_I2C1_MasterClearIrq:	
  3504                           ; 1 bytes @ 0x0
  3505                           
  3506  0070                     I2C1_MasterSendTxData@data:	
  3507                           ; 1 bytes @ 0x0
  3508                           
  3509  0070                     i1I2C1_SetBuffer@bufferSize:	
  3510                           ; 1 bytes @ 0x0
  3511                           
  3512  0070                     i1I2C1_SetCallback@cb:	
  3513                           ; 2 bytes @ 0x0
  3514                           
  3515                           
  3516                           ; 2 bytes @ 0x0
  3517  0070                     	ds	1
  3518  0071                     ??_I2C1_DO_SEND_ADR_WRITE:
  3519                           
  3520                           ; 1 bytes @ 0x1
  3521  0071                     	ds	1
  3522  0072                     ??i1_I2C1_SetBuffer:
  3523  0072                     i1I2C1_SetCallback@ptr:	
  3524                           ; 1 bytes @ 0x2
  3525                           
  3526                           
  3527                           ; 1 bytes @ 0x2
  3528  0072                     	ds	1
  3529  0073                     ??i1_I2C1_SetCallback:
  3530  0073                     i1I2C1_SetBuffer@buffer:	
  3531                           ; 1 bytes @ 0x3
  3532                           
  3533                           
  3534                           ; 1 bytes @ 0x3
  3535  0073                     	ds	1
  3536  0074                     i1I2C1_SetCallback@idx:
  3537                           
  3538                           ; 1 bytes @ 0x4
  3539  0074                     	ds	1
  3540  0075                     ?i1_I2C1_SetDataCompleteCallback:
  3541  0075                     i1I2C1_SetDataCompleteCallback@cb:	
  3542                           ; 1 bytes @ 0x5
  3543                           
  3544                           
  3545                           ; 2 bytes @ 0x5
  3546  0075                     	ds	2
  3547  0077                     i1I2C1_SetDataCompleteCallback@ptr:
  3548                           
  3549                           ; 1 bytes @ 0x7
  3550  0077                     	ds	1
  3551  0078                     ??i1_I2C1_SetDataCompleteCallback:
  3552                           
  3553                           ; 1 bytes @ 0x8
  3554  0078                     	ds	1
  3555  0079                     ?_rd1RegCompleteHandler:
  3556  0079                     ?_rd2RegCompleteHandler:	
  3557                           ; 1 bytes @ 0x9
  3558                           
  3559  0079                     ?_wr1RegCompleteHandler:	
  3560                           ; 1 bytes @ 0x9
  3561                           
  3562  0079                     ?_wr2RegCompleteHandler:	
  3563                           ; 1 bytes @ 0x9
  3564                           
  3565  0079                     ?_rdBlkRegCompleteHandler:	
  3566                           ; 1 bytes @ 0x9
  3567                           
  3568  0079                     ?_I2C1_CallbackReturnStop:	
  3569                           ; 1 bytes @ 0x9
  3570                           
  3571  0079                     ?_I2C1_CallbackReturnReset:	
  3572                           ; 1 bytes @ 0x9
  3573                           
  3574  0079                     ?_wr1RegCompleteHandler@strlen$F1702:	
  3575                           ; 1 bytes @ 0x9
  3576                           
  3577  0079                     ?_rd1RegCompleteHandler@strlen$F1710:	
  3578                           ; 1 bytes @ 0x9
  3579                           
  3580  0079                     ?_rd2RegCompleteHandler@strlen$F1715:	
  3581                           ; 1 bytes @ 0x9
  3582                           
  3583  0079                     ?_wr2RegCompleteHandler@strlen$F1721:	
  3584                           ; 1 bytes @ 0x9
  3585                           
  3586  0079                     ?_rdBlkRegCompleteHandler@strlen$F1727:	
  3587                           ; 1 bytes @ 0x9
  3588                           
  3589  0079                     wr1RegCompleteHandler@p:	
  3590                           ; 1 bytes @ 0x9
  3591                           
  3592  0079                     rd1RegCompleteHandler@p:	
  3593                           ; 1 bytes @ 0x9
  3594                           
  3595  0079                     rd2RegCompleteHandler@p:	
  3596                           ; 1 bytes @ 0x9
  3597                           
  3598  0079                     wr2RegCompleteHandler@p:	
  3599                           ; 1 bytes @ 0x9
  3600                           
  3601  0079                     rdBlkRegCompleteHandler@p:	
  3602                           ; 1 bytes @ 0x9
  3603                           
  3604  0079                     rd1RegCompleteHandler@i2c1_master_example$F146@ptr:	
  3605                           ; 1 bytes @ 0x9
  3606                           
  3607  0079                     rd2RegCompleteHandler@i2c1_master_example$F157@ptr:	
  3608                           ; 1 bytes @ 0x9
  3609                           
  3610  0079                     wr1RegCompleteHandler@i2c1_master_example$F163@ptr:	
  3611                           ; 1 bytes @ 0x9
  3612                           
  3613  0079                     wr2RegCompleteHandler@i2c1_master_example$F169@ptr:	
  3614                           ; 1 bytes @ 0x9
  3615                           
  3616  0079                     rdBlkRegCompleteHandler@i2c1_master_example$F180@ptr:	
  3617                           ; 1 bytes @ 0x9
  3618                           
  3619  0079                     I2C1_CallbackReturnStop@funPtr:	
  3620                           ; 1 bytes @ 0x9
  3621                           
  3622  0079                     I2C1_CallbackReturnReset@funPtr:	
  3623                           ; 1 bytes @ 0x9
  3624                           
  3625                           
  3626                           ; 1 bytes @ 0x9
  3627  0079                     	ds	1
  3628  007A                     ??_rd1RegCompleteHandler:
  3629  007A                     ??_rd2RegCompleteHandler:	
  3630                           ; 1 bytes @ 0xA
  3631                           
  3632  007A                     ??_wr1RegCompleteHandler:	
  3633                           ; 1 bytes @ 0xA
  3634                           
  3635  007A                     ??_wr2RegCompleteHandler:	
  3636                           ; 1 bytes @ 0xA
  3637                           
  3638  007A                     ??_rdBlkRegCompleteHandler:	
  3639                           ; 1 bytes @ 0xA
  3640                           
  3641  007A                     ??_I2C1_DO_TX:	
  3642                           ; 1 bytes @ 0xA
  3643                           
  3644  007A                     ??_I2C1_DO_RX:	
  3645                           ; 1 bytes @ 0xA
  3646                           
  3647  007A                     ??_I2C1_DO_TX_EMPTY:	
  3648                           ; 1 bytes @ 0xA
  3649                           
  3650  007A                     ??_I2C1_DO_ADDRESS_NACK:	
  3651                           ; 1 bytes @ 0xA
  3652                           
  3653  007A                     ??_I2C1_CallbackReturnStop:	
  3654                           ; 1 bytes @ 0xA
  3655                           
  3656  007A                     ??_I2C1_CallbackReturnReset:	
  3657                           ; 1 bytes @ 0xA
  3658                           
  3659  007A                     ??_wr1RegCompleteHandler@strlen$F1704:	
  3660                           ; 1 bytes @ 0xA
  3661                           
  3662  007A                     ??_rd1RegCompleteHandler@strlen$F1712:	
  3663                           ; 1 bytes @ 0xA
  3664                           
  3665  007A                     ??_rd2RegCompleteHandler@strlen$F1717:	
  3666                           ; 1 bytes @ 0xA
  3667                           
  3668  007A                     ??_wr2RegCompleteHandler@strlen$F1723:	
  3669                           ; 1 bytes @ 0xA
  3670                           
  3671  007A                     ??_rdBlkRegCompleteHandler@strlen$F1729:	
  3672                           ; 1 bytes @ 0xA
  3673                           
  3674                           
  3675                           ; 1 bytes @ 0xA
  3676  007A                     	ds	3
  3677  007D                     ??_I2C1_MasterIsr:
  3678  007D                     ??_INTERRUPT_InterruptManager:	
  3679                           ; 1 bytes @ 0xD
  3680                           
  3681                           
  3682                           	psect	cstackBANK0
  3683  0020                     __pcstackBANK0:	
  3684                           ; 1 bytes @ 0xD
  3685                           
  3686  0020                     ??_I2C1_MasterFsm:
  3687                           
  3688                           ; 1 bytes @ 0x0
  3689  0020                     	ds	3
  3690  0023                     ?_I2C1_SetBuffer:
  3691  0023                     ??_I2C1_Close:	
  3692                           ; 1 bytes @ 0x3
  3693                           
  3694  0023                     ??_PMD_Initialize:	
  3695                           ; 1 bytes @ 0x3
  3696                           
  3697  0023                     ??_I2C1_Initialize:	
  3698                           ; 1 bytes @ 0x3
  3699                           
  3700  0023                     ??_OSCILLATOR_Initialize:	
  3701                           ; 1 bytes @ 0x3
  3702                           
  3703  0023                     ??_WDT_Initialize:	
  3704                           ; 1 bytes @ 0x3
  3705                           
  3706  0023                     ?_EUSART_SetFramingErrorHandler:	
  3707                           ; 1 bytes @ 0x3
  3708                           
  3709  0023                     ?_EUSART_SetOverrunErrorHandler:	
  3710                           ; 1 bytes @ 0x3
  3711                           
  3712  0023                     ?_EUSART_SetErrorHandler:	
  3713                           ; 1 bytes @ 0x3
  3714                           
  3715  0023                     ?_I2C1_SetInterruptHandler:	
  3716                           ; 1 bytes @ 0x3
  3717                           
  3718  0023                     ??_I2C1_MasterClearIrq:	
  3719                           ; 1 bytes @ 0x3
  3720                           
  3721  0023                     ??_I2C1_MasterOpen:	
  3722                           ; 1 bytes @ 0x3
  3723                           
  3724  0023                     ??_I2C1_MasterEnableIrq:	
  3725                           ; 1 bytes @ 0x3
  3726                           
  3727  0023                     ??_I2C1_MasterDisableIrq:	
  3728                           ; 1 bytes @ 0x3
  3729                           
  3730  0023                     ??_I2C1_MasterClose:	
  3731                           ; 1 bytes @ 0x3
  3732                           
  3733  0023                     ??_I2C1_MasterStart:	
  3734                           ; 1 bytes @ 0x3
  3735                           
  3736  0023                     ?_I2C1_SetCallback:	
  3737                           ; 1 bytes @ 0x3
  3738                           
  3739  0023                     ??_PIN_MANAGER_Initialize:	
  3740                           ; 1 bytes @ 0x3
  3741                           
  3742  0023                     ??_EUSART_Write:	
  3743                           ; 1 bytes @ 0x3
  3744                           
  3745  0023                     ??_I2C1_MasterOperation:	
  3746                           ; 1 bytes @ 0x3
  3747                           
  3748  0023                     ?_strlen:	
  3749                           ; 1 bytes @ 0x3
  3750                           
  3751  0023                     ?___aodiv:	
  3752                           ; 2 bytes @ 0x3
  3753                           
  3754  0023                     ?___aomod:	
  3755                           ; 8 bytes @ 0x3
  3756                           
  3757  0023                     EUSART_Write@txData:	
  3758                           ; 8 bytes @ 0x3
  3759                           
  3760  0023                     EUSART_SetFramingErrorHandler@interruptHandler:	
  3761                           ; 1 bytes @ 0x3
  3762                           
  3763  0023                     EUSART_SetOverrunErrorHandler@interruptHandler:	
  3764                           ; 2 bytes @ 0x3
  3765                           
  3766  0023                     EUSART_SetErrorHandler@interruptHandler:	
  3767                           ; 2 bytes @ 0x3
  3768                           
  3769  0023                     I2C1_SetBuffer@bufferSize:	
  3770                           ; 2 bytes @ 0x3
  3771                           
  3772  0023                     I2C1_SetInterruptHandler@InterruptHandler:	
  3773                           ; 2 bytes @ 0x3
  3774                           
  3775  0023                     I2C1_SetCallback@cb:	
  3776                           ; 2 bytes @ 0x3
  3777                           
  3778  0023                     ___aodiv@divisor:	
  3779                           ; 2 bytes @ 0x3
  3780                           
  3781  0023                     ___aomod@divisor:	
  3782                           ; 8 bytes @ 0x3
  3783                           
  3784                           
  3785                           ; 8 bytes @ 0x3
  3786  0023                     	ds	1
  3787  0024                     ??_putch:
  3788  0024                     putch@txData:	
  3789                           ; 1 bytes @ 0x4
  3790                           
  3791  0024                     I2C1_Close@returnValue:	
  3792                           ; 1 bytes @ 0x4
  3793                           
  3794  0024                     I2C1_MasterOperation@read:	
  3795                           ; 1 bytes @ 0x4
  3796                           
  3797                           
  3798                           ; 1 bytes @ 0x4
  3799  0024                     	ds	1
  3800  0025                     ??_I2C1_SetBuffer:
  3801  0025                     ??_I2C1_Open:	
  3802                           ; 1 bytes @ 0x5
  3803                           
  3804  0025                     ??_EUSART_Initialize:	
  3805                           ; 1 bytes @ 0x5
  3806                           
  3807  0025                     ??_EUSART_SetFramingErrorHandler:	
  3808                           ; 1 bytes @ 0x5
  3809                           
  3810  0025                     ??_EUSART_SetOverrunErrorHandler:	
  3811                           ; 1 bytes @ 0x5
  3812                           
  3813  0025                     ??_EUSART_SetErrorHandler:	
  3814                           ; 1 bytes @ 0x5
  3815                           
  3816  0025                     ??_I2C1_SetInterruptHandler:	
  3817                           ; 1 bytes @ 0x5
  3818                           
  3819  0025                     ??_strlen:	
  3820                           ; 1 bytes @ 0x5
  3821                           
  3822  0025                     ??_SYSTEM_Initialize:	
  3823                           ; 1 bytes @ 0x5
  3824                           
  3825  0025                     ?_fputc:	
  3826                           ; 1 bytes @ 0x5
  3827                           
  3828  0025                     I2C1_MasterOperation@returnValue:	
  3829                           ; 2 bytes @ 0x5
  3830                           
  3831  0025                     I2C1_SetCallback@ptr:	
  3832                           ; 1 bytes @ 0x5
  3833                           
  3834  0025                     fputc@c:	
  3835                           ; 1 bytes @ 0x5
  3836                           
  3837                           
  3838                           ; 2 bytes @ 0x5
  3839  0025                     	ds	1
  3840  0026                     ??_I2C1_MasterWrite:
  3841  0026                     ??_I2C1_SetCallback:	
  3842                           ; 1 bytes @ 0x6
  3843                           
  3844  0026                     I2C1_Open@address:	
  3845                           ; 1 bytes @ 0x6
  3846                           
  3847  0026                     I2C1_SetBuffer@buffer:	
  3848                           ; 1 bytes @ 0x6
  3849                           
  3850  0026                     strlen@a:	
  3851                           ; 1 bytes @ 0x6
  3852                           
  3853                           
  3854                           ; 1 bytes @ 0x6
  3855  0026                     	ds	1
  3856  0027                     I2C1_Open@returnValue:
  3857  0027                     I2C1_SetCallback@idx:	
  3858                           ; 1 bytes @ 0x7
  3859                           
  3860  0027                     fputc@fp:	
  3861                           ; 1 bytes @ 0x7
  3862                           
  3863  0027                     strlen@s:	
  3864                           ; 1 bytes @ 0x7
  3865                           
  3866                           
  3867                           ; 1 bytes @ 0x7
  3868  0027                     	ds	1
  3869  0028                     ?_I2C1_SetDataCompleteCallback:
  3870  0028                     ?_I2C1_SetAddressNackCallback:	
  3871                           ; 1 bytes @ 0x8
  3872                           
  3873  0028                     ??_fputc:	
  3874                           ; 1 bytes @ 0x8
  3875                           
  3876  0028                     I2C1_SetDataCompleteCallback@cb:	
  3877                           ; 1 bytes @ 0x8
  3878                           
  3879  0028                     I2C1_SetAddressNackCallback@cb:	
  3880                           ; 2 bytes @ 0x8
  3881                           
  3882                           
  3883                           ; 2 bytes @ 0x8
  3884  0028                     	ds	2
  3885  002A                     I2C1_SetDataCompleteCallback@ptr:
  3886  002A                     I2C1_SetAddressNackCallback@ptr:	
  3887                           ; 1 bytes @ 0xA
  3888                           
  3889                           
  3890                           ; 1 bytes @ 0xA
  3891  002A                     	ds	1
  3892  002B                     ??_I2C1_SetDataCompleteCallback:
  3893  002B                     ??_I2C1_SetAddressNackCallback:	
  3894                           ; 1 bytes @ 0xB
  3895                           
  3896  002B                     ___aodiv@dividend:	
  3897                           ; 1 bytes @ 0xB
  3898                           
  3899  002B                     ___aomod@dividend:	
  3900                           ; 8 bytes @ 0xB
  3901                           
  3902                           
  3903                           ; 8 bytes @ 0xB
  3904  002B                     	ds	1
  3905  002C                     ?_i2c_write1ByteRegister:
  3906  002C                     ?_i2c_read1ByteRegister:	
  3907                           ; 1 bytes @ 0xC
  3908                           
  3909  002C                     i2c_write1ByteRegister@reg:	
  3910                           ; 1 bytes @ 0xC
  3911                           
  3912  002C                     i2c_read1ByteRegister@reg:	
  3913                           ; 1 bytes @ 0xC
  3914                           
  3915                           
  3916                           ; 1 bytes @ 0xC
  3917  002C                     	ds	1
  3918  002D                     ??_i2c_read1ByteRegister:
  3919  002D                     ?_fputs:	
  3920                           ; 1 bytes @ 0xD
  3921                           
  3922  002D                     i2c_write1ByteRegister@data:	
  3923                           ; 2 bytes @ 0xD
  3924                           
  3925  002D                     fputs@fp:	
  3926                           ; 1 bytes @ 0xD
  3927                           
  3928                           
  3929                           ; 1 bytes @ 0xD
  3930  002D                     	ds	1
  3931  002E                     ??_fputs:
  3932  002E                     ??_i2c_write1ByteRegister:	
  3933                           ; 1 bytes @ 0xE
  3934                           
  3935  002E                     i2c_read1ByteRegister@address:	
  3936                           ; 1 bytes @ 0xE
  3937                           
  3938                           
  3939                           ; 1 bytes @ 0xE
  3940  002E                     	ds	1
  3941  002F                     i2c_write1ByteRegister@address:
  3942  002F                     i2c_read1ByteRegister@e:	
  3943                           ; 1 bytes @ 0xF
  3944                           
  3945                           
  3946                           ; 1 bytes @ 0xF
  3947  002F                     	ds	1
  3948  0030                     i2c_read1ByteRegister@x:
  3949                           
  3950                           ; 2 bytes @ 0x10
  3951  0030                     	ds	1
  3952  0031                     fputs@c:
  3953                           
  3954                           ; 1 bytes @ 0x11
  3955  0031                     	ds	1
  3956  0032                     i2c_read1ByteRegister@d2:
  3957  0032                     fputs@i:	
  3958                           ; 1 bytes @ 0x12
  3959                           
  3960                           
  3961                           ; 2 bytes @ 0x12
  3962  0032                     	ds	1
  3963  0033                     ??___aodiv:
  3964  0033                     ??___aomod:	
  3965                           ; 1 bytes @ 0x13
  3966                           
  3967                           
  3968                           ; 1 bytes @ 0x13
  3969  0033                     	ds	1
  3970  0034                     ___aodiv@counter:
  3971  0034                     ___aomod@counter:	
  3972                           ; 1 bytes @ 0x14
  3973                           
  3974  0034                     fputs@s:	
  3975                           ; 1 bytes @ 0x14
  3976                           
  3977                           
  3978                           ; 1 bytes @ 0x14
  3979  0034                     	ds	1
  3980  0035                     ?_pad:
  3981  0035                     ___aodiv@sign:	
  3982                           ; 2 bytes @ 0x15
  3983                           
  3984  0035                     ___aomod@sign:	
  3985                           ; 1 bytes @ 0x15
  3986                           
  3987  0035                     pad@buf:	
  3988                           ; 1 bytes @ 0x15
  3989                           
  3990                           
  3991                           ; 1 bytes @ 0x15
  3992  0035                     	ds	1
  3993  0036                     ?_abs:
  3994  0036                     pad@p:	
  3995                           ; 2 bytes @ 0x16
  3996                           
  3997  0036                     abs@a:	
  3998                           ; 2 bytes @ 0x16
  3999                           
  4000  0036                     ___aodiv@quotient:	
  4001                           ; 2 bytes @ 0x16
  4002                           
  4003                           
  4004                           ; 8 bytes @ 0x16
  4005  0036                     	ds	2
  4006  0038                     ??_abs:
  4007  0038                     ??_pad:	
  4008                           ; 1 bytes @ 0x18
  4009                           
  4010                           
  4011                           ; 1 bytes @ 0x18
  4012  0038                     	ds	1
  4013  0039                     pad@i:
  4014                           
  4015                           ; 2 bytes @ 0x19
  4016  0039                     	ds	2
  4017  003B                     pad@w:
  4018                           
  4019                           ; 2 bytes @ 0x1B
  4020  003B                     	ds	2
  4021  003D                     pad@fp:
  4022                           
  4023                           ; 1 bytes @ 0x1D
  4024  003D                     	ds	1
  4025  003E                     ?_dtoa:
  4026  003E                     dtoa@d:	
  4027                           ; 2 bytes @ 0x1E
  4028                           
  4029                           
  4030                           ; 8 bytes @ 0x1E
  4031  003E                     	ds	8
  4032  0046                     ??_dtoa:
  4033                           
  4034                           ; 1 bytes @ 0x26
  4035  0046                     	ds	3
  4036  0049                     _dtoa$1639:
  4037                           
  4038                           ; 2 bytes @ 0x29
  4039  0049                     	ds	2
  4040  004B                     dtoa@fp:
  4041                           
  4042                           ; 1 bytes @ 0x2B
  4043  004B                     	ds	1
  4044  004C                     dtoa@p:
  4045                           
  4046                           ; 2 bytes @ 0x2C
  4047  004C                     	ds	2
  4048  004E                     dtoa@w:
  4049                           
  4050                           ; 2 bytes @ 0x2E
  4051  004E                     	ds	2
  4052  0050                     dtoa@s:
  4053                           
  4054                           ; 2 bytes @ 0x30
  4055  0050                     	ds	2
  4056  0052                     dtoa@n:
  4057                           
  4058                           ; 8 bytes @ 0x32
  4059  0052                     	ds	8
  4060  005A                     dtoa@i:
  4061                           
  4062                           ; 2 bytes @ 0x3A
  4063  005A                     	ds	2
  4064  005C                     ?_vfpfcnvrt:
  4065  005C                     vfpfcnvrt@fmt:	
  4066                           ; 2 bytes @ 0x3C
  4067                           
  4068                           
  4069                           ; 1 bytes @ 0x3C
  4070  005C                     	ds	1
  4071  005D                     vfpfcnvrt@ap:
  4072                           
  4073                           ; 1 bytes @ 0x3D
  4074  005D                     	ds	1
  4075  005E                     ??_vfpfcnvrt:
  4076                           
  4077                           ; 1 bytes @ 0x3E
  4078  005E                     	ds	5
  4079  0063                     ??_vfprintf:
  4080                           
  4081                           ; 1 bytes @ 0x43
  4082  0063                     	ds	2
  4083  0065                     vfprintf@fp:
  4084                           
  4085                           ; 1 bytes @ 0x45
  4086  0065                     	ds	1
  4087  0066                     vfprintf@cfmt:
  4088                           
  4089                           ; 2 bytes @ 0x46
  4090  0066                     	ds	2
  4091  0068                     ??_printf:
  4092                           
  4093                           ; 1 bytes @ 0x48
  4094  0068                     	ds	1
  4095  0069                     printf@ap:
  4096                           
  4097                           ; 1 bytes @ 0x49
  4098  0069                     	ds	1
  4099                           
  4100                           	psect	maintext
  4101  0752                     __pmaintext:	
  4102 ;;
  4103 ;;Main: autosize = 0, tempsize = 2, incstack = 0, save=0
  4104 ;;
  4105 ;; *************** function _main *****************
  4106 ;; Defined at:
  4107 ;;		line 53 in file "main.c"
  4108 ;; Parameters:    Size  Location     Type
  4109 ;;		None
  4110 ;; Auto vars:     Size  Location     Type
  4111 ;;		None
  4112 ;; Return value:  Size  Location     Type
  4113 ;;                  1    wreg      void 
  4114 ;; Registers used:
  4115 ;;		wreg, fsr0l, fsr0h, fsr1l, fsr1h, status,2, status,0, pclath, cstack
  4116 ;; Tracked objects:
  4117 ;;		On entry : B1F/0
  4118 ;;		On exit  : 0/0
  4119 ;;		Unchanged: 0/0
  4120 ;; Data sizes:     COMMON   BANK0   BANK1   BANK2   BANK3   BANK4   BANK5   BANK6   BANK7   BANK8   BANK9  BANK10  BANK1
      +1  BANK12
  4121 ;;      Params:         0       0       0       0       0       0       0       0       0       0       0       0       
      +0       0
  4122 ;;      Locals:         0       0       0       0       0       0       0       0       0       0       0       0       
      +0       0
  4123 ;;      Temps:          0       0       2       0       0       0       0       0       0       0       0       0       
      +0       0
  4124 ;;      Totals:         0       0       2       0       0       0       0       0       0       0       0       0       
      +0       0
  4125 ;;Total ram usage:        2 bytes
  4126 ;; Hardware stack levels required when called: 17
  4127 ;; This function calls:
  4128 ;;		_I2CSIMPLE_example
  4129 ;;		_SYSTEM_Initialize
  4130 ;;		_i2c_write1ByteRegister
  4131 ;; This function is called by:
  4132 ;;		Startup code after reset
  4133 ;; This function uses a non-reentrant model
  4134 ;;
  4135                           
  4136  0752                     _main:	
  4137                           ;psect for function _main
  4138                           
  4139  0752                     l4146:	
  4140                           ;incstack = 0
  4141 ;; hardware stack exceeded
  4142                           ; Regs used in _main: [wreg-fsr1h+status,2+status,0+pclath+cstack]
  4143                           
  4144                           
  4145                           ;main.c: 56:     SYSTEM_Initialize();
  4146  0752  318D  25F4  3187   	fcall	_SYSTEM_Initialize
  4147  0755                     l4148:
  4148                           
  4149                           ;main.c: 62:     (INTCONbits.GIE = 1);
  4150  0755  178B               	bsf	11,7	;volatile
  4151  0756                     l4150:
  4152                           
  4153                           ;main.c: 65:     (INTCONbits.PEIE = 1);
  4154  0756  170B               	bsf	11,6	;volatile
  4155  0757                     l4152:
  4156                           
  4157                           ;main.c: 74:     i2c_write1ByteRegister(0x6B,0x20, 0B11001000);
  4158  0757  3020               	movlw	32
  4159  0758  0021               	movlb	1	; select bank1
  4160  0759  00E7               	movwf	??_main^(0+128)
  4161  075A  0867               	movf	??_main^(0+128),w
  4162  075B  0020               	movlb	0	; select bank0
  4163  075C  00AC               	movwf	i2c_write1ByteRegister@reg
  4164  075D  30C8               	movlw	200
  4165  075E  0021               	movlb	1	; select bank1
  4166  075F  00E8               	movwf	(??_main+1)^(0+128)
  4167  0760  0868               	movf	(??_main+1)^(0+128),w
  4168  0761  0020               	movlb	0	; select bank0
  4169  0762  00AD               	movwf	i2c_write1ByteRegister@data
  4170  0763  306B               	movlw	107
  4171  0764  3187  2789  3187   	fcall	_i2c_write1ByteRegister
  4172  0767                     l4154:
  4173                           
  4174                           ;main.c: 75:     i2c_write1ByteRegister(0x6B,0x2E, 0xC0);
  4175  0767  302E               	movlw	46
  4176  0768  0021               	movlb	1	; select bank1
  4177  0769  00E7               	movwf	??_main^(0+128)
  4178  076A  0867               	movf	??_main^(0+128),w
  4179  076B  0020               	movlb	0	; select bank0
  4180  076C  00AC               	movwf	i2c_write1ByteRegister@reg
  4181  076D  30C0               	movlw	192
  4182  076E  0021               	movlb	1	; select bank1
  4183  076F  00E8               	movwf	(??_main+1)^(0+128)
  4184  0770  0868               	movf	(??_main+1)^(0+128),w
  4185  0771  0020               	movlb	0	; select bank0
  4186  0772  00AD               	movwf	i2c_write1ByteRegister@data
  4187  0773  306B               	movlw	107
  4188  0774  3187  2789  3187   	fcall	_i2c_write1ByteRegister
  4189  0777                     l4156:
  4190                           
  4191                           ;main.c: 78:     {;main.c: 79:         I2CSIMPLE_example();
  4192  0777  3184  249B  3187   	fcall	_I2CSIMPLE_example
  4193  077A                     l4158:
  4194                           
  4195                           ;main.c: 80:         _delay((unsigned long)((1000)*(32000000/4000.0)));
  4196  077A  3029               	movlw	41
  4197  077B  0021               	movlb	1	; select bank1
  4198  077C  00E8               	movwf	(??_main^(0+128)+1)
  4199  077D  3096               	movlw	150
  4200  077E  00E7               	movwf	??_main^(0+128)
  4201  077F  307F               	movlw	127
  4202  0780                     u2707:
  4203  0780  0B89               	decfsz	9,f
  4204  0781  2F80               	goto	u2707
  4205  0782  0BE7               	decfsz	??_main^(0+128),f
  4206  0783  2F80               	goto	u2707
  4207  0784  0BE8               	decfsz	(??_main^(0+128)+1),f
  4208  0785  2F80               	goto	u2707
  4209  0786  2F77               	goto	l4156
  4210  0787  3180  2828         	ljmp	start
  4211  0789                     __end_of_main:
  4212                           
  4213                           	psect	text1
  4214  0789                     __ptext1:	
  4215 ;; *************** function _i2c_write1ByteRegister *****************
  4216 ;; Defined at:
  4217 ;;		line 51 in file "mcc_generated_files/drivers/i2c_simple_master.c"
  4218 ;; Parameters:    Size  Location     Type
  4219 ;;  address         1    wreg     unsigned char 
  4220 ;;  reg             1   12[BANK0 ] unsigned char 
  4221 ;;  data            1   13[BANK0 ] unsigned char 
  4222 ;; Auto vars:     Size  Location     Type
  4223 ;;  address         1   15[BANK0 ] unsigned char 
  4224 ;; Return value:  Size  Location     Type
  4225 ;;                  1    wreg      void 
  4226 ;; Registers used:
  4227 ;;		wreg, fsr1l, fsr1h, status,2, status,0, pclath, cstack
  4228 ;; Tracked objects:
  4229 ;;		On entry : 0/0
  4230 ;;		On exit  : 0/0
  4231 ;;		Unchanged: 0/0
  4232 ;; Data sizes:     COMMON   BANK0   BANK1   BANK2   BANK3   BANK4   BANK5   BANK6   BANK7   BANK8   BANK9  BANK10  BANK1
      +1  BANK12
  4233 ;;      Params:         0       2       0       0       0       0       0       0       0       0       0       0       
      +0       0
  4234 ;;      Locals:         0       1       0       0       0       0       0       0       0       0       0       0       
      +0       0
  4235 ;;      Temps:          0       1       0       0       0       0       0       0       0       0       0       0       
      +0       0
  4236 ;;      Totals:         0       4       0       0       0       0       0       0       0       0       0       0       
      +0       0
  4237 ;;Total ram usage:        4 bytes
  4238 ;; Hardware stack levels used: 1
  4239 ;; Hardware stack levels required when called: 10
  4240 ;; This function calls:
  4241 ;;		_I2C1_Close
  4242 ;;		_I2C1_MasterWrite
  4243 ;;		_I2C1_Open
  4244 ;;		_I2C1_SetAddressNackCallback
  4245 ;;		_I2C1_SetBuffer
  4246 ;;		_I2C1_SetDataCompleteCallback
  4247 ;; This function is called by:
  4248 ;;		_main
  4249 ;; This function uses a non-reentrant model
  4250 ;;
  4251                           
  4252  0789                     _i2c_write1ByteRegister:	
  4253                           ;psect for function _i2c_write1ByteRegister
  4254                           
  4255                           
  4256                           ;incstack = 0
  4257                           ; Regs used in _i2c_write1ByteRegister: [wreg+fsr1l+fsr1h+status,2+status,0+pclath+cstac
      +                          k]
  4258                           ;i2c_write1ByteRegister@address stored from wreg
  4259  0789  0020               	movlb	0	; select bank0
  4260  078A  00AF               	movwf	i2c_write1ByteRegister@address
  4261  078B                     l3500:
  4262  078B                     l3502:	
  4263                           ;mcc_generated_files/drivers/i2c_simple_master.c: 51: void i2c_write1ByteRegister(i2c1_a
      +                          ddress_t address, uint8_t reg, uint8_t data);mcc_generated_files/drivers/i2c_simple_mast
      +                          er.c: 52: {;mcc_generated_files/drivers/i2c_simple_master.c: 53:     while(!I2C1_Open(ad
      +                          dress));
  4264                           
  4265  078B  0020               	movlb	0	; select bank0
  4266  078C  082F               	movf	i2c_write1ByteRegister@address,w
  4267  078D  3186  2645  3187   	fcall	_I2C1_Open
  4268  0790  3A00               	xorlw	0
  4269  0791  1903               	skipnz
  4270  0792  2F94               	goto	u1821
  4271  0793  2F95               	goto	u1820
  4272  0794                     u1821:
  4273  0794  2F8B               	goto	l3502
  4274  0795                     u1820:
  4275  0795                     l3504:
  4276                           
  4277                           ;mcc_generated_files/drivers/i2c_simple_master.c: 54:     I2C1_SetDataCompleteCallback(w
      +                          r1RegCompleteHandler,&data);
  4278  0795  307D               	movlw	low _wr1RegCompleteHandler
  4279  0796  0020               	movlb	0	; select bank0
  4280  0797  00A8               	movwf	I2C1_SetDataCompleteCallback@cb
  4281  0798  300D               	movlw	high _wr1RegCompleteHandler
  4282  0799  00A9               	movwf	I2C1_SetDataCompleteCallback@cb+1
  4283  079A  302D               	movlw	(low (i2c_write1ByteRegister@data| 0))& (0+255)
  4284  079B  00AE               	movwf	??_i2c_write1ByteRegister
  4285  079C  082E               	movf	??_i2c_write1ByteRegister,w
  4286  079D  00AA               	movwf	I2C1_SetDataCompleteCallback@ptr
  4287  079E  3187  27F2  3187   	fcall	_I2C1_SetDataCompleteCallback
  4288  07A1                     l3506:
  4289                           
  4290                           ;mcc_generated_files/drivers/i2c_simple_master.c: 55:     I2C1_SetBuffer(&reg,1);
  4291  07A1  3001               	movlw	1
  4292  07A2  0020               	movlb	0	; select bank0
  4293  07A3  00A3               	movwf	I2C1_SetBuffer@bufferSize
  4294  07A4  3000               	movlw	0
  4295  07A5  00A4               	movwf	I2C1_SetBuffer@bufferSize+1
  4296  07A6  302C               	movlw	(low (i2c_write1ByteRegister@reg| 0))& (0+255)
  4297  07A7  318E  261C  3187   	fcall	_I2C1_SetBuffer
  4298  07AA                     l3508:
  4299                           
  4300                           ;mcc_generated_files/drivers/i2c_simple_master.c: 56:     I2C1_SetAddressNackCallback(((
      +                          void*)0),((void*)0));
  4301  07AA  3000               	movlw	0
  4302  07AB  0020               	movlb	0	; select bank0
  4303  07AC  00A8               	movwf	I2C1_SetAddressNackCallback@cb
  4304  07AD  00A9               	movwf	I2C1_SetAddressNackCallback@cb+1
  4305  07AE  01AA               	clrf	I2C1_SetAddressNackCallback@ptr
  4306  07AF  318D  254E  3187   	fcall	_I2C1_SetAddressNackCallback
  4307                           
  4308                           ;mcc_generated_files/drivers/i2c_simple_master.c: 57:     I2C1_MasterWrite();
  4309  07B2  318C  24BC  3187   	fcall	_I2C1_MasterWrite
  4310  07B5                     l3510:	
  4311                           ;mcc_generated_files/drivers/i2c_simple_master.c: 58:     while(I2C1_BUSY == I2C1_Close(
      +                          ));
  4312                           
  4313  07B5  318E  26BA  3187   	fcall	_I2C1_Close
  4314  07B8  3A01               	xorlw	1
  4315  07B9  1903               	skipnz
  4316  07BA  2FBC               	goto	u1831
  4317  07BB  2FBD               	goto	u1830
  4318  07BC                     u1831:
  4319  07BC  2FB5               	goto	l3510
  4320  07BD                     u1830:
  4321  07BD                     l28:
  4322  07BD  0008               	return
  4323  07BE                     __end_of_i2c_write1ByteRegister:
  4324                           
  4325                           	psect	text2
  4326  0DF4                     __ptext2:	
  4327 ;; *************** function _SYSTEM_Initialize *****************
  4328 ;; Defined at:
  4329 ;;		line 50 in file "mcc_generated_files/mcc.c"
  4330 ;; Parameters:    Size  Location     Type
  4331 ;;		None
  4332 ;; Auto vars:     Size  Location     Type
  4333 ;;		None
  4334 ;; Return value:  Size  Location     Type
  4335 ;;                  1    wreg      void 
  4336 ;; Registers used:
  4337 ;;		wreg, status,2, status,0, pclath, cstack
  4338 ;; Tracked objects:
  4339 ;;		On entry : 0/0
  4340 ;;		On exit  : 0/0
  4341 ;;		Unchanged: 0/0
  4342 ;; Data sizes:     COMMON   BANK0   BANK1   BANK2   BANK3   BANK4   BANK5   BANK6   BANK7   BANK8   BANK9  BANK10  BANK1
      +1  BANK12
  4343 ;;      Params:         0       0       0       0       0       0       0       0       0       0       0       0       
      +0       0
  4344 ;;      Locals:         0       0       0       0       0       0       0       0       0       0       0       0       
      +0       0
  4345 ;;      Temps:          0       0       0       0       0       0       0       0       0       0       0       0       
      +0       0
  4346 ;;      Totals:         0       0       0       0       0       0       0       0       0       0       0       0       
      +0       0
  4347 ;;Total ram usage:        0 bytes
  4348 ;; Hardware stack levels used: 1
  4349 ;; Hardware stack levels required when called: 9
  4350 ;; This function calls:
  4351 ;;		_EUSART_Initialize
  4352 ;;		_I2C1_Initialize
  4353 ;;		_OSCILLATOR_Initialize
  4354 ;;		_PIN_MANAGER_Initialize
  4355 ;;		_PMD_Initialize
  4356 ;;		_WDT_Initialize
  4357 ;; This function is called by:
  4358 ;;		_main
  4359 ;; This function uses a non-reentrant model
  4360 ;;
  4361                           
  4362  0DF4                     _SYSTEM_Initialize:	
  4363                           ;psect for function _SYSTEM_Initialize
  4364                           
  4365  0DF4                     l3528:	
  4366                           ;incstack = 0
  4367                           ; Regs used in _SYSTEM_Initialize: [wreg+status,2+status,0+pclath+cstack]
  4368                           
  4369                           
  4370                           ;mcc_generated_files/mcc.c: 53:     PMD_Initialize();
  4371  0DF4  318C  24E3  318D   	fcall	_PMD_Initialize
  4372  0DF7                     l3530:
  4373                           
  4374                           ;mcc_generated_files/mcc.c: 54:     I2C1_Initialize();
  4375  0DF7  318D  2518  318D   	fcall	_I2C1_Initialize
  4376  0DFA                     l3532:
  4377                           
  4378                           ;mcc_generated_files/mcc.c: 55:     PIN_MANAGER_Initialize();
  4379  0DFA  3187  271A  318D   	fcall	_PIN_MANAGER_Initialize
  4380  0DFD                     l3534:
  4381                           
  4382                           ;mcc_generated_files/mcc.c: 56:     OSCILLATOR_Initialize();
  4383  0DFD  318D  2521  318D   	fcall	_OSCILLATOR_Initialize
  4384  0E00                     l3536:
  4385                           
  4386                           ;mcc_generated_files/mcc.c: 57:     WDT_Initialize();
  4387  0E00  318C  2486  318D   	fcall	_WDT_Initialize
  4388  0E03                     l3538:
  4389                           
  4390                           ;mcc_generated_files/mcc.c: 58:     EUSART_Initialize();
  4391  0E03  318F  2701  318D   	fcall	_EUSART_Initialize
  4392  0E06                     l329:
  4393  0E06  0008               	return
  4394  0E07                     __end_of_SYSTEM_Initialize:
  4395                           
  4396                           	psect	text3
  4397  0C86                     __ptext3:	
  4398 ;; *************** function _WDT_Initialize *****************
  4399 ;; Defined at:
  4400 ;;		line 75 in file "mcc_generated_files/mcc.c"
  4401 ;; Parameters:    Size  Location     Type
  4402 ;;		None
  4403 ;; Auto vars:     Size  Location     Type
  4404 ;;		None
  4405 ;; Return value:  Size  Location     Type
  4406 ;;                  1    wreg      void 
  4407 ;; Registers used:
  4408 ;;		wreg
  4409 ;; Tracked objects:
  4410 ;;		On entry : 0/0
  4411 ;;		On exit  : 0/0
  4412 ;;		Unchanged: 0/0
  4413 ;; Data sizes:     COMMON   BANK0   BANK1   BANK2   BANK3   BANK4   BANK5   BANK6   BANK7   BANK8   BANK9  BANK10  BANK1
      +1  BANK12
  4414 ;;      Params:         0       0       0       0       0       0       0       0       0       0       0       0       
      +0       0
  4415 ;;      Locals:         0       0       0       0       0       0       0       0       0       0       0       0       
      +0       0
  4416 ;;      Temps:          0       0       0       0       0       0       0       0       0       0       0       0       
      +0       0
  4417 ;;      Totals:         0       0       0       0       0       0       0       0       0       0       0       0       
      +0       0
  4418 ;;Total ram usage:        0 bytes
  4419 ;; Hardware stack levels used: 1
  4420 ;; Hardware stack levels required when called: 7
  4421 ;; This function calls:
  4422 ;;		Nothing
  4423 ;; This function is called by:
  4424 ;;		_SYSTEM_Initialize
  4425 ;; This function uses a non-reentrant model
  4426 ;;
  4427                           
  4428  0C86                     _WDT_Initialize:	
  4429                           ;psect for function _WDT_Initialize
  4430                           
  4431  0C86                     l3478:	
  4432                           ;incstack = 0
  4433                           ; Regs used in _WDT_Initialize: [wreg]
  4434                           
  4435                           
  4436                           ;mcc_generated_files/mcc.c: 78:     WDTCON = 0x16;
  4437  0C86  3016               	movlw	22
  4438  0C87  0021               	movlb	1	; select bank1
  4439  0C88  0097               	movwf	23	;volatile
  4440  0C89                     l335:
  4441  0C89  0008               	return
  4442  0C8A                     __end_of_WDT_Initialize:
  4443                           
  4444                           	psect	text4
  4445  0CE3                     __ptext4:	
  4446 ;; *************** function _PMD_Initialize *****************
  4447 ;; Defined at:
  4448 ;;		line 81 in file "mcc_generated_files/mcc.c"
  4449 ;; Parameters:    Size  Location     Type
  4450 ;;		None
  4451 ;; Auto vars:     Size  Location     Type
  4452 ;;		None
  4453 ;; Return value:  Size  Location     Type
  4454 ;;                  1    wreg      void 
  4455 ;; Registers used:
  4456 ;;		status,2
  4457 ;; Tracked objects:
  4458 ;;		On entry : 0/0
  4459 ;;		On exit  : 0/0
  4460 ;;		Unchanged: 0/0
  4461 ;; Data sizes:     COMMON   BANK0   BANK1   BANK2   BANK3   BANK4   BANK5   BANK6   BANK7   BANK8   BANK9  BANK10  BANK1
      +1  BANK12
  4462 ;;      Params:         0       0       0       0       0       0       0       0       0       0       0       0       
      +0       0
  4463 ;;      Locals:         0       0       0       0       0       0       0       0       0       0       0       0       
      +0       0
  4464 ;;      Temps:          0       0       0       0       0       0       0       0       0       0       0       0       
      +0       0
  4465 ;;      Totals:         0       0       0       0       0       0       0       0       0       0       0       0       
      +0       0
  4466 ;;Total ram usage:        0 bytes
  4467 ;; Hardware stack levels used: 1
  4468 ;; Hardware stack levels required when called: 7
  4469 ;; This function calls:
  4470 ;;		Nothing
  4471 ;; This function is called by:
  4472 ;;		_SYSTEM_Initialize
  4473 ;; This function uses a non-reentrant model
  4474 ;;
  4475                           
  4476  0CE3                     _PMD_Initialize:	
  4477                           ;psect for function _PMD_Initialize
  4478                           
  4479  0CE3                     l3460:	
  4480                           ;incstack = 0
  4481                           ; Regs used in _PMD_Initialize: [status,2]
  4482                           
  4483                           
  4484                           ;mcc_generated_files/mcc.c: 84:     PMD0 = 0x00;
  4485  0CE3  0032               	movlb	18	; select bank18
  4486  0CE4  0191               	clrf	17	;volatile
  4487                           
  4488                           ;mcc_generated_files/mcc.c: 86:     PMD1 = 0x00;
  4489  0CE5  0192               	clrf	18	;volatile
  4490                           
  4491                           ;mcc_generated_files/mcc.c: 88:     PMD2 = 0x00;
  4492  0CE6  0193               	clrf	19	;volatile
  4493                           
  4494                           ;mcc_generated_files/mcc.c: 90:     PMD3 = 0x00;
  4495  0CE7  0194               	clrf	20	;volatile
  4496                           
  4497                           ;mcc_generated_files/mcc.c: 92:     PMD4 = 0x00;
  4498  0CE8  0195               	clrf	21	;volatile
  4499                           
  4500                           ;mcc_generated_files/mcc.c: 94:     PMD5 = 0x00;
  4501  0CE9  0196               	clrf	22	;volatile
  4502  0CEA                     l338:
  4503  0CEA  0008               	return
  4504  0CEB                     __end_of_PMD_Initialize:
  4505                           
  4506                           	psect	text5
  4507  071A                     __ptext5:	
  4508 ;; *************** function _PIN_MANAGER_Initialize *****************
  4509 ;; Defined at:
  4510 ;;		line 55 in file "mcc_generated_files/pin_manager.c"
  4511 ;; Parameters:    Size  Location     Type
  4512 ;;		None
  4513 ;; Auto vars:     Size  Location     Type
  4514 ;;		None
  4515 ;; Return value:  Size  Location     Type
  4516 ;;                  1    wreg      void 
  4517 ;; Registers used:
  4518 ;;		wreg, status,2
  4519 ;; Tracked objects:
  4520 ;;		On entry : 0/0
  4521 ;;		On exit  : 0/0
  4522 ;;		Unchanged: 0/0
  4523 ;; Data sizes:     COMMON   BANK0   BANK1   BANK2   BANK3   BANK4   BANK5   BANK6   BANK7   BANK8   BANK9  BANK10  BANK1
      +1  BANK12
  4524 ;;      Params:         0       0       0       0       0       0       0       0       0       0       0       0       
      +0       0
  4525 ;;      Locals:         0       0       0       0       0       0       0       0       0       0       0       0       
      +0       0
  4526 ;;      Temps:          0       0       0       0       0       0       0       0       0       0       0       0       
      +0       0
  4527 ;;      Totals:         0       0       0       0       0       0       0       0       0       0       0       0       
      +0       0
  4528 ;;Total ram usage:        0 bytes
  4529 ;; Hardware stack levels used: 1
  4530 ;; Hardware stack levels required when called: 7
  4531 ;; This function calls:
  4532 ;;		Nothing
  4533 ;; This function is called by:
  4534 ;;		_SYSTEM_Initialize
  4535 ;; This function uses a non-reentrant model
  4536 ;;
  4537                           
  4538  071A                     _PIN_MANAGER_Initialize:	
  4539                           ;psect for function _PIN_MANAGER_Initialize
  4540                           
  4541  071A                     l3422:	
  4542                           ;incstack = 0
  4543                           ; Regs used in _PIN_MANAGER_Initialize: [wreg+status,2]
  4544                           
  4545                           
  4546                           ;mcc_generated_files/pin_manager.c: 60:     LATA = 0x00;
  4547  071A  0022               	movlb	2	; select bank2
  4548  071B  018C               	clrf	12	;volatile
  4549                           
  4550                           ;mcc_generated_files/pin_manager.c: 61:     LATB = 0x00;
  4551  071C  018D               	clrf	13	;volatile
  4552                           
  4553                           ;mcc_generated_files/pin_manager.c: 62:     LATC = 0x00;
  4554  071D  018E               	clrf	14	;volatile
  4555  071E                     l3424:
  4556                           
  4557                           ;mcc_generated_files/pin_manager.c: 67:     TRISA = 0x37;
  4558  071E  3037               	movlw	55
  4559  071F  0021               	movlb	1	; select bank1
  4560  0720  008C               	movwf	12	;volatile
  4561  0721                     l3426:
  4562                           
  4563                           ;mcc_generated_files/pin_manager.c: 68:     TRISB = 0x70;
  4564  0721  3070               	movlw	112
  4565  0722  008D               	movwf	13	;volatile
  4566  0723                     l3428:
  4567                           
  4568                           ;mcc_generated_files/pin_manager.c: 69:     TRISC = 0xFF;
  4569  0723  30FF               	movlw	255
  4570  0724  008E               	movwf	14	;volatile
  4571  0725                     l3430:
  4572                           
  4573                           ;mcc_generated_files/pin_manager.c: 74:     ANSELC = 0xE9;
  4574  0725  30E9               	movlw	233
  4575  0726  0023               	movlb	3	; select bank3
  4576  0727  008E               	movwf	14	;volatile
  4577  0728                     l3432:
  4578                           
  4579                           ;mcc_generated_files/pin_manager.c: 75:     ANSELB = 0x50;
  4580  0728  3050               	movlw	80
  4581  0729  008D               	movwf	13	;volatile
  4582  072A                     l3434:
  4583                           
  4584                           ;mcc_generated_files/pin_manager.c: 76:     ANSELA = 0x37;
  4585  072A  3037               	movlw	55
  4586  072B  008C               	movwf	12	;volatile
  4587                           
  4588                           ;mcc_generated_files/pin_manager.c: 81:     WPUB = 0x00;
  4589  072C  0024               	movlb	4	; select bank4
  4590  072D  018D               	clrf	13	;volatile
  4591                           
  4592                           ;mcc_generated_files/pin_manager.c: 82:     WPUA = 0x00;
  4593  072E  018C               	clrf	12	;volatile
  4594                           
  4595                           ;mcc_generated_files/pin_manager.c: 83:     WPUC = 0x00;
  4596  072F  018E               	clrf	14	;volatile
  4597                           
  4598                           ;mcc_generated_files/pin_manager.c: 88:     ODCONA = 0x00;
  4599  0730  0025               	movlb	5	; select bank5
  4600  0731  018C               	clrf	12	;volatile
  4601                           
  4602                           ;mcc_generated_files/pin_manager.c: 89:     ODCONB = 0x00;
  4603  0732  018D               	clrf	13	;volatile
  4604                           
  4605                           ;mcc_generated_files/pin_manager.c: 90:     ODCONC = 0x00;
  4606  0733  018E               	clrf	14	;volatile
  4607  0734                     l3436:
  4608                           
  4609                           ;mcc_generated_files/pin_manager.c: 95:     SLRCONA = 0x37;
  4610  0734  3037               	movlw	55
  4611  0735  0026               	movlb	6	; select bank6
  4612  0736  008C               	movwf	12	;volatile
  4613  0737                     l3438:
  4614                           
  4615                           ;mcc_generated_files/pin_manager.c: 96:     SLRCONB = 0xF0;
  4616  0737  30F0               	movlw	240
  4617  0738  008D               	movwf	13	;volatile
  4618  0739                     l3440:
  4619                           
  4620                           ;mcc_generated_files/pin_manager.c: 97:     SLRCONC = 0xFF;
  4621  0739  30FF               	movlw	255
  4622  073A  008E               	movwf	14	;volatile
  4623  073B                     l3442:
  4624                           
  4625                           ;mcc_generated_files/pin_manager.c: 102:     INLVLA = 0x3F;
  4626  073B  303F               	movlw	63
  4627  073C  0027               	movlb	7	; select bank7
  4628  073D  008C               	movwf	12	;volatile
  4629  073E                     l3444:
  4630                           
  4631                           ;mcc_generated_files/pin_manager.c: 103:     INLVLB = 0xF0;
  4632  073E  30F0               	movlw	240
  4633  073F  008D               	movwf	13	;volatile
  4634  0740                     l3446:
  4635                           
  4636                           ;mcc_generated_files/pin_manager.c: 104:     INLVLC = 0xFF;
  4637  0740  30FF               	movlw	255
  4638  0741  008E               	movwf	14	;volatile
  4639  0742                     l3448:
  4640                           
  4641                           ;mcc_generated_files/pin_manager.c: 113:     RXPPS = 0x0D;
  4642  0742  300D               	movlw	13
  4643  0743  003C               	movlb	28	; select bank28
  4644  0744  00A4               	movwf	36	;volatile
  4645  0745                     l3450:
  4646                           
  4647                           ;mcc_generated_files/pin_manager.c: 114:     SSP1CLKPPS = 0x12;
  4648  0745  3012               	movlw	18
  4649  0746  00A0               	movwf	32	;volatile
  4650  0747                     l3452:
  4651                           
  4652                           ;mcc_generated_files/pin_manager.c: 115:     RB7PPS = 0x14;
  4653  0747  3014               	movlw	20
  4654  0748  003D               	movlb	29	; select bank29
  4655  0749  009F               	movwf	31	;volatile
  4656  074A                     l3454:
  4657                           
  4658                           ;mcc_generated_files/pin_manager.c: 116:     RC1PPS = 0x19;
  4659  074A  3019               	movlw	25
  4660  074B  00A1               	movwf	33	;volatile
  4661  074C                     l3456:
  4662                           
  4663                           ;mcc_generated_files/pin_manager.c: 117:     RC2PPS = 0x18;
  4664  074C  3018               	movlw	24
  4665  074D  00A2               	movwf	34	;volatile
  4666  074E                     l3458:
  4667                           
  4668                           ;mcc_generated_files/pin_manager.c: 118:     SSP1DATPPS = 0x11;
  4669  074E  3011               	movlw	17
  4670  074F  003C               	movlb	28	; select bank28
  4671  0750  00A1               	movwf	33	;volatile
  4672  0751                     l285:
  4673  0751  0008               	return
  4674  0752                     __end_of_PIN_MANAGER_Initialize:
  4675                           
  4676                           	psect	text6
  4677  0D21                     __ptext6:	
  4678 ;; *************** function _OSCILLATOR_Initialize *****************
  4679 ;; Defined at:
  4680 ;;		line 61 in file "mcc_generated_files/mcc.c"
  4681 ;; Parameters:    Size  Location     Type
  4682 ;;		None
  4683 ;; Auto vars:     Size  Location     Type
  4684 ;;		None
  4685 ;; Return value:  Size  Location     Type
  4686 ;;                  1    wreg      void 
  4687 ;; Registers used:
  4688 ;;		wreg, status,2
  4689 ;; Tracked objects:
  4690 ;;		On entry : 0/0
  4691 ;;		On exit  : 0/0
  4692 ;;		Unchanged: 0/0
  4693 ;; Data sizes:     COMMON   BANK0   BANK1   BANK2   BANK3   BANK4   BANK5   BANK6   BANK7   BANK8   BANK9  BANK10  BANK1
      +1  BANK12
  4694 ;;      Params:         0       0       0       0       0       0       0       0       0       0       0       0       
      +0       0
  4695 ;;      Locals:         0       0       0       0       0       0       0       0       0       0       0       0       
      +0       0
  4696 ;;      Temps:          0       0       0       0       0       0       0       0       0       0       0       0       
      +0       0
  4697 ;;      Totals:         0       0       0       0       0       0       0       0       0       0       0       0       
      +0       0
  4698 ;;Total ram usage:        0 bytes
  4699 ;; Hardware stack levels used: 1
  4700 ;; Hardware stack levels required when called: 7
  4701 ;; This function calls:
  4702 ;;		Nothing
  4703 ;; This function is called by:
  4704 ;;		_SYSTEM_Initialize
  4705 ;; This function uses a non-reentrant model
  4706 ;;
  4707                           
  4708  0D21                     _OSCILLATOR_Initialize:	
  4709                           ;psect for function _OSCILLATOR_Initialize
  4710                           
  4711  0D21                     l3470:	
  4712                           ;incstack = 0
  4713                           ; Regs used in _OSCILLATOR_Initialize: [wreg+status,2]
  4714                           
  4715                           
  4716                           ;mcc_generated_files/mcc.c: 64:     OSCCON1 = 0x60;
  4717  0D21  3060               	movlw	96
  4718  0D22  0032               	movlb	18	; select bank18
  4719  0D23  0099               	movwf	25	;volatile
  4720  0D24                     l3472:
  4721                           
  4722                           ;mcc_generated_files/mcc.c: 66:     OSCCON3 = 0x00;
  4723  0D24  019B               	clrf	27	;volatile
  4724  0D25                     l3474:
  4725                           
  4726                           ;mcc_generated_files/mcc.c: 68:     OSCEN = 0x00;
  4727  0D25  019D               	clrf	29	;volatile
  4728                           
  4729                           ;mcc_generated_files/mcc.c: 70:     OSCFRQ = 0x07;
  4730  0D26  3007               	movlw	7
  4731  0D27  009F               	movwf	31	;volatile
  4732  0D28                     l3476:
  4733                           
  4734                           ;mcc_generated_files/mcc.c: 72:     OSCTUNE = 0x00;
  4735  0D28  019E               	clrf	30	;volatile
  4736  0D29                     l332:
  4737  0D29  0008               	return
  4738  0D2A                     __end_of_OSCILLATOR_Initialize:
  4739                           
  4740                           	psect	text7
  4741  0D18                     __ptext7:	
  4742 ;; *************** function _I2C1_Initialize *****************
  4743 ;; Defined at:
  4744 ;;		line 167 in file "mcc_generated_files/i2c1_master.c"
  4745 ;; Parameters:    Size  Location     Type
  4746 ;;		None
  4747 ;; Auto vars:     Size  Location     Type
  4748 ;;		None
  4749 ;; Return value:  Size  Location     Type
  4750 ;;                  1    wreg      void 
  4751 ;; Registers used:
  4752 ;;		wreg, status,2
  4753 ;; Tracked objects:
  4754 ;;		On entry : 0/0
  4755 ;;		On exit  : 0/0
  4756 ;;		Unchanged: 0/0
  4757 ;; Data sizes:     COMMON   BANK0   BANK1   BANK2   BANK3   BANK4   BANK5   BANK6   BANK7   BANK8   BANK9  BANK10  BANK1
      +1  BANK12
  4758 ;;      Params:         0       0       0       0       0       0       0       0       0       0       0       0       
      +0       0
  4759 ;;      Locals:         0       0       0       0       0       0       0       0       0       0       0       0       
      +0       0
  4760 ;;      Temps:          0       0       0       0       0       0       0       0       0       0       0       0       
      +0       0
  4761 ;;      Totals:         0       0       0       0       0       0       0       0       0       0       0       0       
      +0       0
  4762 ;;Total ram usage:        0 bytes
  4763 ;; Hardware stack levels used: 1
  4764 ;; Hardware stack levels required when called: 7
  4765 ;; This function calls:
  4766 ;;		Nothing
  4767 ;; This function is called by:
  4768 ;;		_SYSTEM_Initialize
  4769 ;; This function uses a non-reentrant model
  4770 ;;
  4771                           
  4772  0D18                     _I2C1_Initialize:	
  4773                           ;psect for function _I2C1_Initialize
  4774                           
  4775  0D18                     l3462:	
  4776                           ;incstack = 0
  4777                           ; Regs used in _I2C1_Initialize: [wreg+status,2]
  4778                           
  4779                           
  4780                           ;mcc_generated_files/i2c1_master.c: 169:     SSP1STAT = 0x00;
  4781  0D18  0024               	movlb	4	; select bank4
  4782  0D19  0194               	clrf	20	;volatile
  4783  0D1A                     l3464:
  4784                           
  4785                           ;mcc_generated_files/i2c1_master.c: 170:     SSP1CON1 = 0x08;
  4786  0D1A  3008               	movlw	8
  4787  0D1B  0095               	movwf	21	;volatile
  4788  0D1C                     l3466:
  4789                           
  4790                           ;mcc_generated_files/i2c1_master.c: 171:     SSP1CON2 = 0x00;
  4791  0D1C  0196               	clrf	22	;volatile
  4792                           
  4793                           ;mcc_generated_files/i2c1_master.c: 172:     SSP1ADD = 0x4F;
  4794  0D1D  304F               	movlw	79
  4795  0D1E  0092               	movwf	18	;volatile
  4796  0D1F                     l3468:
  4797                           
  4798                           ;mcc_generated_files/i2c1_master.c: 173:     SSP1CON1bits.SSPEN = 0;
  4799  0D1F  1295               	bcf	21,5	;volatile
  4800  0D20                     l539:
  4801  0D20  0008               	return
  4802  0D21                     __end_of_I2C1_Initialize:
  4803                           
  4804                           	psect	text8
  4805  0F01                     __ptext8:	
  4806 ;; *************** function _EUSART_Initialize *****************
  4807 ;; Defined at:
  4808 ;;		line 66 in file "mcc_generated_files/eusart.c"
  4809 ;; Parameters:    Size  Location     Type
  4810 ;;		None
  4811 ;; Auto vars:     Size  Location     Type
  4812 ;;		None
  4813 ;; Return value:  Size  Location     Type
  4814 ;;                  1    wreg      void 
  4815 ;; Registers used:
  4816 ;;		wreg, status,2, status,0, pclath, cstack
  4817 ;; Tracked objects:
  4818 ;;		On entry : 0/0
  4819 ;;		On exit  : 0/0
  4820 ;;		Unchanged: 0/0
  4821 ;; Data sizes:     COMMON   BANK0   BANK1   BANK2   BANK3   BANK4   BANK5   BANK6   BANK7   BANK8   BANK9  BANK10  BANK1
      +1  BANK12
  4822 ;;      Params:         0       0       0       0       0       0       0       0       0       0       0       0       
      +0       0
  4823 ;;      Locals:         0       0       0       0       0       0       0       0       0       0       0       0       
      +0       0
  4824 ;;      Temps:          0       0       0       0       0       0       0       0       0       0       0       0       
      +0       0
  4825 ;;      Totals:         0       0       0       0       0       0       0       0       0       0       0       0       
      +0       0
  4826 ;;Total ram usage:        0 bytes
  4827 ;; Hardware stack levels used: 1
  4828 ;; Hardware stack levels required when called: 8
  4829 ;; This function calls:
  4830 ;;		_EUSART_SetErrorHandler
  4831 ;;		_EUSART_SetFramingErrorHandler
  4832 ;;		_EUSART_SetOverrunErrorHandler
  4833 ;; This function is called by:
  4834 ;;		_SYSTEM_Initialize
  4835 ;; This function uses a non-reentrant model
  4836 ;;
  4837                           
  4838  0F01                     _EUSART_Initialize:	
  4839                           ;psect for function _EUSART_Initialize
  4840                           
  4841  0F01                     l3480:	
  4842                           ;incstack = 0
  4843                           ; Regs used in _EUSART_Initialize: [wreg+status,2+status,0+pclath+cstack]
  4844                           
  4845                           
  4846                           ;mcc_generated_files/eusart.c: 71:     BAUD1CON = 0x08;
  4847  0F01  3008               	movlw	8
  4848  0F02  0023               	movlb	3	; select bank3
  4849  0F03  009F               	movwf	31	;volatile
  4850                           
  4851                           ;mcc_generated_files/eusart.c: 74:     RC1STA = 0x90;
  4852  0F04  3090               	movlw	144
  4853  0F05  009D               	movwf	29	;volatile
  4854                           
  4855                           ;mcc_generated_files/eusart.c: 77:     TX1STA = 0x24;
  4856  0F06  3024               	movlw	36
  4857  0F07  009E               	movwf	30	;volatile
  4858                           
  4859                           ;mcc_generated_files/eusart.c: 80:     SP1BRGL = 0x40;
  4860  0F08  3040               	movlw	64
  4861  0F09  009B               	movwf	27	;volatile
  4862                           
  4863                           ;mcc_generated_files/eusart.c: 83:     SP1BRGH = 0x03;
  4864  0F0A  3003               	movlw	3
  4865  0F0B  009C               	movwf	28	;volatile
  4866  0F0C                     l3482:
  4867                           
  4868                           ;mcc_generated_files/eusart.c: 86:     EUSART_SetFramingErrorHandler(EUSART_DefaultFrami
      +                          ngErrorHandler);
  4869  0F0C  3000               	movlw	0
  4870  0F0D  0020               	movlb	0	; select bank0
  4871  0F0E  00A3               	movwf	EUSART_SetFramingErrorHandler@interruptHandler
  4872  0F0F  3000               	movlw	0
  4873  0F10  00A4               	movwf	EUSART_SetFramingErrorHandler@interruptHandler+1
  4874  0F11  318D  2506  318F   	fcall	_EUSART_SetFramingErrorHandler
  4875  0F14                     l3484:
  4876                           
  4877                           ;mcc_generated_files/eusart.c: 87:     EUSART_SetOverrunErrorHandler(EUSART_DefaultOverr
      +                          unErrorHandler);
  4878  0F14  3000               	movlw	0
  4879  0F15  0020               	movlb	0	; select bank0
  4880  0F16  00A3               	movwf	EUSART_SetOverrunErrorHandler@interruptHandler
  4881  0F17  3000               	movlw	0
  4882  0F18  00A4               	movwf	EUSART_SetOverrunErrorHandler@interruptHandler+1
  4883  0F19  318D  250F  318F   	fcall	_EUSART_SetOverrunErrorHandler
  4884  0F1C                     l3486:
  4885                           
  4886                           ;mcc_generated_files/eusart.c: 88:     EUSART_SetErrorHandler(EUSART_DefaultErrorHandler
      +                          );
  4887  0F1C  3000               	movlw	0
  4888  0F1D  0020               	movlb	0	; select bank0
  4889  0F1E  00A3               	movwf	EUSART_SetErrorHandler@interruptHandler
  4890  0F1F  3000               	movlw	0
  4891  0F20  00A4               	movwf	EUSART_SetErrorHandler@interruptHandler+1
  4892  0F21  318C  24FD  318F   	fcall	_EUSART_SetErrorHandler
  4893  0F24                     l3488:
  4894                           
  4895                           ;mcc_generated_files/eusart.c: 90:     eusartRxLastError.status = 0;
  4896  0F24  0021               	movlb	1	; select bank1
  4897  0F25  01C5               	clrf	_eusartRxLastError^(0+128)	;volatile
  4898  0F26                     l381:
  4899  0F26  0008               	return
  4900  0F27                     __end_of_EUSART_Initialize:
  4901                           
  4902                           	psect	text9
  4903  0D0F                     __ptext9:	
  4904 ;; *************** function _EUSART_SetOverrunErrorHandler *****************
  4905 ;; Defined at:
  4906 ;;		line 170 in file "mcc_generated_files/eusart.c"
  4907 ;; Parameters:    Size  Location     Type
  4908 ;;  interruptHan    2    3[BANK0 ] PTR FTN()void 
  4909 ;;		 -> EUSART_DefaultOverrunErrorHandler(1), 
  4910 ;; Auto vars:     Size  Location     Type
  4911 ;;		None
  4912 ;; Return value:  Size  Location     Type
  4913 ;;                  1    wreg      void 
  4914 ;; Registers used:
  4915 ;;		wreg
  4916 ;; Tracked objects:
  4917 ;;		On entry : 0/0
  4918 ;;		On exit  : 0/0
  4919 ;;		Unchanged: 0/0
  4920 ;; Data sizes:     COMMON   BANK0   BANK1   BANK2   BANK3   BANK4   BANK5   BANK6   BANK7   BANK8   BANK9  BANK10  BANK1
      +1  BANK12
  4921 ;;      Params:         0       2       0       0       0       0       0       0       0       0       0       0       
      +0       0
  4922 ;;      Locals:         0       0       0       0       0       0       0       0       0       0       0       0       
      +0       0
  4923 ;;      Temps:          0       0       0       0       0       0       0       0       0       0       0       0       
      +0       0
  4924 ;;      Totals:         0       2       0       0       0       0       0       0       0       0       0       0       
      +0       0
  4925 ;;Total ram usage:        2 bytes
  4926 ;; Hardware stack levels used: 1
  4927 ;; Hardware stack levels required when called: 7
  4928 ;; This function calls:
  4929 ;;		Nothing
  4930 ;; This function is called by:
  4931 ;;		_EUSART_Initialize
  4932 ;; This function uses a non-reentrant model
  4933 ;;
  4934                           
  4935  0D0F                     _EUSART_SetOverrunErrorHandler:	
  4936                           ;psect for function _EUSART_SetOverrunErrorHandler
  4937                           
  4938  0D0F                     l3210:	
  4939                           ;incstack = 0
  4940                           ; Regs used in _EUSART_SetOverrunErrorHandler: [wreg]
  4941                           
  4942                           
  4943                           ;mcc_generated_files/eusart.c: 171:     EUSART_OverrunErrorHandler = interruptHandler;
  4944  0D0F  0020               	movlb	0	; select bank0
  4945  0D10  0824               	movf	EUSART_SetOverrunErrorHandler@interruptHandler+1,w
  4946  0D11  0021               	movlb	1	; select bank1
  4947  0D12  00EC               	movwf	(_EUSART_OverrunErrorHandler+1)^(0+128)
  4948  0D13  0020               	movlb	0	; select bank0
  4949  0D14  0823               	movf	EUSART_SetOverrunErrorHandler@interruptHandler,w
  4950  0D15  0021               	movlb	1	; select bank1
  4951  0D16  00EB               	movwf	_EUSART_OverrunErrorHandler^(0+128)
  4952  0D17                     l429:
  4953  0D17  0008               	return
  4954  0D18                     __end_of_EUSART_SetOverrunErrorHandler:
  4955                           
  4956                           	psect	text10
  4957  0D06                     __ptext10:	
  4958 ;; *************** function _EUSART_SetFramingErrorHandler *****************
  4959 ;; Defined at:
  4960 ;;		line 166 in file "mcc_generated_files/eusart.c"
  4961 ;; Parameters:    Size  Location     Type
  4962 ;;  interruptHan    2    3[BANK0 ] PTR FTN()void 
  4963 ;;		 -> EUSART_DefaultFramingErrorHandler(1), 
  4964 ;; Auto vars:     Size  Location     Type
  4965 ;;		None
  4966 ;; Return value:  Size  Location     Type
  4967 ;;                  1    wreg      void 
  4968 ;; Registers used:
  4969 ;;		wreg
  4970 ;; Tracked objects:
  4971 ;;		On entry : 0/0
  4972 ;;		On exit  : 0/0
  4973 ;;		Unchanged: 0/0
  4974 ;; Data sizes:     COMMON   BANK0   BANK1   BANK2   BANK3   BANK4   BANK5   BANK6   BANK7   BANK8   BANK9  BANK10  BANK1
      +1  BANK12
  4975 ;;      Params:         0       2       0       0       0       0       0       0       0       0       0       0       
      +0       0
  4976 ;;      Locals:         0       0       0       0       0       0       0       0       0       0       0       0       
      +0       0
  4977 ;;      Temps:          0       0       0       0       0       0       0       0       0       0       0       0       
      +0       0
  4978 ;;      Totals:         0       2       0       0       0       0       0       0       0       0       0       0       
      +0       0
  4979 ;;Total ram usage:        2 bytes
  4980 ;; Hardware stack levels used: 1
  4981 ;; Hardware stack levels required when called: 7
  4982 ;; This function calls:
  4983 ;;		Nothing
  4984 ;; This function is called by:
  4985 ;;		_EUSART_Initialize
  4986 ;; This function uses a non-reentrant model
  4987 ;;
  4988                           
  4989  0D06                     _EUSART_SetFramingErrorHandler:	
  4990                           ;psect for function _EUSART_SetFramingErrorHandler
  4991                           
  4992  0D06                     l3208:	
  4993                           ;incstack = 0
  4994                           ; Regs used in _EUSART_SetFramingErrorHandler: [wreg]
  4995                           
  4996                           
  4997                           ;mcc_generated_files/eusart.c: 167:     EUSART_FramingErrorHandler = interruptHandler;
  4998  0D06  0020               	movlb	0	; select bank0
  4999  0D07  0824               	movf	EUSART_SetFramingErrorHandler@interruptHandler+1,w
  5000  0D08  0021               	movlb	1	; select bank1
  5001  0D09  00EE               	movwf	(_EUSART_FramingErrorHandler+1)^(0+128)
  5002  0D0A  0020               	movlb	0	; select bank0
  5003  0D0B  0823               	movf	EUSART_SetFramingErrorHandler@interruptHandler,w
  5004  0D0C  0021               	movlb	1	; select bank1
  5005  0D0D  00ED               	movwf	_EUSART_FramingErrorHandler^(0+128)
  5006  0D0E                     l426:
  5007  0D0E  0008               	return
  5008  0D0F                     __end_of_EUSART_SetFramingErrorHandler:
  5009                           
  5010                           	psect	text11
  5011  0CFD                     __ptext11:	
  5012 ;; *************** function _EUSART_SetErrorHandler *****************
  5013 ;; Defined at:
  5014 ;;		line 174 in file "mcc_generated_files/eusart.c"
  5015 ;; Parameters:    Size  Location     Type
  5016 ;;  interruptHan    2    3[BANK0 ] PTR FTN()void 
  5017 ;;		 -> EUSART_DefaultErrorHandler(1), 
  5018 ;; Auto vars:     Size  Location     Type
  5019 ;;		None
  5020 ;; Return value:  Size  Location     Type
  5021 ;;                  1    wreg      void 
  5022 ;; Registers used:
  5023 ;;		wreg
  5024 ;; Tracked objects:
  5025 ;;		On entry : 0/0
  5026 ;;		On exit  : 0/0
  5027 ;;		Unchanged: 0/0
  5028 ;; Data sizes:     COMMON   BANK0   BANK1   BANK2   BANK3   BANK4   BANK5   BANK6   BANK7   BANK8   BANK9  BANK10  BANK1
      +1  BANK12
  5029 ;;      Params:         0       2       0       0       0       0       0       0       0       0       0       0       
      +0       0
  5030 ;;      Locals:         0       0       0       0       0       0       0       0       0       0       0       0       
      +0       0
  5031 ;;      Temps:          0       0       0       0       0       0       0       0       0       0       0       0       
      +0       0
  5032 ;;      Totals:         0       2       0       0       0       0       0       0       0       0       0       0       
      +0       0
  5033 ;;Total ram usage:        2 bytes
  5034 ;; Hardware stack levels used: 1
  5035 ;; Hardware stack levels required when called: 7
  5036 ;; This function calls:
  5037 ;;		Nothing
  5038 ;; This function is called by:
  5039 ;;		_EUSART_Initialize
  5040 ;; This function uses a non-reentrant model
  5041 ;;
  5042                           
  5043  0CFD                     _EUSART_SetErrorHandler:	
  5044                           ;psect for function _EUSART_SetErrorHandler
  5045                           
  5046  0CFD                     l3212:	
  5047                           ;incstack = 0
  5048                           ; Regs used in _EUSART_SetErrorHandler: [wreg]
  5049                           
  5050                           
  5051                           ;mcc_generated_files/eusart.c: 175:     EUSART_ErrorHandler = interruptHandler;
  5052  0CFD  0020               	movlb	0	; select bank0
  5053  0CFE  0824               	movf	EUSART_SetErrorHandler@interruptHandler+1,w
  5054  0CFF  0021               	movlb	1	; select bank1
  5055  0D00  00EA               	movwf	(_EUSART_ErrorHandler+1)^(0+128)
  5056  0D01  0020               	movlb	0	; select bank0
  5057  0D02  0823               	movf	EUSART_SetErrorHandler@interruptHandler,w
  5058  0D03  0021               	movlb	1	; select bank1
  5059  0D04  00E9               	movwf	_EUSART_ErrorHandler^(0+128)
  5060  0D05                     l432:
  5061  0D05  0008               	return
  5062  0D06                     __end_of_EUSART_SetErrorHandler:
  5063                           
  5064                           	psect	text12
  5065  049B                     __ptext12:	
  5066 ;; *************** function _I2CSIMPLE_example *****************
  5067 ;; Defined at:
  5068 ;;		line 98 in file "mcc_generated_files/examples/i2c_simple_example.c"
  5069 ;; Parameters:    Size  Location     Type
  5070 ;;		None
  5071 ;; Auto vars:     Size  Location     Type
  5072 ;;  total_z         2   25[BANK1 ] short 
  5073 ;;  total_y         2   23[BANK1 ] short 
  5074 ;;  total_x         2   21[BANK1 ] short 
  5075 ;; Return value:  Size  Location     Type
  5076 ;;                  1    wreg      void 
  5077 ;; Registers used:
  5078 ;;		wreg, fsr0l, fsr0h, fsr1l, fsr1h, status,2, status,0, pclath, cstack
  5079 ;; Tracked objects:
  5080 ;;		On entry : 0/0
  5081 ;;		On exit  : 0/0
  5082 ;;		Unchanged: 0/0
  5083 ;; Data sizes:     COMMON   BANK0   BANK1   BANK2   BANK3   BANK4   BANK5   BANK6   BANK7   BANK8   BANK9  BANK10  BANK1
      +1  BANK12
  5084 ;;      Params:         0       0       0       0       0       0       0       0       0       0       0       0       
      +0       0
  5085 ;;      Locals:         0       0       6       0       0       0       0       0       0       0       0       0       
      +0       0
  5086 ;;      Temps:          0       0       5       0       0       0       0       0       0       0       0       0       
      +0       0
  5087 ;;      Totals:         0       0      11       0       0       0       0       0       0       0       0       0       
      +0       0
  5088 ;;Total ram usage:       11 bytes
  5089 ;; Hardware stack levels used: 1
  5090 ;; Hardware stack levels required when called: 16
  5091 ;; This function calls:
  5092 ;;		_i2c_read1ByteRegister
  5093 ;;		_printf
  5094 ;; This function is called by:
  5095 ;;		_main
  5096 ;; This function uses a non-reentrant model
  5097 ;;
  5098                           
  5099  049B                     _I2CSIMPLE_example:	
  5100                           ;psect for function _I2CSIMPLE_example
  5101                           
  5102  049B                     l4130:	
  5103                           ;incstack = 0
  5104 ;; hardware stack exceeded
  5105                           ; Regs used in _I2CSIMPLE_example: [wreg-fsr1h+status,2+status,0+pclath+cstack]
  5106                           
  5107                           
  5108                           ;mcc_generated_files/examples/i2c_simple_example.c: 112:     receiveDataxl = i2c_read1By
      +                          teRegister(0x6B, 0x28);
  5109  049B  3028               	movlw	40
  5110  049C  0021               	movlb	1	; select bank1
  5111  049D  00DC               	movwf	??_I2CSIMPLE_example^(0+128)
  5112  049E  085C               	movf	??_I2CSIMPLE_example^(0+128),w
  5113  049F  0020               	movlb	0	; select bank0
  5114  04A0  00AC               	movwf	i2c_read1ByteRegister@reg
  5115  04A1  306B               	movlw	107
  5116  04A2  3185  25F3  3184   	fcall	_i2c_read1ByteRegister
  5117  04A5  0021               	movlb	1	; select bank1
  5118  04A6  00DD               	movwf	(??_I2CSIMPLE_example+1)^(0+128)
  5119  04A7  085D               	movf	(??_I2CSIMPLE_example+1)^(0+128),w
  5120  04A8  00CB               	movwf	_receiveDataxl^(0+128)
  5121                           
  5122                           ;mcc_generated_files/examples/i2c_simple_example.c: 113:     receiveDataxh = i2c_read1By
      +                          teRegister(0x6B, 0x29);
  5123  04A9  3029               	movlw	41
  5124  04AA  00DC               	movwf	??_I2CSIMPLE_example^(0+128)
  5125  04AB  085C               	movf	??_I2CSIMPLE_example^(0+128),w
  5126  04AC  0020               	movlb	0	; select bank0
  5127  04AD  00AC               	movwf	i2c_read1ByteRegister@reg
  5128  04AE  306B               	movlw	107
  5129  04AF  3185  25F3  3184   	fcall	_i2c_read1ByteRegister
  5130  04B2  0021               	movlb	1	; select bank1
  5131  04B3  00DD               	movwf	(??_I2CSIMPLE_example+1)^(0+128)
  5132  04B4  085D               	movf	(??_I2CSIMPLE_example+1)^(0+128),w
  5133  04B5  00CA               	movwf	_receiveDataxh^(0+128)
  5134                           
  5135                           ;mcc_generated_files/examples/i2c_simple_example.c: 115:     receiveDatayl = i2c_read1By
      +                          teRegister(0x6B, 0x2A);
  5136  04B6  302A               	movlw	42
  5137  04B7  00DC               	movwf	??_I2CSIMPLE_example^(0+128)
  5138  04B8  085C               	movf	??_I2CSIMPLE_example^(0+128),w
  5139  04B9  0020               	movlb	0	; select bank0
  5140  04BA  00AC               	movwf	i2c_read1ByteRegister@reg
  5141  04BB  306B               	movlw	107
  5142  04BC  3185  25F3  3184   	fcall	_i2c_read1ByteRegister
  5143  04BF  0021               	movlb	1	; select bank1
  5144  04C0  00DD               	movwf	(??_I2CSIMPLE_example+1)^(0+128)
  5145  04C1  085D               	movf	(??_I2CSIMPLE_example+1)^(0+128),w
  5146  04C2  00C9               	movwf	_receiveDatayl^(0+128)
  5147                           
  5148                           ;mcc_generated_files/examples/i2c_simple_example.c: 116:     receiveDatayh = i2c_read1By
      +                          teRegister(0x6B, 0x2B);
  5149  04C3  302B               	movlw	43
  5150  04C4  00DC               	movwf	??_I2CSIMPLE_example^(0+128)
  5151  04C5  085C               	movf	??_I2CSIMPLE_example^(0+128),w
  5152  04C6  0020               	movlb	0	; select bank0
  5153  04C7  00AC               	movwf	i2c_read1ByteRegister@reg
  5154  04C8  306B               	movlw	107
  5155  04C9  3185  25F3  3184   	fcall	_i2c_read1ByteRegister
  5156  04CC  0021               	movlb	1	; select bank1
  5157  04CD  00DD               	movwf	(??_I2CSIMPLE_example+1)^(0+128)
  5158  04CE  085D               	movf	(??_I2CSIMPLE_example+1)^(0+128),w
  5159  04CF  00C8               	movwf	_receiveDatayh^(0+128)
  5160                           
  5161                           ;mcc_generated_files/examples/i2c_simple_example.c: 118:     receiveDatazl = i2c_read1By
      +                          teRegister(0x6B, 0x2C);
  5162  04D0  302C               	movlw	44
  5163  04D1  00DC               	movwf	??_I2CSIMPLE_example^(0+128)
  5164  04D2  085C               	movf	??_I2CSIMPLE_example^(0+128),w
  5165  04D3  0020               	movlb	0	; select bank0
  5166  04D4  00AC               	movwf	i2c_read1ByteRegister@reg
  5167  04D5  306B               	movlw	107
  5168  04D6  3185  25F3  3184   	fcall	_i2c_read1ByteRegister
  5169  04D9  0021               	movlb	1	; select bank1
  5170  04DA  00DD               	movwf	(??_I2CSIMPLE_example+1)^(0+128)
  5171  04DB  085D               	movf	(??_I2CSIMPLE_example+1)^(0+128),w
  5172  04DC  00C7               	movwf	_receiveDatazl^(0+128)
  5173                           
  5174                           ;mcc_generated_files/examples/i2c_simple_example.c: 119:     receiveDatazh = i2c_read1By
      +                          teRegister(0x6B, 0x2D);
  5175  04DD  302D               	movlw	45
  5176  04DE  00DC               	movwf	??_I2CSIMPLE_example^(0+128)
  5177  04DF  085C               	movf	??_I2CSIMPLE_example^(0+128),w
  5178  04E0  0020               	movlb	0	; select bank0
  5179  04E1  00AC               	movwf	i2c_read1ByteRegister@reg
  5180  04E2  306B               	movlw	107
  5181  04E3  3185  25F3  3184   	fcall	_i2c_read1ByteRegister
  5182  04E6  0021               	movlb	1	; select bank1
  5183  04E7  00DD               	movwf	(??_I2CSIMPLE_example+1)^(0+128)
  5184  04E8  085D               	movf	(??_I2CSIMPLE_example+1)^(0+128),w
  5185  04E9  00C6               	movwf	_receiveDatazh^(0+128)
  5186  04EA                     l4132:
  5187                           
  5188                           ;mcc_generated_files/examples/i2c_simple_example.c: 120:     int16_t total_x = (receiveD
      +                          ataxh<<8 )+ receiveDataxl;
  5189  04EA  084B               	movf	_receiveDataxl^(0+128),w
  5190  04EB  00DC               	movwf	??_I2CSIMPLE_example^(0+128)
  5191  04EC  01DD               	clrf	(??_I2CSIMPLE_example^(0+128)+1)
  5192  04ED  084A               	movf	_receiveDataxh^(0+128),w
  5193  04EE  00DE               	movwf	(??_I2CSIMPLE_example+2)^(0+128)
  5194  04EF  01DF               	clrf	((??_I2CSIMPLE_example+2)^(0+128)+1)
  5195  04F0  085E               	movf	(??_I2CSIMPLE_example+2)^(0+128),w
  5196  04F1  00DF               	movwf	((??_I2CSIMPLE_example+2)^(0+128)+1)
  5197  04F2  01DE               	clrf	(??_I2CSIMPLE_example+2)^(0+128)
  5198  04F3  085C               	movf	??_I2CSIMPLE_example^(0+128),w
  5199  04F4  075E               	addwf	(??_I2CSIMPLE_example+2)^(0+128),w
  5200  04F5  00E1               	movwf	I2CSIMPLE_example@total_x^(0+128)
  5201  04F6  085D               	movf	(??_I2CSIMPLE_example+1)^(0+128),w
  5202  04F7  3D5F               	addwfc	(??_I2CSIMPLE_example+3)^(0+128),w
  5203  04F8  00E2               	movwf	(I2CSIMPLE_example@total_x+1)^(0+128)
  5204  04F9                     l4134:
  5205                           
  5206                           ;mcc_generated_files/examples/i2c_simple_example.c: 121:     int16_t total_y = (receiveD
      +                          atayh<<8 )+ receiveDatayl;
  5207  04F9  0849               	movf	_receiveDatayl^(0+128),w
  5208  04FA  00DC               	movwf	??_I2CSIMPLE_example^(0+128)
  5209  04FB  01DD               	clrf	(??_I2CSIMPLE_example^(0+128)+1)
  5210  04FC  0848               	movf	_receiveDatayh^(0+128),w
  5211  04FD  00DE               	movwf	(??_I2CSIMPLE_example+2)^(0+128)
  5212  04FE  01DF               	clrf	((??_I2CSIMPLE_example+2)^(0+128)+1)
  5213  04FF  085E               	movf	(??_I2CSIMPLE_example+2)^(0+128),w
  5214  0500  00DF               	movwf	((??_I2CSIMPLE_example+2)^(0+128)+1)
  5215  0501  01DE               	clrf	(??_I2CSIMPLE_example+2)^(0+128)
  5216  0502  085C               	movf	??_I2CSIMPLE_example^(0+128),w
  5217  0503  075E               	addwf	(??_I2CSIMPLE_example+2)^(0+128),w
  5218  0504  00E3               	movwf	I2CSIMPLE_example@total_y^(0+128)
  5219  0505  085D               	movf	(??_I2CSIMPLE_example+1)^(0+128),w
  5220  0506  3D5F               	addwfc	(??_I2CSIMPLE_example+3)^(0+128),w
  5221  0507  00E4               	movwf	(I2CSIMPLE_example@total_y+1)^(0+128)
  5222  0508                     l4136:
  5223                           
  5224                           ;mcc_generated_files/examples/i2c_simple_example.c: 122:     int16_t total_z = (receiveD
      +                          atazh<<8 )+ receiveDatazl;
  5225  0508  0847               	movf	_receiveDatazl^(0+128),w
  5226  0509  00DC               	movwf	??_I2CSIMPLE_example^(0+128)
  5227  050A  01DD               	clrf	(??_I2CSIMPLE_example^(0+128)+1)
  5228  050B  0846               	movf	_receiveDatazh^(0+128),w
  5229  050C  00DE               	movwf	(??_I2CSIMPLE_example+2)^(0+128)
  5230  050D  01DF               	clrf	((??_I2CSIMPLE_example+2)^(0+128)+1)
  5231  050E  085E               	movf	(??_I2CSIMPLE_example+2)^(0+128),w
  5232  050F  00DF               	movwf	((??_I2CSIMPLE_example+2)^(0+128)+1)
  5233  0510  01DE               	clrf	(??_I2CSIMPLE_example+2)^(0+128)
  5234  0511  085C               	movf	??_I2CSIMPLE_example^(0+128),w
  5235  0512  075E               	addwf	(??_I2CSIMPLE_example+2)^(0+128),w
  5236  0513  00E5               	movwf	I2CSIMPLE_example@total_z^(0+128)
  5237  0514  085D               	movf	(??_I2CSIMPLE_example+1)^(0+128),w
  5238  0515  3D5F               	addwfc	(??_I2CSIMPLE_example+3)^(0+128),w
  5239  0516  00E6               	movwf	(I2CSIMPLE_example@total_z+1)^(0+128)
  5240  0517                     l4138:
  5241                           
  5242                           ;mcc_generated_files/examples/i2c_simple_example.c: 126:     _delay((unsigned long)((100
      +                          )*(32000000/4000.0)));
  5243  0517  3005               	movlw	5
  5244  0518  0021               	movlb	1	; select bank1
  5245  0519  00DD               	movwf	(??_I2CSIMPLE_example^(0+128)+1)
  5246  051A  300F               	movlw	15
  5247  051B  00DC               	movwf	??_I2CSIMPLE_example^(0+128)
  5248  051C  30F1               	movlw	241
  5249  051D                     u2717:
  5250  051D  0B89               	decfsz	9,f
  5251  051E  2D1D               	goto	u2717
  5252  051F  0BDC               	decfsz	??_I2CSIMPLE_example^(0+128),f
  5253  0520  2D1D               	goto	u2717
  5254  0521  0BDD               	decfsz	(??_I2CSIMPLE_example^(0+128)+1),f
  5255  0522  2D1D               	goto	u2717
  5256  0523                     l4140:
  5257                           
  5258                           ;mcc_generated_files/examples/i2c_simple_example.c: 139:     printf(" X: %d\n\r",total_x
      +                          );
  5259  0523  3020               	movlw	low (STR_1| (0+32768))
  5260  0524  0021               	movlb	1	; select bank1
  5261  0525  00D8               	movwf	printf@fmt^(0+128)
  5262  0526  3090               	movlw	high (STR_1| (0+32768))
  5263  0527  00D9               	movwf	(printf@fmt^(0+128)+1)
  5264  0528  0862               	movf	(I2CSIMPLE_example@total_x+1)^(0+128),w
  5265  0529  00DB               	movwf	((?_printf+1)^(0+128)+2)
  5266  052A  0861               	movf	I2CSIMPLE_example@total_x^(0+128),w
  5267  052B  00DA               	movwf	(?_printf^(0+128)+2)
  5268  052C  318E  2607  3184   	fcall	_printf
  5269  052F                     l4142:
  5270                           
  5271                           ;mcc_generated_files/examples/i2c_simple_example.c: 140:     printf(" Y: %d\n\r",total_y
      +                          );
  5272  052F  3029               	movlw	low (STR_2| (0+32768))
  5273  0530  0021               	movlb	1	; select bank1
  5274  0531  00D8               	movwf	printf@fmt^(0+128)
  5275  0532  3090               	movlw	high (STR_2| (0+32768))
  5276  0533  00D9               	movwf	(printf@fmt^(0+128)+1)
  5277  0534  0864               	movf	(I2CSIMPLE_example@total_y+1)^(0+128),w
  5278  0535  00DB               	movwf	((?_printf+1)^(0+128)+2)
  5279  0536  0863               	movf	I2CSIMPLE_example@total_y^(0+128),w
  5280  0537  00DA               	movwf	(?_printf^(0+128)+2)
  5281  0538  318E  2607  3184   	fcall	_printf
  5282  053B                     l4144:
  5283                           
  5284                           ;mcc_generated_files/examples/i2c_simple_example.c: 141:     printf(" Z: %d\n\r",total_z
      +                          );
  5285  053B  3032               	movlw	low (STR_3| (0+32768))
  5286  053C  0021               	movlb	1	; select bank1
  5287  053D  00D8               	movwf	printf@fmt^(0+128)
  5288  053E  3090               	movlw	high (STR_3| (0+32768))
  5289  053F  00D9               	movwf	(printf@fmt^(0+128)+1)
  5290  0540  0866               	movf	(I2CSIMPLE_example@total_z+1)^(0+128),w
  5291  0541  00DB               	movwf	((?_printf+1)^(0+128)+2)
  5292  0542  0865               	movf	I2CSIMPLE_example@total_z^(0+128),w
  5293  0543  00DA               	movwf	(?_printf^(0+128)+2)
  5294  0544  318E  2607  3184   	fcall	_printf
  5295  0547                     l228:
  5296  0547  0008               	return
  5297  0548                     __end_of_I2CSIMPLE_example:
  5298                           
  5299                           	psect	text13
  5300  0E07                     __ptext13:	
  5301 ;; *************** function _printf *****************
  5302 ;; Defined at:
  5303 ;;		line 5 in file "C:\Program Files\Microchip\xc8\v2.35\pic\sources\c99\common\printf.c"
  5304 ;; Parameters:    Size  Location     Type
  5305 ;;  fmt             2   12[BANK1 ] PTR const unsigned char 
  5306 ;;		 -> STR_3(9), STR_2(9), STR_1(9), 
  5307 ;; Auto vars:     Size  Location     Type
  5308 ;;  ret             2    0        int 
  5309 ;;  ap              1   73[BANK0 ] PTR void [1]
  5310 ;;		 -> ?_printf(2), 
  5311 ;; Return value:  Size  Location     Type
  5312 ;;                  2   12[BANK1 ] int 
  5313 ;; Registers used:
  5314 ;;		wreg, fsr0l, fsr0h, fsr1l, fsr1h, status,2, status,0, pclath, cstack
  5315 ;; Tracked objects:
  5316 ;;		On entry : 0/0
  5317 ;;		On exit  : 0/0
  5318 ;;		Unchanged: 0/0
  5319 ;; Data sizes:     COMMON   BANK0   BANK1   BANK2   BANK3   BANK4   BANK5   BANK6   BANK7   BANK8   BANK9  BANK10  BANK1
      +1  BANK12
  5320 ;;      Params:         0       0       4       0       0       0       0       0       0       0       0       0       
      +0       0
  5321 ;;      Locals:         0       1       0       0       0       0       0       0       0       0       0       0       
      +0       0
  5322 ;;      Temps:          0       1       0       0       0       0       0       0       0       0       0       0       
      +0       0
  5323 ;;      Totals:         0       2       4       0       0       0       0       0       0       0       0       0       
      +0       0
  5324 ;;Total ram usage:        6 bytes
  5325 ;; Hardware stack levels used: 1
  5326 ;; Hardware stack levels required when called: 15
  5327 ;; This function calls:
  5328 ;;		_vfprintf
  5329 ;; This function is called by:
  5330 ;;		_I2CSIMPLE_example
  5331 ;; This function uses a non-reentrant model
  5332 ;;
  5333                           
  5334  0E07                     _printf:	
  5335                           ;psect for function _printf
  5336                           
  5337  0E07                     l4124:	
  5338                           ;incstack = 0
  5339 ;; hardware stack exceeded
  5340                           ; Regs used in _printf: [wreg-fsr1h+status,2+status,0+pclath+cstack]
  5341                           
  5342  0E07  30DA               	movlw	(low ((?_printf| 0+2)))& (0+255)
  5343  0E08  0020               	movlb	0	; select bank0
  5344  0E09  00E8               	movwf	??_printf
  5345  0E0A  0868               	movf	??_printf,w
  5346  0E0B  00E9               	movwf	printf@ap
  5347  0E0C                     l4126:
  5348  0E0C  0021               	movlb	1	; select bank1
  5349  0E0D  0859               	movf	(printf@fmt+1)^(0+128),w
  5350  0E0E  00D6               	movwf	(vfprintf@fmt+1)^(0+128)
  5351  0E0F  0858               	movf	printf@fmt^(0+128),w
  5352  0E10  00D5               	movwf	vfprintf@fmt^(0+128)
  5353  0E11  3069               	movlw	(low (printf@ap| 0))& (0+255)
  5354  0E12  0020               	movlb	0	; select bank0
  5355  0E13  00E8               	movwf	??_printf
  5356  0E14  0868               	movf	??_printf,w
  5357  0E15  0021               	movlb	1	; select bank1
  5358  0E16  00D7               	movwf	vfprintf@ap^(0+128)
  5359  0E17  3000               	movlw	0
  5360  0E18  3187  27BE  318E   	fcall	_vfprintf
  5361  0E1B                     l1423:
  5362  0E1B  0008               	return
  5363  0E1C                     __end_of_printf:
  5364                           
  5365                           	psect	text14
  5366  07BE                     __ptext14:	
  5367 ;; *************** function _vfprintf *****************
  5368 ;; Defined at:
  5369 ;;		line 1390 in file "C:\Program Files\Microchip\xc8\v2.35\pic\sources\c99\common\doprnt.c"
  5370 ;; Parameters:    Size  Location     Type
  5371 ;;  fp              1    wreg     PTR struct _IO_FILE
  5372 ;;		 -> NULL(0), 
  5373 ;;  fmt             2    9[BANK1 ] PTR const unsigned char 
  5374 ;;		 -> STR_3(9), STR_2(9), STR_1(9), 
  5375 ;;  ap              1   11[BANK1 ] PTR PTR void 
  5376 ;;		 -> printf@ap(1), 
  5377 ;; Auto vars:     Size  Location     Type
  5378 ;;  fp              1   69[BANK0 ] PTR struct _IO_FILE
  5379 ;;		 -> NULL(0), 
  5380 ;;  cfmt            2   70[BANK0 ] PTR unsigned char 
  5381 ;;		 -> STR_3(9), STR_2(9), STR_1(9), 
  5382 ;; Return value:  Size  Location     Type
  5383 ;;                  2    9[BANK1 ] int 
  5384 ;; Registers used:
  5385 ;;		wreg, fsr0l, fsr0h, fsr1l, fsr1h, status,2, status,0, pclath, cstack
  5386 ;; Tracked objects:
  5387 ;;		On entry : 0/0
  5388 ;;		On exit  : 0/0
  5389 ;;		Unchanged: 0/0
  5390 ;; Data sizes:     COMMON   BANK0   BANK1   BANK2   BANK3   BANK4   BANK5   BANK6   BANK7   BANK8   BANK9  BANK10  BANK1
      +1  BANK12
  5391 ;;      Params:         0       0       3       0       0       0       0       0       0       0       0       0       
      +0       0
  5392 ;;      Locals:         0       3       0       0       0       0       0       0       0       0       0       0       
      +0       0
  5393 ;;      Temps:          0       2       0       0       0       0       0       0       0       0       0       0       
      +0       0
  5394 ;;      Totals:         0       5       3       0       0       0       0       0       0       0       0       0       
      +0       0
  5395 ;;Total ram usage:        8 bytes
  5396 ;; Hardware stack levels used: 1
  5397 ;; Hardware stack levels required when called: 14
  5398 ;; This function calls:
  5399 ;;		_vfpfcnvrt
  5400 ;; This function is called by:
  5401 ;;		_printf
  5402 ;; This function uses a non-reentrant model
  5403 ;;
  5404                           
  5405  07BE                     _vfprintf:	
  5406                           ;psect for function _vfprintf
  5407                           
  5408                           
  5409                           ;incstack = 0
  5410 ;; hardware stack exceeded
  5411                           ; Regs used in _vfprintf: [wreg-fsr1h+status,2+status,0+pclath+cstack]
  5412                           ;vfprintf@fp stored from wreg
  5413  07BE  0020               	movlb	0	; select bank0
  5414  07BF  00E5               	movwf	vfprintf@fp
  5415  07C0                     l4112:
  5416                           
  5417                           ;C:\Program Files\Microchip\xc8\v2.35\pic\sources\c99\common\doprnt.c: 1390: int vfprint
      +                          f(FILE *fp, const char *fmt, va_list ap);C:\Program Files\Microchip\xc8\v2.35\pic\source
      +                          s\c99\common\doprnt.c: 1391: {;C:\Program Files\Microchip\xc8\v2.35\pic\sources\c99\comm
      +                          on\doprnt.c: 1393:     char *cfmt;;C:\Program Files\Microchip\xc8\v2.35\pic\sources\c99\
      +                          common\doprnt.c: 1395:     cfmt = (char *)fmt;
  5418  07C0  0021               	movlb	1	; select bank1
  5419  07C1  0856               	movf	(vfprintf@fmt+1)^(0+128),w
  5420  07C2  0020               	movlb	0	; select bank0
  5421  07C3  00E7               	movwf	vfprintf@cfmt+1
  5422  07C4  0021               	movlb	1	; select bank1
  5423  07C5  0855               	movf	vfprintf@fmt^(0+128),w
  5424  07C6  0020               	movlb	0	; select bank0
  5425  07C7  00E6               	movwf	vfprintf@cfmt
  5426  07C8                     l4114:
  5427                           
  5428                           ;C:\Program Files\Microchip\xc8\v2.35\pic\sources\c99\common\doprnt.c: 1396:     nout = 
      +                          0;
  5429  07C8  0021               	movlb	1	; select bank1
  5430  07C9  01BD               	clrf	_nout^(0+128)
  5431  07CA  01BE               	clrf	(_nout+1)^(0+128)
  5432                           
  5433                           ;C:\Program Files\Microchip\xc8\v2.35\pic\sources\c99\common\doprnt.c: 1397:     while (
      +                          *cfmt) {
  5434  07CB  2FE2               	goto	l4118
  5435  07CC                     l4116:
  5436                           
  5437                           ;C:\Program Files\Microchip\xc8\v2.35\pic\sources\c99\common\doprnt.c: 1398:         nou
      +                          t += vfpfcnvrt(fp, &cfmt, ap);
  5438  07CC  3066               	movlw	(low (vfprintf@cfmt| 0))& (0+255)
  5439  07CD  00E3               	movwf	??_vfprintf
  5440  07CE  0863               	movf	??_vfprintf,w
  5441  07CF  00DC               	movwf	vfpfcnvrt@fmt
  5442  07D0  0021               	movlb	1	; select bank1
  5443  07D1  0857               	movf	vfprintf@ap^(0+128),w
  5444  07D2  0020               	movlb	0	; select bank0
  5445  07D3  00E4               	movwf	??_vfprintf+1
  5446  07D4  0864               	movf	??_vfprintf+1,w
  5447  07D5  00DD               	movwf	vfpfcnvrt@ap
  5448  07D6  0865               	movf	vfprintf@fp,w
  5449  07D7  3182  22B9  3187   	fcall	_vfpfcnvrt
  5450  07DA  0020               	movlb	0	; select bank0
  5451  07DB  085C               	movf	?_vfpfcnvrt,w
  5452  07DC  0021               	movlb	1	; select bank1
  5453  07DD  07BD               	addwf	_nout^(0+128),f
  5454  07DE  0020               	movlb	0	; select bank0
  5455  07DF  085D               	movf	?_vfpfcnvrt+1,w
  5456  07E0  0021               	movlb	1	; select bank1
  5457  07E1  3DBE               	addwfc	(_nout+1)^(0+128),f
  5458  07E2                     l4118:
  5459                           
  5460                           ;C:\Program Files\Microchip\xc8\v2.35\pic\sources\c99\common\doprnt.c: 1397:     while (
      +                          *cfmt) {
  5461  07E2  0020               	movlb	0	; select bank0
  5462  07E3  0866               	movf	vfprintf@cfmt,w
  5463  07E4  0084               	movwf	4
  5464  07E5  0867               	movf	vfprintf@cfmt+1,w
  5465  07E6  0085               	movwf	5
  5466  07E7  0012               	moviw fsr0++
  5467  07E8  1D03               	btfss	3,2
  5468  07E9  2FEB               	goto	u2691
  5469  07EA  2FEC               	goto	u2690
  5470  07EB                     u2691:
  5471  07EB  2FCC               	goto	l4116
  5472  07EC                     u2690:
  5473  07EC                     l4120:
  5474                           
  5475                           ;C:\Program Files\Microchip\xc8\v2.35\pic\sources\c99\common\doprnt.c: 1400:     return 
      +                          nout;
  5476  07EC  0021               	movlb	1	; select bank1
  5477  07ED  083E               	movf	(_nout+1)^(0+128),w
  5478  07EE  00D6               	movwf	(?_vfprintf+1)^(0+128)
  5479  07EF  083D               	movf	_nout^(0+128),w
  5480  07F0  00D5               	movwf	?_vfprintf^(0+128)
  5481  07F1                     l1495:
  5482  07F1  0008               	return
  5483  07F2                     __end_of_vfprintf:
  5484                           
  5485                           	psect	text15
  5486  02B9                     __ptext15:	
  5487 ;; *************** function _vfpfcnvrt *****************
  5488 ;; Defined at:
  5489 ;;		line 692 in file "C:\Program Files\Microchip\xc8\v2.35\pic\sources\c99\common\doprnt.c"
  5490 ;; Parameters:    Size  Location     Type
  5491 ;;  fp              1    wreg     PTR struct _IO_FILE
  5492 ;;		 -> NULL(0), 
  5493 ;;  fmt             1   60[BANK0 ] PTR PTR unsigned char 
  5494 ;;		 -> vfprintf@cfmt(2), 
  5495 ;;  ap              1   61[BANK0 ] PTR PTR void 
  5496 ;;		 -> printf@ap(1), 
  5497 ;; Auto vars:     Size  Location     Type
  5498 ;;  fp              1    8[BANK1 ] PTR struct _IO_FILE
  5499 ;;		 -> NULL(0), 
  5500 ;;  ll              8    0[BANK1 ] long long 
  5501 ;;  llu             8    0        unsigned long long 
  5502 ;;  f               4    0        unsigned long long 
  5503 ;;  ct              3    0        unsigned char [3]
  5504 ;;  vp              2    0        PTR void 
  5505 ;;  i               2    0        int 
  5506 ;;  done            2    0        int 
  5507 ;;  cp              2    0        PTR unsigned char 
  5508 ;;  c               1    0        unsigned char 
  5509 ;; Return value:  Size  Location     Type
  5510 ;;                  2   60[BANK0 ] int 
  5511 ;; Registers used:
  5512 ;;		wreg, fsr0l, fsr0h, fsr1l, fsr1h, status,2, status,0, pclath, cstack
  5513 ;; Tracked objects:
  5514 ;;		On entry : 0/0
  5515 ;;		On exit  : 0/0
  5516 ;;		Unchanged: 0/0
  5517 ;; Data sizes:     COMMON   BANK0   BANK1   BANK2   BANK3   BANK4   BANK5   BANK6   BANK7   BANK8   BANK9  BANK10  BANK1
      +1  BANK12
  5518 ;;      Params:         0       2       0       0       0       0       0       0       0       0       0       0       
      +0       0
  5519 ;;      Locals:         0       0       9       0       0       0       0       0       0       0       0       0       
      +0       0
  5520 ;;      Temps:          0       5       0       0       0       0       0       0       0       0       0       0       
      +0       0
  5521 ;;      Totals:         0       7       9       0       0       0       0       0       0       0       0       0       
      +0       0
  5522 ;;Total ram usage:       16 bytes
  5523 ;; Hardware stack levels used: 1
  5524 ;; Hardware stack levels required when called: 13
  5525 ;; This function calls:
  5526 ;;		_dtoa
  5527 ;;		_fputc
  5528 ;; This function is called by:
  5529 ;;		_vfprintf
  5530 ;; This function uses a non-reentrant model
  5531 ;;
  5532                           
  5533  02B9                     _vfpfcnvrt:	
  5534                           ;psect for function _vfpfcnvrt
  5535                           
  5536                           
  5537                           ;incstack = 0
  5538 ;; hardware stack exceeded
  5539                           ; Regs used in _vfpfcnvrt: [wreg-fsr1h+status,2+status,0+pclath+cstack]
  5540                           ;vfpfcnvrt@fp stored from wreg
  5541  02B9  0021               	movlb	1	; select bank1
  5542  02BA  00D4               	movwf	vfpfcnvrt@fp^(0+128)
  5543  02BB                     l4068:
  5544                           
  5545                           ;C:\Program Files\Microchip\xc8\v2.35\pic\sources\c99\common\doprnt.c: 692: static int v
      +                          fpfcnvrt(FILE *fp, char *fmt[], va_list ap);C:\Program Files\Microchip\xc8\v2.35\pic\sou
      +                          rces\c99\common\doprnt.c: 693: {;C:\Program Files\Microchip\xc8\v2.35\pic\sources\c99\co
      +                          mmon\doprnt.c: 694:     char c, *cp, ct[3];;C:\Program Files\Microchip\xc8\v2.35\pic\sou
      +                          rces\c99\common\doprnt.c: 695:     int done, i;;C:\Program Files\Microchip\xc8\v2.35\pic
      +                          \sources\c99\common\doprnt.c: 696:     long long ll;;C:\Program Files\Microchip\xc8\v2.3
      +                          5\pic\sources\c99\common\doprnt.c: 697:     unsigned long long llu;
  5546  02BB  0020               	movlb	0	; select bank0
  5547  02BC  085C               	movf	vfpfcnvrt@fmt,w
  5548  02BD  0086               	movwf	6
  5549  02BE  0187               	clrf	7
  5550  02BF  3F40               	moviw [0]fsr1
  5551  02C0  00DE               	movwf	??_vfpfcnvrt
  5552  02C1  3F41               	moviw [1]fsr1
  5553  02C2  00DF               	movwf	??_vfpfcnvrt+1
  5554  02C3  085E               	movf	??_vfpfcnvrt,w
  5555  02C4  0084               	movwf	4
  5556  02C5  085F               	movf	??_vfpfcnvrt+1,w
  5557  02C6  0085               	movwf	5
  5558  02C7  0012               	moviw fsr0++
  5559  02C8  3A25               	xorlw	37
  5560  02C9  1D03               	btfss	3,2
  5561  02CA  2ACC               	goto	u2651
  5562  02CB  2ACD               	goto	u2650
  5563  02CC                     u2651:
  5564  02CC  2B88               	goto	l4104
  5565  02CD                     u2650:
  5566  02CD                     l4070:
  5567                           
  5568                           ;C:\Program Files\Microchip\xc8\v2.35\pic\sources\c99\common\doprnt.c: 703:         ++*f
      +                          mt;
  5569  02CD  085C               	movf	vfpfcnvrt@fmt,w
  5570  02CE  0086               	movwf	6
  5571  02CF  0187               	clrf	7
  5572  02D0  3001               	movlw	1
  5573  02D1  0781               	addwf	1,f
  5574  02D2  3141               	addfsr 1,1
  5575  02D3  1803               	skipnc
  5576  02D4  0A81               	incf	1,f
  5577  02D5                     l4072:
  5578                           
  5579                           ;C:\Program Files\Microchip\xc8\v2.35\pic\sources\c99\common\doprnt.c: 705:         flag
      +                          s = width = 0;
  5580  02D5  0021               	movlb	1	; select bank1
  5581  02D6  01BF               	clrf	_width^(0+128)
  5582  02D7  01C0               	clrf	(_width+1)^(0+128)
  5583  02D8  0020               	movlb	0	; select bank0
  5584  02D9  01EA               	clrf	_flags
  5585  02DA  01EB               	clrf	_flags+1
  5586  02DB                     l4074:
  5587                           
  5588                           ;C:\Program Files\Microchip\xc8\v2.35\pic\sources\c99\common\doprnt.c: 706:         prec
      +                           = -1;
  5589  02DB  30FF               	movlw	255
  5590  02DC  0021               	movlb	1	; select bank1
  5591  02DD  00C1               	movwf	_prec^(0+128)
  5592  02DE  30FF               	movlw	255
  5593  02DF  00C2               	movwf	(_prec^(0+128)+1)
  5594  02E0                     l4076:
  5595                           
  5596                           ;C:\Program Files\Microchip\xc8\v2.35\pic\sources\c99\common\doprnt.c: 847:         if (
      +                          (*fmt[0] == 'd') || (*fmt[0] == 'i')) {
  5597  02E0  0020               	movlb	0	; select bank0
  5598  02E1  085C               	movf	vfpfcnvrt@fmt,w
  5599  02E2  0086               	movwf	6
  5600  02E3  0187               	clrf	7
  5601  02E4  3F40               	moviw [0]fsr1
  5602  02E5  00DE               	movwf	??_vfpfcnvrt
  5603  02E6  3F41               	moviw [1]fsr1
  5604  02E7  00DF               	movwf	??_vfpfcnvrt+1
  5605  02E8  085E               	movf	??_vfpfcnvrt,w
  5606  02E9  0084               	movwf	4
  5607  02EA  085F               	movf	??_vfpfcnvrt+1,w
  5608  02EB  0085               	movwf	5
  5609  02EC  0012               	moviw fsr0++
  5610  02ED  3A64               	xorlw	100
  5611  02EE  1903               	btfsc	3,2
  5612  02EF  2AF1               	goto	u2661
  5613  02F0  2AF2               	goto	u2660
  5614  02F1                     u2661:
  5615  02F1  2B03               	goto	l4080
  5616  02F2                     u2660:
  5617  02F2                     l4078:
  5618  02F2  085C               	movf	vfpfcnvrt@fmt,w
  5619  02F3  0086               	movwf	6
  5620  02F4  0187               	clrf	7
  5621  02F5  3F40               	moviw [0]fsr1
  5622  02F6  00DE               	movwf	??_vfpfcnvrt
  5623  02F7  3F41               	moviw [1]fsr1
  5624  02F8  00DF               	movwf	??_vfpfcnvrt+1
  5625  02F9  085E               	movf	??_vfpfcnvrt,w
  5626  02FA  0084               	movwf	4
  5627  02FB  085F               	movf	??_vfpfcnvrt+1,w
  5628  02FC  0085               	movwf	5
  5629  02FD  0012               	moviw fsr0++
  5630  02FE  3A69               	xorlw	105
  5631  02FF  1D03               	btfss	3,2
  5632  0300  2B02               	goto	u2671
  5633  0301  2B03               	goto	u2670
  5634  0302                     u2671:
  5635  0302  2B51               	goto	l4088
  5636  0303                     u2670:
  5637  0303                     l4080:
  5638                           
  5639                           ;C:\Program Files\Microchip\xc8\v2.35\pic\sources\c99\common\doprnt.c: 849:             
      +                          ++*fmt;
  5640  0303  085C               	movf	vfpfcnvrt@fmt,w
  5641  0304  0086               	movwf	6
  5642  0305  0187               	clrf	7
  5643  0306  3001               	movlw	1
  5644  0307  0781               	addwf	1,f
  5645  0308  3141               	addfsr 1,1
  5646  0309  1803               	skipnc
  5647  030A  0A81               	incf	1,f
  5648  030B                     l4082:
  5649                           
  5650                           ;C:\Program Files\Microchip\xc8\v2.35\pic\sources\c99\common\doprnt.c: 850:             
      +                          ll = (long long)(*(int *)__va_arg(*(int **)ap, (int)0));
  5651  030B  085D               	movf	vfpfcnvrt@ap,w
  5652  030C  0086               	movwf	6
  5653  030D  0187               	clrf	7
  5654  030E  0801               	movf	1,w
  5655  030F  0084               	movwf	4
  5656  0310  0185               	clrf	5
  5657  0311  3002               	movlw	2
  5658  0312  0781               	addwf	1,f
  5659  0313  3F00               	moviw [0]fsr0
  5660  0314  00DE               	movwf	??_vfpfcnvrt
  5661  0315  3F01               	moviw [1]fsr0
  5662  0316  00DF               	movwf	??_vfpfcnvrt+1
  5663  0317  085E               	movf	??_vfpfcnvrt,w
  5664  0318  0021               	movlb	1	; select bank1
  5665  0319  00CC               	movwf	vfpfcnvrt@ll^(0+128)
  5666  031A  0020               	movlb	0	; select bank0
  5667  031B  085F               	movf	??_vfpfcnvrt+1,w
  5668  031C  0021               	movlb	1	; select bank1
  5669  031D  00CD               	movwf	(vfpfcnvrt@ll+1)^(0+128)
  5670  031E  0D89               	rlf	9,f
  5671  031F  3B89               	subwfb	9,f
  5672  0320  0989               	comf	9,f
  5673  0321  00CE               	movwf	(vfpfcnvrt@ll+2)^(0+128)
  5674  0322  00CF               	movwf	(vfpfcnvrt@ll+3)^(0+128)
  5675  0323  00D0               	movwf	(vfpfcnvrt@ll+4)^(0+128)
  5676  0324  00D1               	movwf	(vfpfcnvrt@ll+5)^(0+128)
  5677  0325  00D2               	movwf	(vfpfcnvrt@ll+6)^(0+128)
  5678  0326  00D3               	movwf	(vfpfcnvrt@ll+7)^(0+128)
  5679  0327                     l4084:
  5680                           
  5681                           ;C:\Program Files\Microchip\xc8\v2.35\pic\sources\c99\common\doprnt.c: 852:             
      +                          return dtoa(fp, ll);
  5682  0327  084C               	movf	vfpfcnvrt@ll^(0+128),w
  5683  0328  0020               	movlb	0	; select bank0
  5684  0329  00BE               	movwf	dtoa@d
  5685  032A  0021               	movlb	1	; select bank1
  5686  032B  084D               	movf	(vfpfcnvrt@ll+1)^(0+128),w
  5687  032C  0020               	movlb	0	; select bank0
  5688  032D  00BF               	movwf	dtoa@d+1
  5689  032E  0021               	movlb	1	; select bank1
  5690  032F  084E               	movf	(vfpfcnvrt@ll+2)^(0+128),w
  5691  0330  0020               	movlb	0	; select bank0
  5692  0331  00C0               	movwf	dtoa@d+2
  5693  0332  0021               	movlb	1	; select bank1
  5694  0333  084F               	movf	(vfpfcnvrt@ll+3)^(0+128),w
  5695  0334  0020               	movlb	0	; select bank0
  5696  0335  00C1               	movwf	dtoa@d+3
  5697  0336  0021               	movlb	1	; select bank1
  5698  0337  0850               	movf	(vfpfcnvrt@ll+4)^(0+128),w
  5699  0338  0020               	movlb	0	; select bank0
  5700  0339  00C2               	movwf	dtoa@d+4
  5701  033A  0021               	movlb	1	; select bank1
  5702  033B  0851               	movf	(vfpfcnvrt@ll+5)^(0+128),w
  5703  033C  0020               	movlb	0	; select bank0
  5704  033D  00C3               	movwf	dtoa@d+5
  5705  033E  0021               	movlb	1	; select bank1
  5706  033F  0852               	movf	(vfpfcnvrt@ll+6)^(0+128),w
  5707  0340  0020               	movlb	0	; select bank0
  5708  0341  00C4               	movwf	dtoa@d+6
  5709  0342  0021               	movlb	1	; select bank1
  5710  0343  0853               	movf	(vfpfcnvrt@ll+7)^(0+128),w
  5711  0344  0020               	movlb	0	; select bank0
  5712  0345  00C5               	movwf	dtoa@d+7
  5713  0346  0021               	movlb	1	; select bank1
  5714  0347  0854               	movf	vfpfcnvrt@fp^(0+128),w
  5715  0348  3180  2048  3182   	fcall	_dtoa
  5716  034B  0020               	movlb	0	; select bank0
  5717  034C  083F               	movf	?_dtoa+1,w
  5718  034D  00DD               	movwf	?_vfpfcnvrt+1
  5719  034E  083E               	movf	?_dtoa,w
  5720  034F  00DC               	movwf	?_vfpfcnvrt
  5721  0350  2BAD               	goto	l1488
  5722  0351                     l4088:
  5723                           
  5724                           ;C:\Program Files\Microchip\xc8\v2.35\pic\sources\c99\common\doprnt.c: 1372:         if 
      +                          ((*fmt)[0] == '%') {
  5725  0351  085C               	movf	vfpfcnvrt@fmt,w
  5726  0352  0086               	movwf	6
  5727  0353  0187               	clrf	7
  5728  0354  3F40               	moviw [0]fsr1
  5729  0355  00DE               	movwf	??_vfpfcnvrt
  5730  0356  3F41               	moviw [1]fsr1
  5731  0357  00DF               	movwf	??_vfpfcnvrt+1
  5732  0358  085E               	movf	??_vfpfcnvrt,w
  5733  0359  0084               	movwf	4
  5734  035A  085F               	movf	??_vfpfcnvrt+1,w
  5735  035B  0085               	movwf	5
  5736  035C  0012               	moviw fsr0++
  5737  035D  3A25               	xorlw	37
  5738  035E  1D03               	btfss	3,2
  5739  035F  2B61               	goto	u2681
  5740  0360  2B62               	goto	u2680
  5741  0361                     u2681:
  5742  0361  2B7D               	goto	l4098
  5743  0362                     u2680:
  5744  0362                     l4090:
  5745                           
  5746                           ;C:\Program Files\Microchip\xc8\v2.35\pic\sources\c99\common\doprnt.c: 1373:            
      +                           ++*fmt;
  5747  0362  085C               	movf	vfpfcnvrt@fmt,w
  5748  0363  0086               	movwf	6
  5749  0364  0187               	clrf	7
  5750  0365  3001               	movlw	1
  5751  0366  0781               	addwf	1,f
  5752  0367  3141               	addfsr 1,1
  5753  0368  1803               	skipnc
  5754  0369  0A81               	incf	1,f
  5755  036A                     l4092:
  5756                           
  5757                           ;C:\Program Files\Microchip\xc8\v2.35\pic\sources\c99\common\doprnt.c: 1374:            
      +                           fputc((int)'%', fp);
  5758  036A  3025               	movlw	37
  5759  036B  00A5               	movwf	fputc@c
  5760  036C  3000               	movlw	0
  5761  036D  00A6               	movwf	fputc@c+1
  5762  036E  0021               	movlb	1	; select bank1
  5763  036F  0854               	movf	vfpfcnvrt@fp^(0+128),w
  5764  0370  0020               	movlb	0	; select bank0
  5765  0371  00DE               	movwf	??_vfpfcnvrt
  5766  0372  085E               	movf	??_vfpfcnvrt,w
  5767  0373  00A7               	movwf	fputc@fp
  5768  0374  3186  26D7  3182   	fcall	_fputc
  5769  0377                     l4094:
  5770                           
  5771                           ;C:\Program Files\Microchip\xc8\v2.35\pic\sources\c99\common\doprnt.c: 1375:            
      +                           return 1;
  5772  0377  3001               	movlw	1
  5773  0378  0020               	movlb	0	; select bank0
  5774  0379  00DC               	movwf	?_vfpfcnvrt
  5775  037A  3000               	movlw	0
  5776  037B  00DD               	movwf	?_vfpfcnvrt+1
  5777  037C  2BAD               	goto	l1488
  5778  037D                     l4098:
  5779                           
  5780                           ;C:\Program Files\Microchip\xc8\v2.35\pic\sources\c99\common\doprnt.c: 1379:         ++*
      +                          fmt;
  5781  037D  085C               	movf	vfpfcnvrt@fmt,w
  5782  037E  0086               	movwf	6
  5783  037F  0187               	clrf	7
  5784  0380  3001               	movlw	1
  5785  0381  0781               	addwf	1,f
  5786  0382  3141               	addfsr 1,1
  5787  0383  1803               	skipnc
  5788  0384  0A81               	incf	1,f
  5789  0385                     l4100:
  5790                           
  5791                           ;C:\Program Files\Microchip\xc8\v2.35\pic\sources\c99\common\doprnt.c: 1380:         ret
      +                          urn 0;
  5792  0385  01DC               	clrf	?_vfpfcnvrt
  5793  0386  01DD               	clrf	?_vfpfcnvrt+1
  5794  0387  2BAD               	goto	l1488
  5795  0388                     l4104:
  5796                           
  5797                           ;C:\Program Files\Microchip\xc8\v2.35\pic\sources\c99\common\doprnt.c: 1384:     fputc((
      +                          int)(*fmt)[0], fp);
  5798  0388  085C               	movf	vfpfcnvrt@fmt,w
  5799  0389  0086               	movwf	6
  5800  038A  0187               	clrf	7
  5801  038B  3F40               	moviw [0]fsr1
  5802  038C  00DE               	movwf	??_vfpfcnvrt
  5803  038D  3F41               	moviw [1]fsr1
  5804  038E  00DF               	movwf	??_vfpfcnvrt+1
  5805  038F  085E               	movf	??_vfpfcnvrt,w
  5806  0390  0084               	movwf	4
  5807  0391  085F               	movf	??_vfpfcnvrt+1,w
  5808  0392  0085               	movwf	5
  5809  0393  0800               	movf	0,w	;code access
  5810  0394  00E0               	movwf	??_vfpfcnvrt+2
  5811  0395  01E1               	clrf	??_vfpfcnvrt+3
  5812  0396  0860               	movf	??_vfpfcnvrt+2,w
  5813  0397  00A5               	movwf	fputc@c
  5814  0398  0861               	movf	??_vfpfcnvrt+3,w
  5815  0399  00A6               	movwf	fputc@c+1
  5816  039A  0021               	movlb	1	; select bank1
  5817  039B  0854               	movf	vfpfcnvrt@fp^(0+128),w
  5818  039C  0020               	movlb	0	; select bank0
  5819  039D  00E2               	movwf	??_vfpfcnvrt+4
  5820  039E  0862               	movf	??_vfpfcnvrt+4,w
  5821  039F  00A7               	movwf	fputc@fp
  5822  03A0  3186  26D7  3182   	fcall	_fputc
  5823  03A3                     l4106:
  5824                           
  5825                           ;C:\Program Files\Microchip\xc8\v2.35\pic\sources\c99\common\doprnt.c: 1385:     ++*fmt;
  5826  03A3  0020               	movlb	0	; select bank0
  5827  03A4  085C               	movf	vfpfcnvrt@fmt,w
  5828  03A5  0086               	movwf	6
  5829  03A6  0187               	clrf	7
  5830  03A7  3001               	movlw	1
  5831  03A8  0781               	addwf	1,f
  5832  03A9  3141               	addfsr 1,1
  5833  03AA  1803               	skipnc
  5834  03AB  0A81               	incf	1,f
  5835  03AC  2B77               	goto	l4094
  5836  03AD                     l1488:
  5837  03AD  0008               	return
  5838  03AE                     __end_of_vfpfcnvrt:
  5839                           
  5840                           	psect	text16
  5841  0048                     __ptext16:	
  5842 ;; *************** function _dtoa *****************
  5843 ;; Defined at:
  5844 ;;		line 287 in file "C:\Program Files\Microchip\xc8\v2.35\pic\sources\c99\common\doprnt.c"
  5845 ;; Parameters:    Size  Location     Type
  5846 ;;  fp              1    wreg     PTR struct _IO_FILE
  5847 ;;		 -> NULL(0), 
  5848 ;;  d               8   30[BANK0 ] long long 
  5849 ;; Auto vars:     Size  Location     Type
  5850 ;;  fp              1   43[BANK0 ] PTR struct _IO_FILE
  5851 ;;		 -> NULL(0), 
  5852 ;;  n               8   50[BANK0 ] long long 
  5853 ;;  i               2   58[BANK0 ] int 
  5854 ;;  s               2   48[BANK0 ] int 
  5855 ;;  w               2   46[BANK0 ] int 
  5856 ;;  p               2   44[BANK0 ] int 
  5857 ;; Return value:  Size  Location     Type
  5858 ;;                  2   30[BANK0 ] int 
  5859 ;; Registers used:
  5860 ;;		wreg, fsr1l, fsr1h, status,2, status,0, pclath, cstack
  5861 ;; Tracked objects:
  5862 ;;		On entry : 0/0
  5863 ;;		On exit  : 0/0
  5864 ;;		Unchanged: 0/0
  5865 ;; Data sizes:     COMMON   BANK0   BANK1   BANK2   BANK3   BANK4   BANK5   BANK6   BANK7   BANK8   BANK9  BANK10  BANK1
      +1  BANK12
  5866 ;;      Params:         0       8       0       0       0       0       0       0       0       0       0       0       
      +0       0
  5867 ;;      Locals:         0      19       0       0       0       0       0       0       0       0       0       0       
      +0       0
  5868 ;;      Temps:          0       3       0       0       0       0       0       0       0       0       0       0       
      +0       0
  5869 ;;      Totals:         0      30       0       0       0       0       0       0       0       0       0       0       
      +0       0
  5870 ;;Total ram usage:       30 bytes
  5871 ;; Hardware stack levels used: 1
  5872 ;; Hardware stack levels required when called: 12
  5873 ;; This function calls:
  5874 ;;		___aodiv
  5875 ;;		___aomod
  5876 ;;		_abs
  5877 ;;		_pad
  5878 ;; This function is called by:
  5879 ;;		_vfpfcnvrt
  5880 ;; This function uses a non-reentrant model
  5881 ;;
  5882                           
  5883  0048                     _dtoa:	
  5884                           ;psect for function _dtoa
  5885                           
  5886                           
  5887                           ;incstack = 0
  5888 ;; hardware stack exceeded
  5889                           ; Regs used in _dtoa: [wreg+fsr1l+fsr1h+status,2+status,0+pclath+cstack]
  5890                           ;dtoa@fp stored from wreg
  5891  0048  0020               	movlb	0	; select bank0
  5892  0049  00CB               	movwf	dtoa@fp
  5893  004A                     l4010:
  5894                           
  5895                           ;C:\Program Files\Microchip\xc8\v2.35\pic\sources\c99\common\doprnt.c: 287: static int d
      +                          toa(FILE *fp, long long d);C:\Program Files\Microchip\xc8\v2.35\pic\sources\c99\common\d
      +                          oprnt.c: 288: {;C:\Program Files\Microchip\xc8\v2.35\pic\sources\c99\common\doprnt.c: 28
      +                          9:     int i, p, s, w;;C:\Program Files\Microchip\xc8\v2.35\pic\sources\c99\common\doprn
      +                          t.c: 290:     long long n;;C:\Program Files\Microchip\xc8\v2.35\pic\sources\c99\common\d
      +                          oprnt.c: 293:     n = d;
  5896  004A  083E               	movf	dtoa@d,w
  5897  004B  00D2               	movwf	dtoa@n
  5898  004C  083F               	movf	dtoa@d+1,w
  5899  004D  00D3               	movwf	dtoa@n+1
  5900  004E  0840               	movf	dtoa@d+2,w
  5901  004F  00D4               	movwf	dtoa@n+2
  5902  0050  0841               	movf	dtoa@d+3,w
  5903  0051  00D5               	movwf	dtoa@n+3
  5904  0052  0842               	movf	dtoa@d+4,w
  5905  0053  00D6               	movwf	dtoa@n+4
  5906  0054  0843               	movf	dtoa@d+5,w
  5907  0055  00D7               	movwf	dtoa@n+5
  5908  0056  0844               	movf	dtoa@d+6,w
  5909  0057  00D8               	movwf	dtoa@n+6
  5910  0058  0845               	movf	dtoa@d+7,w
  5911  0059  00D9               	movwf	dtoa@n+7
  5912  005A                     l4012:
  5913                           
  5914                           ;C:\Program Files\Microchip\xc8\v2.35\pic\sources\c99\common\doprnt.c: 294:     s = n < 
      +                          0 ? 1 : 0;
  5915  005A  3052               	movlw	low dtoa@n
  5916  005B  0086               	movwf	6
  5917  005C  3000               	movlw	high dtoa@n
  5918  005D  0087               	movwf	7
  5919  005E  3F47               	moviw [7]fsr1
  5920  005F  00C6               	movwf	??_dtoa
  5921  0060  1BC6               	btfsc	??_dtoa,7
  5922  0061  2863               	goto	u2491
  5923  0062  2865               	goto	u2490
  5924  0063                     u2491:
  5925  0063  3001               	movlw	1
  5926  0064  2866               	goto	u2500
  5927  0065                     u2490:
  5928  0065  3000               	movlw	0
  5929  0066                     u2500:
  5930  0066  0020               	movlb	0	; select bank0
  5931  0067  00C7               	movwf	??_dtoa+1
  5932  0068  01C8               	clrf	??_dtoa+2
  5933  0069  0847               	movf	??_dtoa+1,w
  5934  006A  00D0               	movwf	dtoa@s
  5935  006B  0848               	movf	??_dtoa+2,w
  5936  006C  00D1               	movwf	dtoa@s+1
  5937  006D                     l4014:
  5938                           
  5939                           ;C:\Program Files\Microchip\xc8\v2.35\pic\sources\c99\common\doprnt.c: 295:     if (s) {
  5940  006D  0850               	movf	dtoa@s,w
  5941  006E  0451               	iorwf	dtoa@s+1,w
  5942  006F  1903               	btfsc	3,2
  5943  0070  2872               	goto	u2511
  5944  0071  2873               	goto	u2510
  5945  0072                     u2511:
  5946  0072  2891               	goto	l1458
  5947  0073                     u2510:
  5948  0073                     l4016:
  5949                           
  5950                           ;C:\Program Files\Microchip\xc8\v2.35\pic\sources\c99\common\doprnt.c: 296:         n = 
      +                          -n;
  5951  0073  09D2               	comf	dtoa@n,f
  5952  0074  09D3               	comf	dtoa@n+1,f
  5953  0075  09D4               	comf	dtoa@n+2,f
  5954  0076  09D5               	comf	dtoa@n+3,f
  5955  0077  09D6               	comf	dtoa@n+4,f
  5956  0078  09D7               	comf	dtoa@n+5,f
  5957  0079  09D8               	comf	dtoa@n+6,f
  5958  007A  09D9               	comf	dtoa@n+7,f
  5959  007B  0AD2               	incf	dtoa@n,f
  5960  007C  1D03               	skipz
  5961  007D  2891               	goto	u252lld
  5962  007E  0AD3               	incf	dtoa@n+1,f
  5963  007F  1D03               	skipz
  5964  0080  2891               	goto	u252lld
  5965  0081  0AD4               	incf	dtoa@n+2,f
  5966  0082  1D03               	skipz
  5967  0083  2891               	goto	u252lld
  5968  0084  0AD5               	incf	dtoa@n+3,f
  5969  0085  1D03               	skipz
  5970  0086  2891               	goto	u252lld
  5971  0087  0AD6               	incf	dtoa@n+4,f
  5972  0088  1D03               	skipz
  5973  0089  2891               	goto	u252lld
  5974  008A  0AD7               	incf	dtoa@n+5,f
  5975  008B  1D03               	skipz
  5976  008C  2891               	goto	u252lld
  5977  008D  0AD8               	incf	dtoa@n+6,f
  5978  008E  1D03               	skipz
  5979  008F  2891               	goto	u252lld
  5980  0090  0AD9               	incf	dtoa@n+7,f
  5981  0091                     u252lld:
  5982  0091                     l1458:	
  5983                           ;C:\Program Files\Microchip\xc8\v2.35\pic\sources\c99\common\doprnt.c: 297:     }
  5984                           
  5985                           
  5986                           ;C:\Program Files\Microchip\xc8\v2.35\pic\sources\c99\common\doprnt.c: 300:     if (!(pr
      +                          ec < 0)) {
  5987  0091  0021               	movlb	1	; select bank1
  5988  0092  1BC2               	btfsc	(_prec+1)^(0+128),7
  5989  0093  2895               	goto	u2531
  5990  0094  2896               	goto	u2530
  5991  0095                     u2531:
  5992  0095  289B               	goto	l1459
  5993  0096                     u2530:
  5994  0096                     l4018:
  5995                           
  5996                           ;C:\Program Files\Microchip\xc8\v2.35\pic\sources\c99\common\doprnt.c: 301:         flag
      +                          s &= ~(1 << 1);
  5997  0096  30FD               	movlw	253
  5998  0097  0020               	movlb	0	; select bank0
  5999  0098  05EA               	andwf	_flags,f
  6000  0099  30FF               	movlw	255
  6001  009A  05EB               	andwf	_flags+1,f
  6002  009B                     l1459:	
  6003                           ;C:\Program Files\Microchip\xc8\v2.35\pic\sources\c99\common\doprnt.c: 302:     }
  6004                           
  6005                           
  6006                           ;C:\Program Files\Microchip\xc8\v2.35\pic\sources\c99\common\doprnt.c: 303:     p = (0 <
      +                           prec) ? prec : 1;
  6007  009B  0021               	movlb	1	; select bank1
  6008  009C  0842               	movf	(_prec+1)^(0+128),w
  6009  009D  3A80               	xorlw	128
  6010  009E  0020               	movlb	0	; select bank0
  6011  009F  00C6               	movwf	??_dtoa
  6012  00A0  3080               	movlw	128
  6013  00A1  0246               	subwf	??_dtoa,w
  6014  00A2  1D03               	skipz
  6015  00A3  28A7               	goto	u2545
  6016  00A4  3001               	movlw	1
  6017  00A5  0021               	movlb	1	; select bank1
  6018  00A6  0241               	subwf	_prec^(0+128),w
  6019  00A7                     u2545:
  6020  00A7  1803               	skipnc
  6021  00A8  28AA               	goto	u2541
  6022  00A9  28AB               	goto	u2540
  6023  00AA                     u2541:
  6024  00AA  28B1               	goto	l4022
  6025  00AB                     u2540:
  6026  00AB                     l4020:
  6027  00AB  3001               	movlw	1
  6028  00AC  0020               	movlb	0	; select bank0
  6029  00AD  00CC               	movwf	dtoa@p
  6030  00AE  3000               	movlw	0
  6031  00AF  00CD               	movwf	dtoa@p+1
  6032  00B0  28B9               	goto	l1463
  6033  00B1                     l4022:
  6034  00B1  0021               	movlb	1	; select bank1
  6035  00B2  0842               	movf	(_prec+1)^(0+128),w
  6036  00B3  0020               	movlb	0	; select bank0
  6037  00B4  00CD               	movwf	dtoa@p+1
  6038  00B5  0021               	movlb	1	; select bank1
  6039  00B6  0841               	movf	_prec^(0+128),w
  6040  00B7  0020               	movlb	0	; select bank0
  6041  00B8  00CC               	movwf	dtoa@p
  6042  00B9                     l1463:
  6043                           
  6044                           ;C:\Program Files\Microchip\xc8\v2.35\pic\sources\c99\common\doprnt.c: 304:     w = widt
      +                          h;
  6045  00B9  0021               	movlb	1	; select bank1
  6046  00BA  0840               	movf	(_width+1)^(0+128),w
  6047  00BB  0020               	movlb	0	; select bank0
  6048  00BC  00CF               	movwf	dtoa@w+1
  6049  00BD  0021               	movlb	1	; select bank1
  6050  00BE  083F               	movf	_width^(0+128),w
  6051  00BF  0020               	movlb	0	; select bank0
  6052  00C0  00CE               	movwf	dtoa@w
  6053  00C1                     l4024:
  6054                           
  6055                           ;C:\Program Files\Microchip\xc8\v2.35\pic\sources\c99\common\doprnt.c: 305:     if (s ||
      +                           (flags & (1 << 2))) {
  6056  00C1  0850               	movf	dtoa@s,w
  6057  00C2  0451               	iorwf	dtoa@s+1,w
  6058  00C3  1D03               	btfss	3,2
  6059  00C4  28C6               	goto	u2551
  6060  00C5  28C7               	goto	u2550
  6061  00C6                     u2551:
  6062  00C6  28CB               	goto	l4028
  6063  00C7                     u2550:
  6064  00C7                     l4026:
  6065  00C7  1D6A               	btfss	_flags,2
  6066  00C8  28CA               	goto	u2561
  6067  00C9  28CB               	goto	u2560
  6068  00CA                     u2561:
  6069  00CA  28CF               	goto	l1464
  6070  00CB                     u2560:
  6071  00CB                     l4028:
  6072                           
  6073                           ;C:\Program Files\Microchip\xc8\v2.35\pic\sources\c99\common\doprnt.c: 306:         --w;
  6074  00CB  30FF               	movlw	255
  6075  00CC  07CE               	addwf	dtoa@w,f
  6076  00CD  30FF               	movlw	255
  6077  00CE  3DCF               	addwfc	dtoa@w+1,f
  6078  00CF                     l1464:	
  6079                           ;C:\Program Files\Microchip\xc8\v2.35\pic\sources\c99\common\doprnt.c: 307:     }
  6080                           
  6081                           
  6082                           ;C:\Program Files\Microchip\xc8\v2.35\pic\sources\c99\common\doprnt.c: 310:     i = size
      +                          of(dbuf) - 1;
  6083  00CF  301F               	movlw	31
  6084  00D0  00DA               	movwf	dtoa@i
  6085  00D1  3000               	movlw	0
  6086  00D2  00DB               	movwf	dtoa@i+1
  6087  00D3                     l4030:
  6088                           
  6089                           ;C:\Program Files\Microchip\xc8\v2.35\pic\sources\c99\common\doprnt.c: 311:     dbuf[i] 
      +                          = '\0';
  6090  00D3  0022               	movlb	2	; select bank2
  6091  00D4  01BF               	clrf	(_dbuf^(0+256)+31)
  6092                           
  6093                           ;C:\Program Files\Microchip\xc8\v2.35\pic\sources\c99\common\doprnt.c: 312:     while (!
      +                          (i < 1) && (n || (0 < p) || ((0 < w) && (flags & (1 << 1))))) {
  6094  00D5  293F               	goto	l1467
  6095  00D6                     l4032:
  6096                           
  6097                           ;C:\Program Files\Microchip\xc8\v2.35\pic\sources\c99\common\doprnt.c: 313:         --i;
  6098  00D6  30FF               	movlw	255
  6099  00D7  0020               	movlb	0	; select bank0
  6100  00D8  07DA               	addwf	dtoa@i,f
  6101  00D9  30FF               	movlw	255
  6102  00DA  3DDB               	addwfc	dtoa@i+1,f
  6103  00DB                     l4034:
  6104                           
  6105                           ;C:\Program Files\Microchip\xc8\v2.35\pic\sources\c99\common\doprnt.c: 314:         dbuf
      +                          [i] = (char)((int)'0' + abs(n % 10));
  6106  00DB  300A               	movlw	10
  6107  00DC  00A3               	movwf	___aomod@divisor
  6108  00DD  01A4               	clrf	___aomod@divisor+1
  6109  00DE  01A5               	clrf	___aomod@divisor+2
  6110  00DF  01A6               	clrf	___aomod@divisor+3
  6111  00E0  01A7               	clrf	___aomod@divisor+4
  6112  00E1  01A8               	clrf	___aomod@divisor+5
  6113  00E2  01A9               	clrf	___aomod@divisor+6
  6114  00E3  01AA               	clrf	___aomod@divisor+7
  6115  00E4  0852               	movf	dtoa@n,w
  6116  00E5  00AB               	movwf	___aomod@dividend
  6117  00E6  0853               	movf	dtoa@n+1,w
  6118  00E7  00AC               	movwf	___aomod@dividend+1
  6119  00E8  0854               	movf	dtoa@n+2,w
  6120  00E9  00AD               	movwf	___aomod@dividend+2
  6121  00EA  0855               	movf	dtoa@n+3,w
  6122  00EB  00AE               	movwf	___aomod@dividend+3
  6123  00EC  0856               	movf	dtoa@n+4,w
  6124  00ED  00AF               	movwf	___aomod@dividend+4
  6125  00EE  0857               	movf	dtoa@n+5,w
  6126  00EF  00B0               	movwf	___aomod@dividend+5
  6127  00F0  0858               	movf	dtoa@n+6,w
  6128  00F1  00B1               	movwf	___aomod@dividend+6
  6129  00F2  0859               	movf	dtoa@n+7,w
  6130  00F3  00B2               	movwf	___aomod@dividend+7
  6131  00F4  3183  23AE  3180   	fcall	___aomod
  6132  00F7  0020               	movlb	0	; select bank0
  6133  00F8  0824               	movf	?___aomod+1,w
  6134  00F9  00B7               	movwf	abs@a+1
  6135  00FA  0823               	movf	?___aomod,w
  6136  00FB  00B6               	movwf	abs@a
  6137  00FC  318E  267E  3180   	fcall	_abs
  6138  00FF  0020               	movlb	0	; select bank0
  6139  0100  0836               	movf	?_abs,w
  6140  0101  3E30               	addlw	48
  6141  0102  00C6               	movwf	??_dtoa
  6142  0103  085A               	movf	dtoa@i,w
  6143  0104  3E20               	addlw	(low (_dbuf| (0+256)))& (0+255)
  6144  0105  0086               	movwf	6
  6145  0106  3001               	movlw	1	; select bank2/3
  6146  0107  0087               	movwf	7
  6147  0108  0846               	movf	??_dtoa,w
  6148  0109  0081               	movwf	1
  6149  010A                     l4036:
  6150                           
  6151                           ;C:\Program Files\Microchip\xc8\v2.35\pic\sources\c99\common\doprnt.c: 315:         --p;
  6152  010A  30FF               	movlw	255
  6153  010B  07CC               	addwf	dtoa@p,f
  6154  010C  30FF               	movlw	255
  6155  010D  3DCD               	addwfc	dtoa@p+1,f
  6156  010E                     l4038:
  6157                           
  6158                           ;C:\Program Files\Microchip\xc8\v2.35\pic\sources\c99\common\doprnt.c: 316:         --w;
  6159  010E  30FF               	movlw	255
  6160  010F  07CE               	addwf	dtoa@w,f
  6161  0110  30FF               	movlw	255
  6162  0111  3DCF               	addwfc	dtoa@w+1,f
  6163  0112                     l4040:
  6164                           
  6165                           ;C:\Program Files\Microchip\xc8\v2.35\pic\sources\c99\common\doprnt.c: 317:         n = 
      +                          n / 10;
  6166  0112  300A               	movlw	10
  6167  0113  00A3               	movwf	___aodiv@divisor
  6168  0114  01A4               	clrf	___aodiv@divisor+1
  6169  0115  01A5               	clrf	___aodiv@divisor+2
  6170  0116  01A6               	clrf	___aodiv@divisor+3
  6171  0117  01A7               	clrf	___aodiv@divisor+4
  6172  0118  01A8               	clrf	___aodiv@divisor+5
  6173  0119  01A9               	clrf	___aodiv@divisor+6
  6174  011A  01AA               	clrf	___aodiv@divisor+7
  6175  011B  0852               	movf	dtoa@n,w
  6176  011C  00AB               	movwf	___aodiv@dividend
  6177  011D  0853               	movf	dtoa@n+1,w
  6178  011E  00AC               	movwf	___aodiv@dividend+1
  6179  011F  0854               	movf	dtoa@n+2,w
  6180  0120  00AD               	movwf	___aodiv@dividend+2
  6181  0121  0855               	movf	dtoa@n+3,w
  6182  0122  00AE               	movwf	___aodiv@dividend+3
  6183  0123  0856               	movf	dtoa@n+4,w
  6184  0124  00AF               	movwf	___aodiv@dividend+4
  6185  0125  0857               	movf	dtoa@n+5,w
  6186  0126  00B0               	movwf	___aodiv@dividend+5
  6187  0127  0858               	movf	dtoa@n+6,w
  6188  0128  00B1               	movwf	___aodiv@dividend+6
  6189  0129  0859               	movf	dtoa@n+7,w
  6190  012A  00B2               	movwf	___aodiv@dividend+7
  6191  012B  3181  21B4  3180   	fcall	___aodiv
  6192  012E  0020               	movlb	0	; select bank0
  6193  012F  0823               	movf	?___aodiv,w
  6194  0130  00D2               	movwf	dtoa@n
  6195  0131  0824               	movf	?___aodiv+1,w
  6196  0132  00D3               	movwf	dtoa@n+1
  6197  0133  0825               	movf	?___aodiv+2,w
  6198  0134  00D4               	movwf	dtoa@n+2
  6199  0135  0826               	movf	?___aodiv+3,w
  6200  0136  00D5               	movwf	dtoa@n+3
  6201  0137  0827               	movf	?___aodiv+4,w
  6202  0138  00D6               	movwf	dtoa@n+4
  6203  0139  0828               	movf	?___aodiv+5,w
  6204  013A  00D7               	movwf	dtoa@n+5
  6205  013B  0829               	movf	?___aodiv+6,w
  6206  013C  00D8               	movwf	dtoa@n+6
  6207  013D  082A               	movf	?___aodiv+7,w
  6208  013E  00D9               	movwf	dtoa@n+7
  6209  013F                     l1467:	
  6210                           ;C:\Program Files\Microchip\xc8\v2.35\pic\sources\c99\common\doprnt.c: 318:     }
  6211                           
  6212                           
  6213                           ;C:\Program Files\Microchip\xc8\v2.35\pic\sources\c99\common\doprnt.c: 312:     while (!
      +                          (i < 1) && (n || (0 < p) || ((0 < w) && (flags & (1 << 1))))) {
  6214  013F  0020               	movlb	0	; select bank0
  6215  0140  085B               	movf	dtoa@i+1,w
  6216  0141  3A80               	xorlw	128
  6217  0142  00C6               	movwf	??_dtoa
  6218  0143  3080               	movlw	128
  6219  0144  0246               	subwf	??_dtoa,w
  6220  0145  1D03               	skipz
  6221  0146  2949               	goto	u2575
  6222  0147  3001               	movlw	1
  6223  0148  025A               	subwf	dtoa@i,w
  6224  0149                     u2575:
  6225  0149  1C03               	skipc
  6226  014A  294C               	goto	u2571
  6227  014B  294D               	goto	u2570
  6228  014C                     u2571:
  6229  014C  297A               	goto	l4050
  6230  014D                     u2570:
  6231  014D                     l4042:
  6232  014D  0020               	movlb	0	; select bank0
  6233  014E  0852               	movf	dtoa@n,w
  6234  014F  0453               	iorwf	dtoa@n+1,w
  6235  0150  0454               	iorwf	dtoa@n+2,w
  6236  0151  0455               	iorwf	dtoa@n+3,w
  6237  0152  0456               	iorwf	dtoa@n+4,w
  6238  0153  0457               	iorwf	dtoa@n+5,w
  6239  0154  0458               	iorwf	dtoa@n+6,w
  6240  0155  0459               	iorwf	dtoa@n+7,w
  6241  0156  1D03               	skipz
  6242  0157  2959               	goto	u2581
  6243  0158  295A               	goto	u2580
  6244  0159                     u2581:
  6245  0159  28D6               	goto	l4032
  6246  015A                     u2580:
  6247  015A                     l4044:
  6248  015A  084D               	movf	dtoa@p+1,w
  6249  015B  3A80               	xorlw	128
  6250  015C  00C6               	movwf	??_dtoa
  6251  015D  3080               	movlw	128
  6252  015E  0246               	subwf	??_dtoa,w
  6253  015F  1D03               	skipz
  6254  0160  2963               	goto	u2595
  6255  0161  3001               	movlw	1
  6256  0162  024C               	subwf	dtoa@p,w
  6257  0163                     u2595:
  6258  0163  1803               	skipnc
  6259  0164  2966               	goto	u2591
  6260  0165  2967               	goto	u2590
  6261  0166                     u2591:
  6262  0166  28D6               	goto	l4032
  6263  0167                     u2590:
  6264  0167                     l4046:
  6265  0167  0020               	movlb	0	; select bank0
  6266  0168  084F               	movf	dtoa@w+1,w
  6267  0169  3A80               	xorlw	128
  6268  016A  00C6               	movwf	??_dtoa
  6269  016B  3080               	movlw	128
  6270  016C  0246               	subwf	??_dtoa,w
  6271  016D  1D03               	skipz
  6272  016E  2971               	goto	u2605
  6273  016F  3001               	movlw	1
  6274  0170  024E               	subwf	dtoa@w,w
  6275  0171                     u2605:
  6276  0171  1C03               	skipc
  6277  0172  2974               	goto	u2601
  6278  0173  2975               	goto	u2600
  6279  0174                     u2601:
  6280  0174  297A               	goto	l4050
  6281  0175                     u2600:
  6282  0175                     l4048:
  6283  0175  0020               	movlb	0	; select bank0
  6284  0176  18EA               	btfsc	_flags,1
  6285  0177  2979               	goto	u2611
  6286  0178  297A               	goto	u2610
  6287  0179                     u2611:
  6288  0179  28D6               	goto	l4032
  6289  017A                     u2610:
  6290  017A                     l4050:
  6291                           
  6292                           ;C:\Program Files\Microchip\xc8\v2.35\pic\sources\c99\common\doprnt.c: 321:     if (s ||
      +                           (flags & (1 << 2))) {
  6293  017A  0020               	movlb	0	; select bank0
  6294  017B  0850               	movf	dtoa@s,w
  6295  017C  0451               	iorwf	dtoa@s+1,w
  6296  017D  1D03               	btfss	3,2
  6297  017E  2980               	goto	u2621
  6298  017F  2981               	goto	u2620
  6299  0180                     u2621:
  6300  0180  2985               	goto	l4054
  6301  0181                     u2620:
  6302  0181                     l4052:
  6303  0181  1D6A               	btfss	_flags,2
  6304  0182  2984               	goto	u2631
  6305  0183  2985               	goto	u2630
  6306  0184                     u2631:
  6307  0184  29A1               	goto	l4064
  6308  0185                     u2630:
  6309  0185                     l4054:
  6310                           
  6311                           ;C:\Program Files\Microchip\xc8\v2.35\pic\sources\c99\common\doprnt.c: 322:         --i;
  6312  0185  30FF               	movlw	255
  6313  0186  07DA               	addwf	dtoa@i,f
  6314  0187  30FF               	movlw	255
  6315  0188  3DDB               	addwfc	dtoa@i+1,f
  6316  0189                     l4056:
  6317                           
  6318                           ;C:\Program Files\Microchip\xc8\v2.35\pic\sources\c99\common\doprnt.c: 323:         dbuf
      +                          [i] = s ? '-' : '+';
  6319  0189  0850               	movf	dtoa@s,w
  6320  018A  0451               	iorwf	dtoa@s+1,w
  6321  018B  1D03               	btfss	3,2
  6322  018C  298E               	goto	u2641
  6323  018D  298F               	goto	u2640
  6324  018E                     u2641:
  6325  018E  2994               	goto	l4060
  6326  018F                     u2640:
  6327  018F                     l4058:
  6328  018F  302B               	movlw	43
  6329  0190  00C9               	movwf	_dtoa$1639
  6330  0191  3000               	movlw	0
  6331  0192  00CA               	movwf	_dtoa$1639+1
  6332  0193  2998               	goto	l4062
  6333  0194                     l4060:
  6334  0194  302D               	movlw	45
  6335  0195  00C9               	movwf	_dtoa$1639
  6336  0196  3000               	movlw	0
  6337  0197  00CA               	movwf	_dtoa$1639+1
  6338  0198                     l4062:
  6339  0198  0849               	movf	_dtoa$1639,w
  6340  0199  00C6               	movwf	??_dtoa
  6341  019A  085A               	movf	dtoa@i,w
  6342  019B  3E20               	addlw	(low (_dbuf| (0+256)))& (0+255)
  6343  019C  0086               	movwf	6
  6344  019D  3001               	movlw	1	; select bank2/3
  6345  019E  0087               	movwf	7
  6346  019F  0846               	movf	??_dtoa,w
  6347  01A0  0081               	movwf	1
  6348  01A1                     l4064:
  6349                           
  6350                           ;C:\Program Files\Microchip\xc8\v2.35\pic\sources\c99\common\doprnt.c: 327:     return p
      +                          ad(fp, &dbuf[i], w);
  6351  01A1  085A               	movf	dtoa@i,w
  6352  01A2  3E20               	addlw	(low (_dbuf| (0+256)))& (0+255)
  6353  01A3  00C6               	movwf	??_dtoa
  6354  01A4  0846               	movf	??_dtoa,w
  6355  01A5  00B5               	movwf	pad@buf
  6356  01A6  084F               	movf	dtoa@w+1,w
  6357  01A7  00B7               	movwf	pad@p+1
  6358  01A8  084E               	movf	dtoa@w,w
  6359  01A9  00B6               	movwf	pad@p
  6360  01AA  084B               	movf	dtoa@fp,w
  6361  01AB  3185  2548  3180   	fcall	_pad
  6362  01AE  0020               	movlb	0	; select bank0
  6363  01AF  0836               	movf	?_pad+1,w
  6364  01B0  00BF               	movwf	?_dtoa+1
  6365  01B1  0835               	movf	?_pad,w
  6366  01B2  00BE               	movwf	?_dtoa
  6367  01B3                     l1481:
  6368  01B3  0008               	return
  6369  01B4                     __end_of_dtoa:
  6370                           
  6371                           	psect	text17
  6372  0548                     __ptext17:	
  6373 ;; *************** function _pad *****************
  6374 ;; Defined at:
  6375 ;;		line 72 in file "C:\Program Files\Microchip\xc8\v2.35\pic\sources\c99\common\doprnt.c"
  6376 ;; Parameters:    Size  Location     Type
  6377 ;;  fp              1    wreg     PTR struct _IO_FILE
  6378 ;;		 -> NULL(0), 
  6379 ;;  buf             1   21[BANK0 ] PTR unsigned char 
  6380 ;;		 -> dbuf(32), 
  6381 ;;  p               2   22[BANK0 ] int 
  6382 ;; Auto vars:     Size  Location     Type
  6383 ;;  fp              1   29[BANK0 ] PTR struct _IO_FILE
  6384 ;;		 -> NULL(0), 
  6385 ;;  w               2   27[BANK0 ] int 
  6386 ;;  i               2   25[BANK0 ] int 
  6387 ;; Return value:  Size  Location     Type
  6388 ;;                  2   21[BANK0 ] int 
  6389 ;; Registers used:
  6390 ;;		wreg, fsr1l, fsr1h, status,2, status,0, pclath, cstack
  6391 ;; Tracked objects:
  6392 ;;		On entry : 0/0
  6393 ;;		On exit  : 0/0
  6394 ;;		Unchanged: 0/0
  6395 ;; Data sizes:     COMMON   BANK0   BANK1   BANK2   BANK3   BANK4   BANK5   BANK6   BANK7   BANK8   BANK9  BANK10  BANK1
      +1  BANK12
  6396 ;;      Params:         0       3       0       0       0       0       0       0       0       0       0       0       
      +0       0
  6397 ;;      Locals:         0       5       0       0       0       0       0       0       0       0       0       0       
      +0       0
  6398 ;;      Temps:          0       1       0       0       0       0       0       0       0       0       0       0       
      +0       0
  6399 ;;      Totals:         0       9       0       0       0       0       0       0       0       0       0       0       
      +0       0
  6400 ;;Total ram usage:        9 bytes
  6401 ;; Hardware stack levels used: 1
  6402 ;; Hardware stack levels required when called: 11
  6403 ;; This function calls:
  6404 ;;		_fputc
  6405 ;;		_fputs
  6406 ;;		_strlen
  6407 ;; This function is called by:
  6408 ;;		_dtoa
  6409 ;; This function uses a non-reentrant model
  6410 ;;
  6411                           
  6412  0548                     _pad:	
  6413                           ;psect for function _pad
  6414                           
  6415                           
  6416                           ;incstack = 0
  6417 ;; hardware stack exceeded
  6418                           ; Regs used in _pad: [wreg+fsr1l+fsr1h+status,2+status,0+pclath+cstack]
  6419                           ;pad@fp stored from wreg
  6420  0548  0020               	movlb	0	; select bank0
  6421  0549  00BD               	movwf	pad@fp
  6422  054A                     l3986:
  6423                           
  6424                           ;C:\Program Files\Microchip\xc8\v2.35\pic\sources\c99\common\doprnt.c: 72: static int pa
      +                          d(FILE *fp, char *buf, int p);C:\Program Files\Microchip\xc8\v2.35\pic\sources\c99\commo
      +                          n\doprnt.c: 73: {;C:\Program Files\Microchip\xc8\v2.35\pic\sources\c99\common\doprnt.c: 
      +                          74:     int i, w;;C:\Program Files\Microchip\xc8\v2.35\pic\sources\c99\common\doprnt.c: 
      +                          77:     if (flags & (1 << 0)) {
  6425  054A  1C6A               	btfss	_flags,0
  6426  054B  2D4D               	goto	u2441
  6427  054C  2D4E               	goto	u2440
  6428  054D                     u2441:
  6429  054D  2D56               	goto	l3990
  6430  054E                     u2440:
  6431  054E                     l3988:
  6432                           
  6433                           ;C:\Program Files\Microchip\xc8\v2.35\pic\sources\c99\common\doprnt.c: 78:         fputs
      +                          ((const char *)buf, fp);
  6434  054E  083D               	movf	pad@fp,w
  6435  054F  00B8               	movwf	??_pad
  6436  0550  0838               	movf	??_pad,w
  6437  0551  00AD               	movwf	fputs@fp
  6438  0552  0835               	movf	pad@buf,w
  6439  0553  318F  274E  3185   	fcall	_fputs
  6440  0556                     l3990:
  6441                           
  6442                           ;C:\Program Files\Microchip\xc8\v2.35\pic\sources\c99\common\doprnt.c: 82:     w = (p < 
      +                          0) ? 0 : p;
  6443  0556  0020               	movlb	0	; select bank0
  6444  0557  1BB7               	btfsc	pad@p+1,7
  6445  0558  2D5A               	goto	u2451
  6446  0559  2D5B               	goto	u2450
  6447  055A                     u2451:
  6448  055A  2D60               	goto	l3994
  6449  055B                     u2450:
  6450  055B                     l3992:
  6451  055B  0837               	movf	pad@p+1,w
  6452  055C  00BC               	movwf	pad@w+1
  6453  055D  0836               	movf	pad@p,w
  6454  055E  00BB               	movwf	pad@w
  6455  055F  2D62               	goto	l1450
  6456  0560                     l3994:
  6457  0560  01BB               	clrf	pad@w
  6458  0561  01BC               	clrf	pad@w+1
  6459  0562                     l1450:
  6460                           
  6461                           ;C:\Program Files\Microchip\xc8\v2.35\pic\sources\c99\common\doprnt.c: 83:     i = 0;
  6462  0562  01B9               	clrf	pad@i
  6463  0563  01BA               	clrf	pad@i+1
  6464                           
  6465                           ;C:\Program Files\Microchip\xc8\v2.35\pic\sources\c99\common\doprnt.c: 84:     while (i 
      +                          < w) {
  6466  0564  2D76               	goto	l4000
  6467  0565                     l3996:
  6468                           
  6469                           ;C:\Program Files\Microchip\xc8\v2.35\pic\sources\c99\common\doprnt.c: 85:         fputc
      +                          (' ', fp);
  6470  0565  3020               	movlw	32
  6471  0566  0020               	movlb	0	; select bank0
  6472  0567  00A5               	movwf	fputc@c
  6473  0568  3000               	movlw	0
  6474  0569  00A6               	movwf	fputc@c+1
  6475  056A  083D               	movf	pad@fp,w
  6476  056B  00B8               	movwf	??_pad
  6477  056C  0838               	movf	??_pad,w
  6478  056D  00A7               	movwf	fputc@fp
  6479  056E  3186  26D7  3185   	fcall	_fputc
  6480  0571                     l3998:
  6481                           
  6482                           ;C:\Program Files\Microchip\xc8\v2.35\pic\sources\c99\common\doprnt.c: 86:         ++i;
  6483  0571  3001               	movlw	1
  6484  0572  0020               	movlb	0	; select bank0
  6485  0573  07B9               	addwf	pad@i,f
  6486  0574  3000               	movlw	0
  6487  0575  3DBA               	addwfc	pad@i+1,f
  6488  0576                     l4000:
  6489                           
  6490                           ;C:\Program Files\Microchip\xc8\v2.35\pic\sources\c99\common\doprnt.c: 84:     while (i 
      +                          < w) {
  6491  0576  083A               	movf	pad@i+1,w
  6492  0577  3A80               	xorlw	128
  6493  0578  00B8               	movwf	??_pad
  6494  0579  083C               	movf	pad@w+1,w
  6495  057A  3A80               	xorlw	128
  6496  057B  0238               	subwf	??_pad,w
  6497  057C  1D03               	skipz
  6498  057D  2D80               	goto	u2465
  6499  057E  083B               	movf	pad@w,w
  6500  057F  0239               	subwf	pad@i,w
  6501  0580                     u2465:
  6502  0580  1C03               	skipc
  6503  0581  2D83               	goto	u2461
  6504  0582  2D84               	goto	u2460
  6505  0583                     u2461:
  6506  0583  2D65               	goto	l3996
  6507  0584                     u2460:
  6508  0584                     l1453:
  6509                           
  6510                           ;C:\Program Files\Microchip\xc8\v2.35\pic\sources\c99\common\doprnt.c: 90:     if (!(fla
      +                          gs & (1 << 0))) {
  6511  0584  0020               	movlb	0	; select bank0
  6512  0585  186A               	btfsc	_flags,0
  6513  0586  2D88               	goto	u2471
  6514  0587  2D89               	goto	u2470
  6515  0588                     u2471:
  6516  0588  2D91               	goto	l1454
  6517  0589                     u2470:
  6518  0589                     l4002:
  6519                           
  6520                           ;C:\Program Files\Microchip\xc8\v2.35\pic\sources\c99\common\doprnt.c: 91:         fputs
      +                          ((const char *)buf, fp);
  6521  0589  083D               	movf	pad@fp,w
  6522  058A  00B8               	movwf	??_pad
  6523  058B  0838               	movf	??_pad,w
  6524  058C  00AD               	movwf	fputs@fp
  6525  058D  0835               	movf	pad@buf,w
  6526  058E  318F  274E  3185   	fcall	_fputs
  6527  0591                     l1454:	
  6528                           ;C:\Program Files\Microchip\xc8\v2.35\pic\sources\c99\common\doprnt.c: 92:     }
  6529                           
  6530                           
  6531                           ;C:\Program Files\Microchip\xc8\v2.35\pic\sources\c99\common\doprnt.c: 94:     return (i
      +                          nt)(strlen(buf) + (size_t)w);
  6532  0591  0020               	movlb	0	; select bank0
  6533  0592  0835               	movf	pad@buf,w
  6534  0593  318E  2663  3185   	fcall	_strlen
  6535  0596  0020               	movlb	0	; select bank0
  6536  0597  083B               	movf	pad@w,w
  6537  0598  0723               	addwf	?_strlen,w
  6538  0599  00B5               	movwf	?_pad
  6539  059A  083C               	movf	pad@w+1,w
  6540  059B  3D24               	addwfc	?_strlen+1,w
  6541  059C  00B6               	movwf	?_pad+1
  6542  059D                     l1455:
  6543  059D  0008               	return
  6544  059E                     __end_of_pad:
  6545                           
  6546                           	psect	text18
  6547  0E63                     __ptext18:	
  6548 ;; *************** function _strlen *****************
  6549 ;; Defined at:
  6550 ;;		line 5 in file "C:\Program Files\Microchip\xc8\v2.35\pic\sources\c99\common\strlen.c"
  6551 ;; Parameters:    Size  Location     Type
  6552 ;;  s               1    wreg     PTR const unsigned char 
  6553 ;;		 -> dbuf(32), 
  6554 ;; Auto vars:     Size  Location     Type
  6555 ;;  s               1    7[BANK0 ] PTR const unsigned char 
  6556 ;;		 -> dbuf(32), 
  6557 ;;  a               1    6[BANK0 ] PTR const unsigned char 
  6558 ;;		 -> dbuf(32), 
  6559 ;; Return value:  Size  Location     Type
  6560 ;;                  2    3[BANK0 ] unsigned int 
  6561 ;; Registers used:
  6562 ;;		wreg, fsr1l, fsr1h, status,2, status,0
  6563 ;; Tracked objects:
  6564 ;;		On entry : 0/0
  6565 ;;		On exit  : 0/0
  6566 ;;		Unchanged: 0/0
  6567 ;; Data sizes:     COMMON   BANK0   BANK1   BANK2   BANK3   BANK4   BANK5   BANK6   BANK7   BANK8   BANK9  BANK10  BANK1
      +1  BANK12
  6568 ;;      Params:         0       2       0       0       0       0       0       0       0       0       0       0       
      +0       0
  6569 ;;      Locals:         0       2       0       0       0       0       0       0       0       0       0       0       
      +0       0
  6570 ;;      Temps:          0       1       0       0       0       0       0       0       0       0       0       0       
      +0       0
  6571 ;;      Totals:         0       5       0       0       0       0       0       0       0       0       0       0       
      +0       0
  6572 ;;Total ram usage:        5 bytes
  6573 ;; Hardware stack levels used: 1
  6574 ;; Hardware stack levels required when called: 7
  6575 ;; This function calls:
  6576 ;;		Nothing
  6577 ;; This function is called by:
  6578 ;;		_pad
  6579 ;; This function uses a non-reentrant model
  6580 ;;
  6581                           
  6582  0E63                     _strlen:	
  6583                           ;psect for function _strlen
  6584                           
  6585                           
  6586                           ;incstack = 0
  6587                           ; Regs used in _strlen: [wreg+fsr1l+fsr1h+status,2+status,0]
  6588                           ;strlen@s stored from wreg
  6589  0E63  0020               	movlb	0	; select bank0
  6590  0E64  00A7               	movwf	strlen@s
  6591  0E65                     l3908:
  6592  0E65  0827               	movf	strlen@s,w
  6593  0E66  00A5               	movwf	??_strlen
  6594  0E67  0825               	movf	??_strlen,w
  6595  0E68  00A6               	movwf	strlen@a
  6596  0E69  2E6E               	goto	l3912
  6597  0E6A                     l3910:
  6598  0E6A  3001               	movlw	1
  6599  0E6B  00A5               	movwf	??_strlen
  6600  0E6C  0825               	movf	??_strlen,w
  6601  0E6D  07A7               	addwf	strlen@s,f
  6602  0E6E                     l3912:
  6603  0E6E  0827               	movf	strlen@s,w
  6604  0E6F  0086               	movwf	6
  6605  0E70  3001               	movlw	1	; select bank2/3
  6606  0E71  0087               	movwf	7
  6607  0E72  0801               	movf	1,w
  6608  0E73  1D03               	btfss	3,2
  6609  0E74  2E76               	goto	u2221
  6610  0E75  2E77               	goto	u2220
  6611  0E76                     u2221:
  6612  0E76  2E6A               	goto	l3910
  6613  0E77                     u2220:
  6614  0E77                     l3914:
  6615  0E77  0826               	movf	strlen@a,w
  6616  0E78  0227               	subwf	strlen@s,w
  6617  0E79  00A3               	movwf	?_strlen
  6618  0E7A  01A4               	clrf	?_strlen+1
  6619  0E7B  1BA3               	btfsc	?_strlen,7
  6620  0E7C  03A4               	decf	?_strlen+1,f
  6621  0E7D                     l1528:
  6622  0E7D  0008               	return
  6623  0E7E                     __end_of_strlen:
  6624                           
  6625                           	psect	text19
  6626  0F4E                     __ptext19:	
  6627 ;; *************** function _fputs *****************
  6628 ;; Defined at:
  6629 ;;		line 8 in file "C:\Program Files\Microchip\xc8\v2.35\pic\sources\c99\common\nf_fputs.c"
  6630 ;; Parameters:    Size  Location     Type
  6631 ;;  s               1    wreg     PTR const unsigned char 
  6632 ;;		 -> dbuf(32), 
  6633 ;;  fp              1   13[BANK0 ] PTR struct _IO_FILE
  6634 ;;		 -> NULL(0), 
  6635 ;; Auto vars:     Size  Location     Type
  6636 ;;  s               1   20[BANK0 ] PTR const unsigned char 
  6637 ;;		 -> dbuf(32), 
  6638 ;;  i               2   18[BANK0 ] int 
  6639 ;;  c               1   17[BANK0 ] unsigned char 
  6640 ;; Return value:  Size  Location     Type
  6641 ;;                  2   13[BANK0 ] int 
  6642 ;; Registers used:
  6643 ;;		wreg, fsr1l, fsr1h, status,2, status,0, pclath, cstack
  6644 ;; Tracked objects:
  6645 ;;		On entry : 0/0
  6646 ;;		On exit  : 0/0
  6647 ;;		Unchanged: 0/0
  6648 ;; Data sizes:     COMMON   BANK0   BANK1   BANK2   BANK3   BANK4   BANK5   BANK6   BANK7   BANK8   BANK9  BANK10  BANK1
      +1  BANK12
  6649 ;;      Params:         0       1       0       0       0       0       0       0       0       0       0       0       
      +0       0
  6650 ;;      Locals:         0       4       0       0       0       0       0       0       0       0       0       0       
      +0       0
  6651 ;;      Temps:          0       3       0       0       0       0       0       0       0       0       0       0       
      +0       0
  6652 ;;      Totals:         0       8       0       0       0       0       0       0       0       0       0       0       
      +0       0
  6653 ;;Total ram usage:        8 bytes
  6654 ;; Hardware stack levels used: 1
  6655 ;; Hardware stack levels required when called: 10
  6656 ;; This function calls:
  6657 ;;		_fputc
  6658 ;; This function is called by:
  6659 ;;		_pad
  6660 ;; This function uses a non-reentrant model
  6661 ;;
  6662                           
  6663  0F4E                     _fputs:	
  6664                           ;psect for function _fputs
  6665                           
  6666                           
  6667                           ;incstack = 0
  6668 ;; hardware stack exceeded
  6669                           ; Regs used in _fputs: [wreg+fsr1l+fsr1h+status,2+status,0+pclath+cstack]
  6670                           ;fputs@s stored from wreg
  6671  0F4E  0020               	movlb	0	; select bank0
  6672  0F4F  00B4               	movwf	fputs@s
  6673  0F50                     l3900:
  6674  0F50  01B2               	clrf	fputs@i
  6675  0F51  01B3               	clrf	fputs@i+1
  6676  0F52  2F66               	goto	l3906
  6677  0F53                     l3902:
  6678  0F53  0831               	movf	fputs@c,w
  6679  0F54  00AE               	movwf	??_fputs
  6680  0F55  01AF               	clrf	??_fputs+1
  6681  0F56  082E               	movf	??_fputs,w
  6682  0F57  00A5               	movwf	fputc@c
  6683  0F58  082F               	movf	??_fputs+1,w
  6684  0F59  00A6               	movwf	fputc@c+1
  6685  0F5A  082D               	movf	fputs@fp,w
  6686  0F5B  00B0               	movwf	??_fputs+2
  6687  0F5C  0830               	movf	??_fputs+2,w
  6688  0F5D  00A7               	movwf	fputc@fp
  6689  0F5E  3186  26D7  318F   	fcall	_fputc
  6690  0F61                     l3904:
  6691  0F61  3001               	movlw	1
  6692  0F62  0020               	movlb	0	; select bank0
  6693  0F63  07B2               	addwf	fputs@i,f
  6694  0F64  3000               	movlw	0
  6695  0F65  3DB3               	addwfc	fputs@i+1,f
  6696  0F66                     l3906:
  6697  0F66  0832               	movf	fputs@i,w
  6698  0F67  0734               	addwf	fputs@s,w
  6699  0F68  00AE               	movwf	??_fputs
  6700  0F69  082E               	movf	??_fputs,w
  6701  0F6A  0086               	movwf	6
  6702  0F6B  3001               	movlw	1	; select bank2/3
  6703  0F6C  0087               	movwf	7
  6704  0F6D  0801               	movf	1,w
  6705  0F6E  00AF               	movwf	??_fputs+1
  6706  0F6F  082F               	movf	??_fputs+1,w
  6707  0F70  00B1               	movwf	fputs@c
  6708  0F71  0831               	movf	fputs@c,w
  6709  0F72  1D03               	btfss	3,2
  6710  0F73  2F75               	goto	u2211
  6711  0F74  2F76               	goto	u2210
  6712  0F75                     u2211:
  6713  0F75  2F53               	goto	l3902
  6714  0F76                     u2210:
  6715  0F76                     l1522:
  6716  0F76  0008               	return
  6717  0F77                     __end_of_fputs:
  6718                           
  6719                           	psect	text20
  6720  06D7                     __ptext20:	
  6721 ;; *************** function _fputc *****************
  6722 ;; Defined at:
  6723 ;;		line 8 in file "C:\Program Files\Microchip\xc8\v2.35\pic\sources\c99\common\nf_fputc.c"
  6724 ;; Parameters:    Size  Location     Type
  6725 ;;  c               2    5[BANK0 ] int 
  6726 ;;  fp              1    7[BANK0 ] PTR struct _IO_FILE
  6727 ;;		 -> NULL(0), 
  6728 ;; Auto vars:     Size  Location     Type
  6729 ;;		None
  6730 ;; Return value:  Size  Location     Type
  6731 ;;                  2    5[BANK0 ] int 
  6732 ;; Registers used:
  6733 ;;		wreg, fsr1l, fsr1h, status,2, status,0, pclath, cstack
  6734 ;; Tracked objects:
  6735 ;;		On entry : 0/0
  6736 ;;		On exit  : 0/0
  6737 ;;		Unchanged: 0/0
  6738 ;; Data sizes:     COMMON   BANK0   BANK1   BANK2   BANK3   BANK4   BANK5   BANK6   BANK7   BANK8   BANK9  BANK10  BANK1
      +1  BANK12
  6739 ;;      Params:         0       3       0       0       0       0       0       0       0       0       0       0       
      +0       0
  6740 ;;      Locals:         0       0       0       0       0       0       0       0       0       0       0       0       
      +0       0
  6741 ;;      Temps:          0       5       0       0       0       0       0       0       0       0       0       0       
      +0       0
  6742 ;;      Totals:         0       8       0       0       0       0       0       0       0       0       0       0       
      +0       0
  6743 ;;Total ram usage:        8 bytes
  6744 ;; Hardware stack levels used: 1
  6745 ;; Hardware stack levels required when called: 9
  6746 ;; This function calls:
  6747 ;;		_putch
  6748 ;; This function is called by:
  6749 ;;		_pad
  6750 ;;		_vfpfcnvrt
  6751 ;;		_fputs
  6752 ;; This function uses a non-reentrant model
  6753 ;;
  6754                           
  6755  06D7                     _fputc:	
  6756                           ;psect for function _fputc
  6757                           
  6758  06D7                     l3886:	
  6759                           ;incstack = 0
  6760                           ; Regs used in _fputc: [wreg+fsr1l+fsr1h+status,2+status,0+pclath+cstack]
  6761                           
  6762  06D7  0020               	movlb	0	; select bank0
  6763  06D8  0827               	movf	fputc@fp,w
  6764  06D9  1903               	btfsc	3,2
  6765  06DA  2EDC               	goto	u2171
  6766  06DB  2EDD               	goto	u2170
  6767  06DC                     u2171:
  6768  06DC  2EE2               	goto	l3890
  6769  06DD                     u2170:
  6770  06DD                     l3888:
  6771  06DD  0827               	movf	fputc@fp,w
  6772  06DE  1D03               	btfss	3,2
  6773  06DF  2EE1               	goto	u2181
  6774  06E0  2EE2               	goto	u2180
  6775  06E1                     u2181:
  6776  06E1  2EE7               	goto	l3892
  6777  06E2                     u2180:
  6778  06E2                     l3890:
  6779  06E2  0825               	movf	fputc@c,w
  6780  06E3  318C  24D4  3186   	fcall	_putch
  6781  06E6  2F19               	goto	l1514
  6782  06E7                     l3892:
  6783  06E7  0827               	movf	fputc@fp,w
  6784  06E8  3E08               	addlw	8
  6785  06E9  0086               	movwf	6
  6786  06EA  0187               	clrf	7
  6787  06EB  0016               	moviw fsr1++
  6788  06EC  0401               	iorwf	1,w
  6789  06ED  1903               	btfsc	3,2
  6790  06EE  2EF0               	goto	u2191
  6791  06EF  2EF1               	goto	u2190
  6792  06F0                     u2191:
  6793  06F0  2F0F               	goto	l3896
  6794  06F1                     u2190:
  6795  06F1                     l3894:
  6796  06F1  0827               	movf	fputc@fp,w
  6797  06F2  3E08               	addlw	8
  6798  06F3  0086               	movwf	6
  6799  06F4  0187               	clrf	7
  6800  06F5  3F40               	moviw [0]fsr1
  6801  06F6  00A8               	movwf	??_fputc
  6802  06F7  3F41               	moviw [1]fsr1
  6803  06F8  00A9               	movwf	??_fputc+1
  6804  06F9  0827               	movf	fputc@fp,w
  6805  06FA  3E02               	addlw	2
  6806  06FB  0086               	movwf	6
  6807  06FC  0187               	clrf	7
  6808  06FD  3F40               	moviw [0]fsr1
  6809  06FE  00AA               	movwf	??_fputc+2
  6810  06FF  3F41               	moviw [1]fsr1
  6811  0700  00AB               	movwf	??_fputc+3
  6812  0701  082B               	movf	??_fputc+3,w
  6813  0702  3A80               	xorlw	128
  6814  0703  00AC               	movwf	??_fputc+4
  6815  0704  0829               	movf	??_fputc+1,w
  6816  0705  3A80               	xorlw	128
  6817  0706  022C               	subwf	??_fputc+4,w
  6818  0707  1D03               	skipz
  6819  0708  2F0B               	goto	u2205
  6820  0709  0828               	movf	??_fputc,w
  6821  070A  022A               	subwf	??_fputc+2,w
  6822  070B                     u2205:
  6823  070B  1803               	skipnc
  6824  070C  2F0E               	goto	u2201
  6825  070D  2F0F               	goto	u2200
  6826  070E                     u2201:
  6827  070E  2F19               	goto	l1514
  6828  070F                     u2200:
  6829  070F                     l3896:
  6830  070F  0020               	movlb	0	; select bank0
  6831  0710  0827               	movf	fputc@fp,w
  6832  0711  3E02               	addlw	2
  6833  0712  0086               	movwf	6
  6834  0713  0187               	clrf	7
  6835  0714  3001               	movlw	1
  6836  0715  0781               	addwf	1,f
  6837  0716  3141               	addfsr 1,1
  6838  0717  1803               	skipnc
  6839  0718  0A81               	incf	1,f
  6840  0719                     l1514:
  6841  0719  0008               	return
  6842  071A                     __end_of_fputc:
  6843                           
  6844                           	psect	text21
  6845  0CD4                     __ptext21:	
  6846 ;; *************** function _putch *****************
  6847 ;; Defined at:
  6848 ;;		line 146 in file "mcc_generated_files/eusart.c"
  6849 ;; Parameters:    Size  Location     Type
  6850 ;;  txData          1    wreg     unsigned char 
  6851 ;; Auto vars:     Size  Location     Type
  6852 ;;  txData          1    4[BANK0 ] unsigned char 
  6853 ;; Return value:  Size  Location     Type
  6854 ;;                  1    wreg      void 
  6855 ;; Registers used:
  6856 ;;		wreg, status,2, status,0, pclath, cstack
  6857 ;; Tracked objects:
  6858 ;;		On entry : 0/0
  6859 ;;		On exit  : 0/0
  6860 ;;		Unchanged: 0/0
  6861 ;; Data sizes:     COMMON   BANK0   BANK1   BANK2   BANK3   BANK4   BANK5   BANK6   BANK7   BANK8   BANK9  BANK10  BANK1
      +1  BANK12
  6862 ;;      Params:         0       0       0       0       0       0       0       0       0       0       0       0       
      +0       0
  6863 ;;      Locals:         0       1       0       0       0       0       0       0       0       0       0       0       
      +0       0
  6864 ;;      Temps:          0       0       0       0       0       0       0       0       0       0       0       0       
      +0       0
  6865 ;;      Totals:         0       1       0       0       0       0       0       0       0       0       0       0       
      +0       0
  6866 ;;Total ram usage:        1 bytes
  6867 ;; Hardware stack levels used: 1
  6868 ;; Hardware stack levels required when called: 8
  6869 ;; This function calls:
  6870 ;;		_EUSART_Write
  6871 ;; This function is called by:
  6872 ;;		_fputc
  6873 ;; This function uses a non-reentrant model
  6874 ;;
  6875                           
  6876  0CD4                     _putch:	
  6877                           ;psect for function _putch
  6878                           
  6879                           
  6880                           ;incstack = 0
  6881                           ; Regs used in _putch: [wreg+status,2+status,0+pclath+cstack]
  6882                           ;putch@txData stored from wreg
  6883  0CD4  0020               	movlb	0	; select bank0
  6884  0CD5  00A4               	movwf	putch@txData
  6885  0CD6                     l3884:
  6886                           
  6887                           ;mcc_generated_files/eusart.c: 146: void putch(char txData);mcc_generated_files/eusart.c
      +                          : 147: {;mcc_generated_files/eusart.c: 148:     EUSART_Write(txData);
  6888  0CD6  0824               	movf	putch@txData,w
  6889  0CD7  318D  252A  318C   	fcall	_EUSART_Write
  6890  0CDA                     l414:
  6891  0CDA  0008               	return
  6892  0CDB                     __end_of_putch:
  6893                           
  6894                           	psect	text22
  6895  0D2A                     __ptext22:	
  6896 ;; *************** function _EUSART_Write *****************
  6897 ;; Defined at:
  6898 ;;		line 132 in file "mcc_generated_files/eusart.c"
  6899 ;; Parameters:    Size  Location     Type
  6900 ;;  txData          1    wreg     unsigned char 
  6901 ;; Auto vars:     Size  Location     Type
  6902 ;;  txData          1    3[BANK0 ] unsigned char 
  6903 ;; Return value:  Size  Location     Type
  6904 ;;                  1    wreg      void 
  6905 ;; Registers used:
  6906 ;;		wreg
  6907 ;; Tracked objects:
  6908 ;;		On entry : 0/0
  6909 ;;		On exit  : 0/0
  6910 ;;		Unchanged: 0/0
  6911 ;; Data sizes:     COMMON   BANK0   BANK1   BANK2   BANK3   BANK4   BANK5   BANK6   BANK7   BANK8   BANK9  BANK10  BANK1
      +1  BANK12
  6912 ;;      Params:         0       0       0       0       0       0       0       0       0       0       0       0       
      +0       0
  6913 ;;      Locals:         0       1       0       0       0       0       0       0       0       0       0       0       
      +0       0
  6914 ;;      Temps:          0       0       0       0       0       0       0       0       0       0       0       0       
      +0       0
  6915 ;;      Totals:         0       1       0       0       0       0       0       0       0       0       0       0       
      +0       0
  6916 ;;Total ram usage:        1 bytes
  6917 ;; Hardware stack levels used: 1
  6918 ;; Hardware stack levels required when called: 7
  6919 ;; This function calls:
  6920 ;;		Nothing
  6921 ;; This function is called by:
  6922 ;;		_putch
  6923 ;; This function uses a non-reentrant model
  6924 ;;
  6925                           
  6926  0D2A                     _EUSART_Write:	
  6927                           ;psect for function _EUSART_Write
  6928                           
  6929                           
  6930                           ;incstack = 0
  6931                           ; Regs used in _EUSART_Write: [wreg]
  6932                           ;EUSART_Write@txData stored from wreg
  6933  0D2A  0020               	movlb	0	; select bank0
  6934  0D2B  00A3               	movwf	EUSART_Write@txData
  6935  0D2C                     l3880:
  6936  0D2C                     l405:	
  6937                           ;mcc_generated_files/eusart.c: 135:     {;mcc_generated_files/eusart.c: 136:     }
  6938                           
  6939                           
  6940                           ;mcc_generated_files/eusart.c: 134:     while(0 == PIR1bits.TXIF)
  6941  0D2C  1E11               	btfss	17,4	;volatile
  6942  0D2D  2D2F               	goto	u2161
  6943  0D2E  2D30               	goto	u2160
  6944  0D2F                     u2161:
  6945  0D2F  2D2C               	goto	l405
  6946  0D30                     u2160:
  6947  0D30                     l3882:
  6948                           
  6949                           ;mcc_generated_files/eusart.c: 138:     TX1REG = txData;
  6950  0D30  0823               	movf	EUSART_Write@txData,w
  6951  0D31  0023               	movlb	3	; select bank3
  6952  0D32  009A               	movwf	26	;volatile
  6953  0D33                     l408:
  6954  0D33  0008               	return
  6955  0D34                     __end_of_EUSART_Write:
  6956                           
  6957                           	psect	text23
  6958  0E7E                     __ptext23:	
  6959 ;; *************** function _abs *****************
  6960 ;; Defined at:
  6961 ;;		line 1 in file "C:\Program Files\Microchip\xc8\v2.35\pic\sources\c99\common\abs.c"
  6962 ;; Parameters:    Size  Location     Type
  6963 ;;  a               2   22[BANK0 ] int 
  6964 ;; Auto vars:     Size  Location     Type
  6965 ;;		None
  6966 ;; Return value:  Size  Location     Type
  6967 ;;                  2   22[BANK0 ] int 
  6968 ;; Registers used:
  6969 ;;		wreg, status,2, status,0
  6970 ;; Tracked objects:
  6971 ;;		On entry : 0/0
  6972 ;;		On exit  : 0/0
  6973 ;;		Unchanged: 0/0
  6974 ;; Data sizes:     COMMON   BANK0   BANK1   BANK2   BANK3   BANK4   BANK5   BANK6   BANK7   BANK8   BANK9  BANK10  BANK1
      +1  BANK12
  6975 ;;      Params:         0       2       0       0       0       0       0       0       0       0       0       0       
      +0       0
  6976 ;;      Locals:         0       0       0       0       0       0       0       0       0       0       0       0       
      +0       0
  6977 ;;      Temps:          0       2       0       0       0       0       0       0       0       0       0       0       
      +0       0
  6978 ;;      Totals:         0       4       0       0       0       0       0       0       0       0       0       0       
      +0       0
  6979 ;;Total ram usage:        4 bytes
  6980 ;; Hardware stack levels used: 1
  6981 ;; Hardware stack levels required when called: 7
  6982 ;; This function calls:
  6983 ;;		Nothing
  6984 ;; This function is called by:
  6985 ;;		_dtoa
  6986 ;; This function uses a non-reentrant model
  6987 ;;
  6988                           
  6989  0E7E                     _abs:	
  6990                           ;psect for function _abs
  6991                           
  6992  0E7E                     l4006:	
  6993                           ;incstack = 0
  6994                           ; Regs used in _abs: [wreg+status,2+status,0]
  6995                           
  6996  0E7E  0020               	movlb	0	; select bank0
  6997  0E7F  0837               	movf	abs@a+1,w
  6998  0E80  3A80               	xorlw	128
  6999  0E81  00B8               	movwf	??_abs
  7000  0E82  3080               	movlw	128
  7001  0E83  0238               	subwf	??_abs,w
  7002  0E84  1D03               	skipz
  7003  0E85  2E88               	goto	u2485
  7004  0E86  3001               	movlw	1
  7005  0E87  0236               	subwf	abs@a,w
  7006  0E88                     u2485:
  7007  0E88  1803               	skipnc
  7008  0E89  2E8B               	goto	u2481
  7009  0E8A  2E8C               	goto	u2480
  7010  0E8B                     u2481:
  7011  0E8B  2E99               	goto	l1499
  7012  0E8C                     u2480:
  7013  0E8C                     l4008:
  7014  0E8C  0020               	movlb	0	; select bank0
  7015  0E8D  0936               	comf	abs@a,w
  7016  0E8E  00B8               	movwf	??_abs
  7017  0E8F  0937               	comf	abs@a+1,w
  7018  0E90  00B9               	movwf	??_abs+1
  7019  0E91  0AB8               	incf	??_abs,f
  7020  0E92  1903               	skipnz
  7021  0E93  0AB9               	incf	??_abs+1,f
  7022  0E94  0838               	movf	??_abs,w
  7023  0E95  00B6               	movwf	?_abs
  7024  0E96  0839               	movf	??_abs+1,w
  7025  0E97  00B7               	movwf	?_abs+1
  7026  0E98  2E99               	goto	l1502
  7027  0E99                     l1499:
  7028  0E99                     l1502:
  7029  0E99  0008               	return
  7030  0E9A                     __end_of_abs:
  7031                           
  7032                           	psect	text24
  7033  03AE                     __ptext24:	
  7034 ;; *************** function ___aomod *****************
  7035 ;; Defined at:
  7036 ;;		line 7 in file "C:\Program Files\Microchip\xc8\v2.35\pic\sources\c99\common\aomod.c"
  7037 ;; Parameters:    Size  Location     Type
  7038 ;;  divisor         8    3[BANK0 ] long long 
  7039 ;;  dividend        8   11[BANK0 ] long long 
  7040 ;; Auto vars:     Size  Location     Type
  7041 ;;  sign            1   21[BANK0 ] unsigned char 
  7042 ;;  counter         1   20[BANK0 ] unsigned char 
  7043 ;; Return value:  Size  Location     Type
  7044 ;;                  8    3[BANK0 ] long long 
  7045 ;; Registers used:
  7046 ;;		wreg, fsr1l, fsr1h, status,2, status,0
  7047 ;; Tracked objects:
  7048 ;;		On entry : 0/0
  7049 ;;		On exit  : 0/0
  7050 ;;		Unchanged: 0/0
  7051 ;; Data sizes:     COMMON   BANK0   BANK1   BANK2   BANK3   BANK4   BANK5   BANK6   BANK7   BANK8   BANK9  BANK10  BANK1
      +1  BANK12
  7052 ;;      Params:         0      16       0       0       0       0       0       0       0       0       0       0       
      +0       0
  7053 ;;      Locals:         0       2       0       0       0       0       0       0       0       0       0       0       
      +0       0
  7054 ;;      Temps:          0       1       0       0       0       0       0       0       0       0       0       0       
      +0       0
  7055 ;;      Totals:         0      19       0       0       0       0       0       0       0       0       0       0       
      +0       0
  7056 ;;Total ram usage:       19 bytes
  7057 ;; Hardware stack levels used: 1
  7058 ;; Hardware stack levels required when called: 7
  7059 ;; This function calls:
  7060 ;;		Nothing
  7061 ;; This function is called by:
  7062 ;;		_dtoa
  7063 ;; This function uses a non-reentrant model
  7064 ;;
  7065                           
  7066  03AE                     ___aomod:	
  7067                           ;psect for function ___aomod
  7068                           
  7069  03AE                     l3956:	
  7070                           ;incstack = 0
  7071                           ; Regs used in ___aomod: [wreg+fsr1l+fsr1h+status,2+status,0]
  7072                           
  7073  03AE  0020               	movlb	0	; select bank0
  7074  03AF  01B5               	clrf	___aomod@sign
  7075  03B0                     l3958:
  7076  03B0  302B               	movlw	low ___aomod@dividend
  7077  03B1  0086               	movwf	6
  7078  03B2  3000               	movlw	high ___aomod@dividend
  7079  03B3  0087               	movwf	7
  7080  03B4  3F47               	moviw [7]fsr1
  7081  03B5  00B3               	movwf	??___aomod
  7082  03B6  1FB3               	btfss	??___aomod,7
  7083  03B7  2BB9               	goto	u2341
  7084  03B8  2BBA               	goto	u2340
  7085  03B9                     u2341:
  7086  03B9  2BDC               	goto	l3962
  7087  03BA                     u2340:
  7088  03BA                     l3960:
  7089  03BA  0020               	movlb	0	; select bank0
  7090  03BB  09AB               	comf	___aomod@dividend,f
  7091  03BC  09AC               	comf	___aomod@dividend+1,f
  7092  03BD  09AD               	comf	___aomod@dividend+2,f
  7093  03BE  09AE               	comf	___aomod@dividend+3,f
  7094  03BF  09AF               	comf	___aomod@dividend+4,f
  7095  03C0  09B0               	comf	___aomod@dividend+5,f
  7096  03C1  09B1               	comf	___aomod@dividend+6,f
  7097  03C2  09B2               	comf	___aomod@dividend+7,f
  7098  03C3  0AAB               	incf	___aomod@dividend,f
  7099  03C4  1D03               	skipz
  7100  03C5  2BD9               	goto	u235lld
  7101  03C6  0AAC               	incf	___aomod@dividend+1,f
  7102  03C7  1D03               	skipz
  7103  03C8  2BD9               	goto	u235lld
  7104  03C9  0AAD               	incf	___aomod@dividend+2,f
  7105  03CA  1D03               	skipz
  7106  03CB  2BD9               	goto	u235lld
  7107  03CC  0AAE               	incf	___aomod@dividend+3,f
  7108  03CD  1D03               	skipz
  7109  03CE  2BD9               	goto	u235lld
  7110  03CF  0AAF               	incf	___aomod@dividend+4,f
  7111  03D0  1D03               	skipz
  7112  03D1  2BD9               	goto	u235lld
  7113  03D2  0AB0               	incf	___aomod@dividend+5,f
  7114  03D3  1D03               	skipz
  7115  03D4  2BD9               	goto	u235lld
  7116  03D5  0AB1               	incf	___aomod@dividend+6,f
  7117  03D6  1D03               	skipz
  7118  03D7  2BD9               	goto	u235lld
  7119  03D8  0AB2               	incf	___aomod@dividend+7,f
  7120  03D9                     u235lld:
  7121  03D9  0020               	movlb	0	; select bank0
  7122  03DA  01B5               	clrf	___aomod@sign
  7123  03DB  0AB5               	incf	___aomod@sign,f
  7124  03DC                     l3962:
  7125  03DC  3023               	movlw	low ___aomod@divisor
  7126  03DD  0086               	movwf	6
  7127  03DE  3000               	movlw	high ___aomod@divisor
  7128  03DF  0087               	movwf	7
  7129  03E0  3F47               	moviw [7]fsr1
  7130  03E1  0020               	movlb	0	; select bank0
  7131  03E2  00B3               	movwf	??___aomod
  7132  03E3  1FB3               	btfss	??___aomod,7
  7133  03E4  2BE6               	goto	u2361
  7134  03E5  2BE7               	goto	u2360
  7135  03E6                     u2361:
  7136  03E6  2C06               	goto	l3966
  7137  03E7                     u2360:
  7138  03E7                     l3964:
  7139  03E7  0020               	movlb	0	; select bank0
  7140  03E8  09A3               	comf	___aomod@divisor,f
  7141  03E9  09A4               	comf	___aomod@divisor+1,f
  7142  03EA  09A5               	comf	___aomod@divisor+2,f
  7143  03EB  09A6               	comf	___aomod@divisor+3,f
  7144  03EC  09A7               	comf	___aomod@divisor+4,f
  7145  03ED  09A8               	comf	___aomod@divisor+5,f
  7146  03EE  09A9               	comf	___aomod@divisor+6,f
  7147  03EF  09AA               	comf	___aomod@divisor+7,f
  7148  03F0  0AA3               	incf	___aomod@divisor,f
  7149  03F1  1D03               	skipz
  7150  03F2  2C06               	goto	u237lld
  7151  03F3  0AA4               	incf	___aomod@divisor+1,f
  7152  03F4  1D03               	skipz
  7153  03F5  2C06               	goto	u237lld
  7154  03F6  0AA5               	incf	___aomod@divisor+2,f
  7155  03F7  1D03               	skipz
  7156  03F8  2C06               	goto	u237lld
  7157  03F9  0AA6               	incf	___aomod@divisor+3,f
  7158  03FA  1D03               	skipz
  7159  03FB  2C06               	goto	u237lld
  7160  03FC  0AA7               	incf	___aomod@divisor+4,f
  7161  03FD  1D03               	skipz
  7162  03FE  2C06               	goto	u237lld
  7163  03FF  0AA8               	incf	___aomod@divisor+5,f
  7164  0400  1D03               	skipz
  7165  0401  2C06               	goto	u237lld
  7166  0402  0AA9               	incf	___aomod@divisor+6,f
  7167  0403  1D03               	skipz
  7168  0404  2C06               	goto	u237lld
  7169  0405  0AAA               	incf	___aomod@divisor+7,f
  7170  0406                     u237lld:
  7171  0406                     l3966:
  7172  0406  0020               	movlb	0	; select bank0
  7173  0407  0823               	movf	___aomod@divisor,w
  7174  0408  0424               	iorwf	___aomod@divisor+1,w
  7175  0409  0425               	iorwf	___aomod@divisor+2,w
  7176  040A  0426               	iorwf	___aomod@divisor+3,w
  7177  040B  0427               	iorwf	___aomod@divisor+4,w
  7178  040C  0428               	iorwf	___aomod@divisor+5,w
  7179  040D  0429               	iorwf	___aomod@divisor+6,w
  7180  040E  042A               	iorwf	___aomod@divisor+7,w
  7181  040F  1903               	skipnz
  7182  0410  2C12               	goto	u2381
  7183  0411  2C13               	goto	u2380
  7184  0412                     u2381:
  7185  0412  2C66               	goto	l3982
  7186  0413                     u2380:
  7187  0413                     l3968:
  7188  0413  01B4               	clrf	___aomod@counter
  7189  0414  0AB4               	incf	___aomod@counter,f
  7190  0415  2C22               	goto	l3974
  7191  0416                     l3970:
  7192  0416  35A3               	lslf	___aomod@divisor,f
  7193  0417  0DA4               	rlf	___aomod@divisor+1,f
  7194  0418  0DA5               	rlf	___aomod@divisor+2,f
  7195  0419  0DA6               	rlf	___aomod@divisor+3,f
  7196  041A  0DA7               	rlf	___aomod@divisor+4,f
  7197  041B  0DA8               	rlf	___aomod@divisor+5,f
  7198  041C  0DA9               	rlf	___aomod@divisor+6,f
  7199  041D  0DAA               	rlf	___aomod@divisor+7,f
  7200  041E                     l3972:
  7201  041E  3001               	movlw	1
  7202  041F  00B3               	movwf	??___aomod
  7203  0420  0833               	movf	??___aomod,w
  7204  0421  07B4               	addwf	___aomod@counter,f
  7205  0422                     l3974:
  7206  0422  1FAA               	btfss	___aomod@divisor+7,7
  7207  0423  2C25               	goto	u2391
  7208  0424  2C26               	goto	u2390
  7209  0425                     u2391:
  7210  0425  2C16               	goto	l3970
  7211  0426                     u2390:
  7212  0426                     l3976:
  7213  0426  082A               	movf	___aomod@divisor+7,w
  7214  0427  0232               	subwf	___aomod@dividend+7,w
  7215  0428  1D03               	skipz
  7216  0429  2C44               	goto	u2405
  7217  042A  0829               	movf	___aomod@divisor+6,w
  7218  042B  0231               	subwf	___aomod@dividend+6,w
  7219  042C  1D03               	skipz
  7220  042D  2C44               	goto	u2405
  7221  042E  0828               	movf	___aomod@divisor+5,w
  7222  042F  0230               	subwf	___aomod@dividend+5,w
  7223  0430  1D03               	skipz
  7224  0431  2C44               	goto	u2405
  7225  0432  0827               	movf	___aomod@divisor+4,w
  7226  0433  022F               	subwf	___aomod@dividend+4,w
  7227  0434  1D03               	skipz
  7228  0435  2C44               	goto	u2405
  7229  0436  0826               	movf	___aomod@divisor+3,w
  7230  0437  022E               	subwf	___aomod@dividend+3,w
  7231  0438  1D03               	skipz
  7232  0439  2C44               	goto	u2405
  7233  043A  0825               	movf	___aomod@divisor+2,w
  7234  043B  022D               	subwf	___aomod@dividend+2,w
  7235  043C  1D03               	skipz
  7236  043D  2C44               	goto	u2405
  7237  043E  0824               	movf	___aomod@divisor+1,w
  7238  043F  022C               	subwf	___aomod@dividend+1,w
  7239  0440  1D03               	skipz
  7240  0441  2C44               	goto	u2405
  7241  0442  0823               	movf	___aomod@divisor,w
  7242  0443  022B               	subwf	___aomod@dividend,w
  7243  0444                     u2405:
  7244  0444  1C03               	skipc
  7245  0445  2C47               	goto	u2401
  7246  0446  2C48               	goto	u2400
  7247  0447                     u2401:
  7248  0447  2C58               	goto	l3980
  7249  0448                     u2400:
  7250  0448                     l3978:
  7251  0448  0823               	movf	___aomod@divisor,w
  7252  0449  02AB               	subwf	___aomod@dividend,f
  7253  044A  0824               	movf	___aomod@divisor+1,w
  7254  044B  3BAC               	subwfb	___aomod@dividend+1,f
  7255  044C  0825               	movf	___aomod@divisor+2,w
  7256  044D  3BAD               	subwfb	___aomod@dividend+2,f
  7257  044E  0826               	movf	___aomod@divisor+3,w
  7258  044F  3BAE               	subwfb	___aomod@dividend+3,f
  7259  0450  0827               	movf	___aomod@divisor+4,w
  7260  0451  3BAF               	subwfb	___aomod@dividend+4,f
  7261  0452  0828               	movf	___aomod@divisor+5,w
  7262  0453  3BB0               	subwfb	___aomod@dividend+5,f
  7263  0454  0829               	movf	___aomod@divisor+6,w
  7264  0455  3BB1               	subwfb	___aomod@dividend+6,f
  7265  0456  082A               	movf	___aomod@divisor+7,w
  7266  0457  3BB2               	subwfb	___aomod@dividend+7,f
  7267  0458                     l3980:
  7268  0458  36AA               	lsrf	___aomod@divisor+7,f
  7269  0459  0CA9               	rrf	___aomod@divisor+6,f
  7270  045A  0CA8               	rrf	___aomod@divisor+5,f
  7271  045B  0CA7               	rrf	___aomod@divisor+4,f
  7272  045C  0CA6               	rrf	___aomod@divisor+3,f
  7273  045D  0CA5               	rrf	___aomod@divisor+2,f
  7274  045E  0CA4               	rrf	___aomod@divisor+1,f
  7275  045F  0CA3               	rrf	___aomod@divisor,f
  7276  0460  3001               	movlw	1
  7277  0461  02B4               	subwf	___aomod@counter,f
  7278  0462  1D03               	btfss	3,2
  7279  0463  2C65               	goto	u2411
  7280  0464  2C66               	goto	u2410
  7281  0465                     u2411:
  7282  0465  2C26               	goto	l3976
  7283  0466                     u2410:
  7284  0466                     l3982:
  7285  0466  0835               	movf	___aomod@sign,w
  7286  0467  1903               	btfsc	3,2
  7287  0468  2C6A               	goto	u2421
  7288  0469  2C6B               	goto	u2420
  7289  046A                     u2421:
  7290  046A  2C89               	goto	l1073
  7291  046B                     u2420:
  7292  046B                     l3984:
  7293  046B  09AB               	comf	___aomod@dividend,f
  7294  046C  09AC               	comf	___aomod@dividend+1,f
  7295  046D  09AD               	comf	___aomod@dividend+2,f
  7296  046E  09AE               	comf	___aomod@dividend+3,f
  7297  046F  09AF               	comf	___aomod@dividend+4,f
  7298  0470  09B0               	comf	___aomod@dividend+5,f
  7299  0471  09B1               	comf	___aomod@dividend+6,f
  7300  0472  09B2               	comf	___aomod@dividend+7,f
  7301  0473  0AAB               	incf	___aomod@dividend,f
  7302  0474  1D03               	skipz
  7303  0475  2C89               	goto	u243lld
  7304  0476  0AAC               	incf	___aomod@dividend+1,f
  7305  0477  1D03               	skipz
  7306  0478  2C89               	goto	u243lld
  7307  0479  0AAD               	incf	___aomod@dividend+2,f
  7308  047A  1D03               	skipz
  7309  047B  2C89               	goto	u243lld
  7310  047C  0AAE               	incf	___aomod@dividend+3,f
  7311  047D  1D03               	skipz
  7312  047E  2C89               	goto	u243lld
  7313  047F  0AAF               	incf	___aomod@dividend+4,f
  7314  0480  1D03               	skipz
  7315  0481  2C89               	goto	u243lld
  7316  0482  0AB0               	incf	___aomod@dividend+5,f
  7317  0483  1D03               	skipz
  7318  0484  2C89               	goto	u243lld
  7319  0485  0AB1               	incf	___aomod@dividend+6,f
  7320  0486  1D03               	skipz
  7321  0487  2C89               	goto	u243lld
  7322  0488  0AB2               	incf	___aomod@dividend+7,f
  7323  0489                     u243lld:
  7324  0489                     l1073:
  7325  0489  0020               	movlb	0	; select bank0
  7326  048A  082B               	movf	___aomod@dividend,w
  7327  048B  00A3               	movwf	?___aomod
  7328  048C  082C               	movf	___aomod@dividend+1,w
  7329  048D  00A4               	movwf	?___aomod+1
  7330  048E  082D               	movf	___aomod@dividend+2,w
  7331  048F  00A5               	movwf	?___aomod+2
  7332  0490  082E               	movf	___aomod@dividend+3,w
  7333  0491  00A6               	movwf	?___aomod+3
  7334  0492  082F               	movf	___aomod@dividend+4,w
  7335  0493  00A7               	movwf	?___aomod+4
  7336  0494  0830               	movf	___aomod@dividend+5,w
  7337  0495  00A8               	movwf	?___aomod+5
  7338  0496  0831               	movf	___aomod@dividend+6,w
  7339  0497  00A9               	movwf	?___aomod+6
  7340  0498  0832               	movf	___aomod@dividend+7,w
  7341  0499  00AA               	movwf	?___aomod+7
  7342  049A                     l1074:
  7343  049A  0008               	return
  7344  049B                     __end_of___aomod:
  7345                           
  7346                           	psect	text25
  7347  01B4                     __ptext25:	
  7348 ;; *************** function ___aodiv *****************
  7349 ;; Defined at:
  7350 ;;		line 7 in file "C:\Program Files\Microchip\xc8\v2.35\pic\sources\c99\common\aodiv.c"
  7351 ;; Parameters:    Size  Location     Type
  7352 ;;  divisor         8    3[BANK0 ] long long 
  7353 ;;  dividend        8   11[BANK0 ] long long 
  7354 ;; Auto vars:     Size  Location     Type
  7355 ;;  quotient        8   22[BANK0 ] long long 
  7356 ;;  sign            1   21[BANK0 ] unsigned char 
  7357 ;;  counter         1   20[BANK0 ] unsigned char 
  7358 ;; Return value:  Size  Location     Type
  7359 ;;                  8    3[BANK0 ] long long 
  7360 ;; Registers used:
  7361 ;;		wreg, fsr1l, fsr1h, status,2, status,0
  7362 ;; Tracked objects:
  7363 ;;		On entry : 0/0
  7364 ;;		On exit  : 0/0
  7365 ;;		Unchanged: 0/0
  7366 ;; Data sizes:     COMMON   BANK0   BANK1   BANK2   BANK3   BANK4   BANK5   BANK6   BANK7   BANK8   BANK9  BANK10  BANK1
      +1  BANK12
  7367 ;;      Params:         0      16       0       0       0       0       0       0       0       0       0       0       
      +0       0
  7368 ;;      Locals:         0      10       0       0       0       0       0       0       0       0       0       0       
      +0       0
  7369 ;;      Temps:          0       1       0       0       0       0       0       0       0       0       0       0       
      +0       0
  7370 ;;      Totals:         0      27       0       0       0       0       0       0       0       0       0       0       
      +0       0
  7371 ;;Total ram usage:       27 bytes
  7372 ;; Hardware stack levels used: 1
  7373 ;; Hardware stack levels required when called: 7
  7374 ;; This function calls:
  7375 ;;		Nothing
  7376 ;; This function is called by:
  7377 ;;		_dtoa
  7378 ;; This function uses a non-reentrant model
  7379 ;;
  7380                           
  7381  01B4                     ___aodiv:	
  7382                           ;psect for function ___aodiv
  7383                           
  7384  01B4                     l3918:	
  7385                           ;incstack = 0
  7386                           ; Regs used in ___aodiv: [wreg+fsr1l+fsr1h+status,2+status,0]
  7387                           
  7388  01B4  0020               	movlb	0	; select bank0
  7389  01B5  01B5               	clrf	___aodiv@sign
  7390  01B6                     l3920:
  7391  01B6  3023               	movlw	low ___aodiv@divisor
  7392  01B7  0086               	movwf	6
  7393  01B8  3000               	movlw	high ___aodiv@divisor
  7394  01B9  0087               	movwf	7
  7395  01BA  3F47               	moviw [7]fsr1
  7396  01BB  00B3               	movwf	??___aodiv
  7397  01BC  1FB3               	btfss	??___aodiv,7
  7398  01BD  29BF               	goto	u2231
  7399  01BE  29C0               	goto	u2230
  7400  01BF                     u2231:
  7401  01BF  29E2               	goto	l3924
  7402  01C0                     u2230:
  7403  01C0                     l3922:
  7404  01C0  0020               	movlb	0	; select bank0
  7405  01C1  09A3               	comf	___aodiv@divisor,f
  7406  01C2  09A4               	comf	___aodiv@divisor+1,f
  7407  01C3  09A5               	comf	___aodiv@divisor+2,f
  7408  01C4  09A6               	comf	___aodiv@divisor+3,f
  7409  01C5  09A7               	comf	___aodiv@divisor+4,f
  7410  01C6  09A8               	comf	___aodiv@divisor+5,f
  7411  01C7  09A9               	comf	___aodiv@divisor+6,f
  7412  01C8  09AA               	comf	___aodiv@divisor+7,f
  7413  01C9  0AA3               	incf	___aodiv@divisor,f
  7414  01CA  1D03               	skipz
  7415  01CB  29DF               	goto	u224lld
  7416  01CC  0AA4               	incf	___aodiv@divisor+1,f
  7417  01CD  1D03               	skipz
  7418  01CE  29DF               	goto	u224lld
  7419  01CF  0AA5               	incf	___aodiv@divisor+2,f
  7420  01D0  1D03               	skipz
  7421  01D1  29DF               	goto	u224lld
  7422  01D2  0AA6               	incf	___aodiv@divisor+3,f
  7423  01D3  1D03               	skipz
  7424  01D4  29DF               	goto	u224lld
  7425  01D5  0AA7               	incf	___aodiv@divisor+4,f
  7426  01D6  1D03               	skipz
  7427  01D7  29DF               	goto	u224lld
  7428  01D8  0AA8               	incf	___aodiv@divisor+5,f
  7429  01D9  1D03               	skipz
  7430  01DA  29DF               	goto	u224lld
  7431  01DB  0AA9               	incf	___aodiv@divisor+6,f
  7432  01DC  1D03               	skipz
  7433  01DD  29DF               	goto	u224lld
  7434  01DE  0AAA               	incf	___aodiv@divisor+7,f
  7435  01DF                     u224lld:
  7436  01DF  0020               	movlb	0	; select bank0
  7437  01E0  01B5               	clrf	___aodiv@sign
  7438  01E1  0AB5               	incf	___aodiv@sign,f
  7439  01E2                     l3924:
  7440  01E2  302B               	movlw	low ___aodiv@dividend
  7441  01E3  0086               	movwf	6
  7442  01E4  3000               	movlw	high ___aodiv@dividend
  7443  01E5  0087               	movwf	7
  7444  01E6  3F47               	moviw [7]fsr1
  7445  01E7  0020               	movlb	0	; select bank0
  7446  01E8  00B3               	movwf	??___aodiv
  7447  01E9  1FB3               	btfss	??___aodiv,7
  7448  01EA  29EC               	goto	u2251
  7449  01EB  29ED               	goto	u2250
  7450  01EC                     u2251:
  7451  01EC  2A11               	goto	l3930
  7452  01ED                     u2250:
  7453  01ED                     l3926:
  7454  01ED  0020               	movlb	0	; select bank0
  7455  01EE  09AB               	comf	___aodiv@dividend,f
  7456  01EF  09AC               	comf	___aodiv@dividend+1,f
  7457  01F0  09AD               	comf	___aodiv@dividend+2,f
  7458  01F1  09AE               	comf	___aodiv@dividend+3,f
  7459  01F2  09AF               	comf	___aodiv@dividend+4,f
  7460  01F3  09B0               	comf	___aodiv@dividend+5,f
  7461  01F4  09B1               	comf	___aodiv@dividend+6,f
  7462  01F5  09B2               	comf	___aodiv@dividend+7,f
  7463  01F6  0AAB               	incf	___aodiv@dividend,f
  7464  01F7  1D03               	skipz
  7465  01F8  2A0C               	goto	u226lld
  7466  01F9  0AAC               	incf	___aodiv@dividend+1,f
  7467  01FA  1D03               	skipz
  7468  01FB  2A0C               	goto	u226lld
  7469  01FC  0AAD               	incf	___aodiv@dividend+2,f
  7470  01FD  1D03               	skipz
  7471  01FE  2A0C               	goto	u226lld
  7472  01FF  0AAE               	incf	___aodiv@dividend+3,f
  7473  0200  1D03               	skipz
  7474  0201  2A0C               	goto	u226lld
  7475  0202  0AAF               	incf	___aodiv@dividend+4,f
  7476  0203  1D03               	skipz
  7477  0204  2A0C               	goto	u226lld
  7478  0205  0AB0               	incf	___aodiv@dividend+5,f
  7479  0206  1D03               	skipz
  7480  0207  2A0C               	goto	u226lld
  7481  0208  0AB1               	incf	___aodiv@dividend+6,f
  7482  0209  1D03               	skipz
  7483  020A  2A0C               	goto	u226lld
  7484  020B  0AB2               	incf	___aodiv@dividend+7,f
  7485  020C                     u226lld:
  7486  020C                     l3928:
  7487  020C  3001               	movlw	1
  7488  020D  0020               	movlb	0	; select bank0
  7489  020E  00B3               	movwf	??___aodiv
  7490  020F  0833               	movf	??___aodiv,w
  7491  0210  06B5               	xorwf	___aodiv@sign,f
  7492  0211                     l3930:
  7493  0211  3036               	movlw	low ___aodiv@quotient
  7494  0212  0086               	movwf	6
  7495  0213  3000               	movlw	high ___aodiv@quotient
  7496  0214  0087               	movwf	7
  7497  0215  3008               	movlw	8
  7498  0216  0020               	movlb	0	; select bank0
  7499  0217  00B3               	movwf	??___aodiv
  7500  0218  3000               	movlw	0
  7501  0219                     u2270:
  7502  0219  001E               	movwi fsr1++
  7503  021A  0BB3               	decfsz	??___aodiv,f
  7504  021B  2A19               	goto	u2270
  7505  021C                     l3932:
  7506  021C  0823               	movf	___aodiv@divisor,w
  7507  021D  0424               	iorwf	___aodiv@divisor+1,w
  7508  021E  0425               	iorwf	___aodiv@divisor+2,w
  7509  021F  0426               	iorwf	___aodiv@divisor+3,w
  7510  0220  0427               	iorwf	___aodiv@divisor+4,w
  7511  0221  0428               	iorwf	___aodiv@divisor+5,w
  7512  0222  0429               	iorwf	___aodiv@divisor+6,w
  7513  0223  042A               	iorwf	___aodiv@divisor+7,w
  7514  0224  1903               	skipnz
  7515  0225  2A27               	goto	u2281
  7516  0226  2A28               	goto	u2280
  7517  0227                     u2281:
  7518  0227  2A84               	goto	l3952
  7519  0228                     u2280:
  7520  0228                     l3934:
  7521  0228  01B4               	clrf	___aodiv@counter
  7522  0229  0AB4               	incf	___aodiv@counter,f
  7523  022A  2A37               	goto	l3940
  7524  022B                     l3936:
  7525  022B  35A3               	lslf	___aodiv@divisor,f
  7526  022C  0DA4               	rlf	___aodiv@divisor+1,f
  7527  022D  0DA5               	rlf	___aodiv@divisor+2,f
  7528  022E  0DA6               	rlf	___aodiv@divisor+3,f
  7529  022F  0DA7               	rlf	___aodiv@divisor+4,f
  7530  0230  0DA8               	rlf	___aodiv@divisor+5,f
  7531  0231  0DA9               	rlf	___aodiv@divisor+6,f
  7532  0232  0DAA               	rlf	___aodiv@divisor+7,f
  7533  0233                     l3938:
  7534  0233  3001               	movlw	1
  7535  0234  00B3               	movwf	??___aodiv
  7536  0235  0833               	movf	??___aodiv,w
  7537  0236  07B4               	addwf	___aodiv@counter,f
  7538  0237                     l3940:
  7539  0237  1FAA               	btfss	___aodiv@divisor+7,7
  7540  0238  2A3A               	goto	u2291
  7541  0239  2A3B               	goto	u2290
  7542  023A                     u2291:
  7543  023A  2A2B               	goto	l3936
  7544  023B                     u2290:
  7545  023B                     l3942:
  7546  023B  35B6               	lslf	___aodiv@quotient,f
  7547  023C  0DB7               	rlf	___aodiv@quotient+1,f
  7548  023D  0DB8               	rlf	___aodiv@quotient+2,f
  7549  023E  0DB9               	rlf	___aodiv@quotient+3,f
  7550  023F  0DBA               	rlf	___aodiv@quotient+4,f
  7551  0240  0DBB               	rlf	___aodiv@quotient+5,f
  7552  0241  0DBC               	rlf	___aodiv@quotient+6,f
  7553  0242  0DBD               	rlf	___aodiv@quotient+7,f
  7554  0243                     l3944:
  7555  0243  082A               	movf	___aodiv@divisor+7,w
  7556  0244  0232               	subwf	___aodiv@dividend+7,w
  7557  0245  1D03               	skipz
  7558  0246  2A61               	goto	u2305
  7559  0247  0829               	movf	___aodiv@divisor+6,w
  7560  0248  0231               	subwf	___aodiv@dividend+6,w
  7561  0249  1D03               	skipz
  7562  024A  2A61               	goto	u2305
  7563  024B  0828               	movf	___aodiv@divisor+5,w
  7564  024C  0230               	subwf	___aodiv@dividend+5,w
  7565  024D  1D03               	skipz
  7566  024E  2A61               	goto	u2305
  7567  024F  0827               	movf	___aodiv@divisor+4,w
  7568  0250  022F               	subwf	___aodiv@dividend+4,w
  7569  0251  1D03               	skipz
  7570  0252  2A61               	goto	u2305
  7571  0253  0826               	movf	___aodiv@divisor+3,w
  7572  0254  022E               	subwf	___aodiv@dividend+3,w
  7573  0255  1D03               	skipz
  7574  0256  2A61               	goto	u2305
  7575  0257  0825               	movf	___aodiv@divisor+2,w
  7576  0258  022D               	subwf	___aodiv@dividend+2,w
  7577  0259  1D03               	skipz
  7578  025A  2A61               	goto	u2305
  7579  025B  0824               	movf	___aodiv@divisor+1,w
  7580  025C  022C               	subwf	___aodiv@dividend+1,w
  7581  025D  1D03               	skipz
  7582  025E  2A61               	goto	u2305
  7583  025F  0823               	movf	___aodiv@divisor,w
  7584  0260  022B               	subwf	___aodiv@dividend,w
  7585  0261                     u2305:
  7586  0261  1C03               	skipc
  7587  0262  2A64               	goto	u2301
  7588  0263  2A65               	goto	u2300
  7589  0264                     u2301:
  7590  0264  2A76               	goto	l3950
  7591  0265                     u2300:
  7592  0265                     l3946:
  7593  0265  0823               	movf	___aodiv@divisor,w
  7594  0266  02AB               	subwf	___aodiv@dividend,f
  7595  0267  0824               	movf	___aodiv@divisor+1,w
  7596  0268  3BAC               	subwfb	___aodiv@dividend+1,f
  7597  0269  0825               	movf	___aodiv@divisor+2,w
  7598  026A  3BAD               	subwfb	___aodiv@dividend+2,f
  7599  026B  0826               	movf	___aodiv@divisor+3,w
  7600  026C  3BAE               	subwfb	___aodiv@dividend+3,f
  7601  026D  0827               	movf	___aodiv@divisor+4,w
  7602  026E  3BAF               	subwfb	___aodiv@dividend+4,f
  7603  026F  0828               	movf	___aodiv@divisor+5,w
  7604  0270  3BB0               	subwfb	___aodiv@dividend+5,f
  7605  0271  0829               	movf	___aodiv@divisor+6,w
  7606  0272  3BB1               	subwfb	___aodiv@dividend+6,f
  7607  0273  082A               	movf	___aodiv@divisor+7,w
  7608  0274  3BB2               	subwfb	___aodiv@dividend+7,f
  7609  0275                     l3948:
  7610  0275  1436               	bsf	___aodiv@quotient,0
  7611  0276                     l3950:
  7612  0276  36AA               	lsrf	___aodiv@divisor+7,f
  7613  0277  0CA9               	rrf	___aodiv@divisor+6,f
  7614  0278  0CA8               	rrf	___aodiv@divisor+5,f
  7615  0279  0CA7               	rrf	___aodiv@divisor+4,f
  7616  027A  0CA6               	rrf	___aodiv@divisor+3,f
  7617  027B  0CA5               	rrf	___aodiv@divisor+2,f
  7618  027C  0CA4               	rrf	___aodiv@divisor+1,f
  7619  027D  0CA3               	rrf	___aodiv@divisor,f
  7620  027E  3001               	movlw	1
  7621  027F  02B4               	subwf	___aodiv@counter,f
  7622  0280  1D03               	btfss	3,2
  7623  0281  2A83               	goto	u2311
  7624  0282  2A84               	goto	u2310
  7625  0283                     u2311:
  7626  0283  2A3B               	goto	l3942
  7627  0284                     u2310:
  7628  0284                     l3952:
  7629  0284  0835               	movf	___aodiv@sign,w
  7630  0285  1903               	btfsc	3,2
  7631  0286  2A88               	goto	u2321
  7632  0287  2A89               	goto	u2320
  7633  0288                     u2321:
  7634  0288  2AA7               	goto	l1060
  7635  0289                     u2320:
  7636  0289                     l3954:
  7637  0289  09B6               	comf	___aodiv@quotient,f
  7638  028A  09B7               	comf	___aodiv@quotient+1,f
  7639  028B  09B8               	comf	___aodiv@quotient+2,f
  7640  028C  09B9               	comf	___aodiv@quotient+3,f
  7641  028D  09BA               	comf	___aodiv@quotient+4,f
  7642  028E  09BB               	comf	___aodiv@quotient+5,f
  7643  028F  09BC               	comf	___aodiv@quotient+6,f
  7644  0290  09BD               	comf	___aodiv@quotient+7,f
  7645  0291  0AB6               	incf	___aodiv@quotient,f
  7646  0292  1D03               	skipz
  7647  0293  2AA7               	goto	u233lld
  7648  0294  0AB7               	incf	___aodiv@quotient+1,f
  7649  0295  1D03               	skipz
  7650  0296  2AA7               	goto	u233lld
  7651  0297  0AB8               	incf	___aodiv@quotient+2,f
  7652  0298  1D03               	skipz
  7653  0299  2AA7               	goto	u233lld
  7654  029A  0AB9               	incf	___aodiv@quotient+3,f
  7655  029B  1D03               	skipz
  7656  029C  2AA7               	goto	u233lld
  7657  029D  0ABA               	incf	___aodiv@quotient+4,f
  7658  029E  1D03               	skipz
  7659  029F  2AA7               	goto	u233lld
  7660  02A0  0ABB               	incf	___aodiv@quotient+5,f
  7661  02A1  1D03               	skipz
  7662  02A2  2AA7               	goto	u233lld
  7663  02A3  0ABC               	incf	___aodiv@quotient+6,f
  7664  02A4  1D03               	skipz
  7665  02A5  2AA7               	goto	u233lld
  7666  02A6  0ABD               	incf	___aodiv@quotient+7,f
  7667  02A7                     u233lld:
  7668  02A7                     l1060:
  7669  02A7  0020               	movlb	0	; select bank0
  7670  02A8  0836               	movf	___aodiv@quotient,w
  7671  02A9  00A3               	movwf	?___aodiv
  7672  02AA  0837               	movf	___aodiv@quotient+1,w
  7673  02AB  00A4               	movwf	?___aodiv+1
  7674  02AC  0838               	movf	___aodiv@quotient+2,w
  7675  02AD  00A5               	movwf	?___aodiv+2
  7676  02AE  0839               	movf	___aodiv@quotient+3,w
  7677  02AF  00A6               	movwf	?___aodiv+3
  7678  02B0  083A               	movf	___aodiv@quotient+4,w
  7679  02B1  00A7               	movwf	?___aodiv+4
  7680  02B2  083B               	movf	___aodiv@quotient+5,w
  7681  02B3  00A8               	movwf	?___aodiv+5
  7682  02B4  083C               	movf	___aodiv@quotient+6,w
  7683  02B5  00A9               	movwf	?___aodiv+6
  7684  02B6  083D               	movf	___aodiv@quotient+7,w
  7685  02B7  00AA               	movwf	?___aodiv+7
  7686  02B8                     l1061:
  7687  02B8  0008               	return
  7688  02B9                     __end_of___aodiv:
  7689                           
  7690                           	psect	text26
  7691  05F3                     __ptext26:	
  7692 ;; *************** function _i2c_read1ByteRegister *****************
  7693 ;; Defined at:
  7694 ;;		line 97 in file "mcc_generated_files/drivers/i2c_simple_master.c"
  7695 ;; Parameters:    Size  Location     Type
  7696 ;;  address         1    wreg     unsigned char 
  7697 ;;  reg             1   12[BANK0 ] unsigned char 
  7698 ;; Auto vars:     Size  Location     Type
  7699 ;;  address         1   14[BANK0 ] unsigned char 
  7700 ;;  x               2   16[BANK0 ] int 
  7701 ;;  d2              1   18[BANK0 ] unsigned char 
  7702 ;;  e               1   15[BANK0 ] enum E355
  7703 ;; Return value:  Size  Location     Type
  7704 ;;                  1    wreg      unsigned char 
  7705 ;; Registers used:
  7706 ;;		wreg, fsr1l, fsr1h, status,2, status,0, pclath, cstack
  7707 ;; Tracked objects:
  7708 ;;		On entry : 0/0
  7709 ;;		On exit  : 0/0
  7710 ;;		Unchanged: 0/0
  7711 ;; Data sizes:     COMMON   BANK0   BANK1   BANK2   BANK3   BANK4   BANK5   BANK6   BANK7   BANK8   BANK9  BANK10  BANK1
      +1  BANK12
  7712 ;;      Params:         0       1       0       0       0       0       0       0       0       0       0       0       
      +0       0
  7713 ;;      Locals:         0       5       0       0       0       0       0       0       0       0       0       0       
      +0       0
  7714 ;;      Temps:          0       1       0       0       0       0       0       0       0       0       0       0       
      +0       0
  7715 ;;      Totals:         0       7       0       0       0       0       0       0       0       0       0       0       
      +0       0
  7716 ;;Total ram usage:        7 bytes
  7717 ;; Hardware stack levels used: 1
  7718 ;; Hardware stack levels required when called: 10
  7719 ;; This function calls:
  7720 ;;		_I2C1_Close
  7721 ;;		_I2C1_MasterWrite
  7722 ;;		_I2C1_Open
  7723 ;;		_I2C1_SetAddressNackCallback
  7724 ;;		_I2C1_SetBuffer
  7725 ;;		_I2C1_SetDataCompleteCallback
  7726 ;; This function is called by:
  7727 ;;		_I2CSIMPLE_example
  7728 ;; This function uses a non-reentrant model
  7729 ;;
  7730                           
  7731  05F3                     _i2c_read1ByteRegister:	
  7732                           ;psect for function _i2c_read1ByteRegister
  7733                           
  7734                           
  7735                           ;incstack = 0
  7736                           ; Regs used in _i2c_read1ByteRegister: [wreg+fsr1l+fsr1h+status,2+status,0+pclath+cstack
      +                          ]
  7737                           ;i2c_read1ByteRegister@address stored from wreg
  7738  05F3  0020               	movlb	0	; select bank0
  7739  05F4  00AE               	movwf	i2c_read1ByteRegister@address
  7740  05F5                     l3388:
  7741                           
  7742                           ;mcc_generated_files/drivers/i2c_simple_master.c: 97: uint8_t i2c_read1ByteRegister(i2c1
      +                          _address_t address, uint8_t reg);mcc_generated_files/drivers/i2c_simple_master.c: 98: {;
      +                          mcc_generated_files/drivers/i2c_simple_master.c: 99:     uint8_t d2=42;
  7743  05F5  302A               	movlw	42
  7744  05F6  00AD               	movwf	??_i2c_read1ByteRegister
  7745  05F7  082D               	movf	??_i2c_read1ByteRegister,w
  7746  05F8  00B2               	movwf	i2c_read1ByteRegister@d2
  7747                           
  7748                           ;mcc_generated_files/drivers/i2c_simple_master.c: 100:     i2c1_error_t e;;mcc_generated
      +                          _files/drivers/i2c_simple_master.c: 101:     int x;;mcc_generated_files/drivers/i2c_simp
      +                          le_master.c: 103:     for(x = 2; x != 0; x--)
  7749  05F9  3002               	movlw	2
  7750  05FA  00B0               	movwf	i2c_read1ByteRegister@x
  7751  05FB  3000               	movlw	0
  7752  05FC  00B1               	movwf	i2c_read1ByteRegister@x+1
  7753  05FD                     l3394:
  7754  05FD  0020               	movlb	0	; select bank0
  7755  05FE  082E               	movf	i2c_read1ByteRegister@address,w
  7756  05FF  3186  2645  3185   	fcall	_I2C1_Open
  7757  0602  3A00               	xorlw	0
  7758  0603  1903               	skipnz
  7759  0604  2E06               	goto	u1761
  7760  0605  2E07               	goto	u1760
  7761  0606                     u1761:
  7762  0606  2DFD               	goto	l3394
  7763  0607                     u1760:
  7764  0607                     l3396:
  7765                           
  7766                           ;mcc_generated_files/drivers/i2c_simple_master.c: 106:         I2C1_SetDataCompleteCallb
      +                          ack(rd1RegCompleteHandler,&d2);
  7767  0607  308E               	movlw	low _rd1RegCompleteHandler
  7768  0608  0020               	movlb	0	; select bank0
  7769  0609  00A8               	movwf	I2C1_SetDataCompleteCallback@cb
  7770  060A  300D               	movlw	high _rd1RegCompleteHandler
  7771  060B  00A9               	movwf	I2C1_SetDataCompleteCallback@cb+1
  7772  060C  3032               	movlw	(low (i2c_read1ByteRegister@d2| 0))& (0+255)
  7773  060D  00AD               	movwf	??_i2c_read1ByteRegister
  7774  060E  082D               	movf	??_i2c_read1ByteRegister,w
  7775  060F  00AA               	movwf	I2C1_SetDataCompleteCallback@ptr
  7776  0610  3187  27F2  3185   	fcall	_I2C1_SetDataCompleteCallback
  7777  0613                     l3398:
  7778                           
  7779                           ;mcc_generated_files/drivers/i2c_simple_master.c: 107:         I2C1_SetBuffer(&reg,1);
  7780  0613  3001               	movlw	1
  7781  0614  0020               	movlb	0	; select bank0
  7782  0615  00A3               	movwf	I2C1_SetBuffer@bufferSize
  7783  0616  3000               	movlw	0
  7784  0617  00A4               	movwf	I2C1_SetBuffer@bufferSize+1
  7785  0618  302C               	movlw	(low (i2c_read1ByteRegister@reg| 0))& (0+255)
  7786  0619  318E  261C  3185   	fcall	_I2C1_SetBuffer
  7787  061C                     l3400:
  7788                           
  7789                           ;mcc_generated_files/drivers/i2c_simple_master.c: 108:         I2C1_SetAddressNackCallba
      +                          ck(((void*)0),((void*)0));
  7790  061C  3000               	movlw	0
  7791  061D  0020               	movlb	0	; select bank0
  7792  061E  00A8               	movwf	I2C1_SetAddressNackCallback@cb
  7793  061F  00A9               	movwf	I2C1_SetAddressNackCallback@cb+1
  7794  0620  01AA               	clrf	I2C1_SetAddressNackCallback@ptr
  7795  0621  318D  254E  3185   	fcall	_I2C1_SetAddressNackCallback
  7796                           
  7797                           ;mcc_generated_files/drivers/i2c_simple_master.c: 109:         I2C1_MasterWrite();
  7798  0624  318C  24BC  3185   	fcall	_I2C1_MasterWrite
  7799  0627                     l3402:	
  7800                           ;mcc_generated_files/drivers/i2c_simple_master.c: 110:         while(I2C1_BUSY == (e = I
      +                          2C1_Close()));
  7801                           
  7802  0627  318E  26BA  3185   	fcall	_I2C1_Close
  7803  062A  0020               	movlb	0	; select bank0
  7804  062B  00AD               	movwf	??_i2c_read1ByteRegister
  7805  062C  082D               	movf	??_i2c_read1ByteRegister,w
  7806  062D  00AF               	movwf	i2c_read1ByteRegister@e
  7807  062E  032F               	decf	i2c_read1ByteRegister@e,w
  7808  062F  1903               	btfsc	3,2
  7809  0630  2E32               	goto	u1771
  7810  0631  2E33               	goto	u1770
  7811  0632                     u1771:
  7812  0632  2E27               	goto	l3402
  7813  0633                     u1770:
  7814  0633                     l3404:
  7815                           
  7816                           ;mcc_generated_files/drivers/i2c_simple_master.c: 111:         if(e==I2C1_NOERR) break;
  7817  0633  082F               	movf	i2c_read1ByteRegister@e,w
  7818  0634  1D03               	btfss	3,2
  7819  0635  2E37               	goto	u1781
  7820  0636  2E38               	goto	u1780
  7821  0637                     u1781:
  7822  0637  2E39               	goto	l3408
  7823  0638                     u1780:
  7824  0638  2E43               	goto	l3412
  7825  0639                     l3408:
  7826                           
  7827                           ;mcc_generated_files/drivers/i2c_simple_master.c: 112:     }
  7828  0639  30FF               	movlw	255
  7829  063A  07B0               	addwf	i2c_read1ByteRegister@x,f
  7830  063B  30FF               	movlw	255
  7831  063C  3DB1               	addwfc	i2c_read1ByteRegister@x+1,f
  7832  063D                     l3410:
  7833  063D  0830               	movf	i2c_read1ByteRegister@x,w
  7834  063E  0431               	iorwf	i2c_read1ByteRegister@x+1,w
  7835  063F  1D03               	btfss	3,2
  7836  0640  2E42               	goto	u1791
  7837  0641  2E43               	goto	u1790
  7838  0642                     u1791:
  7839  0642  2DFD               	goto	l3394
  7840  0643                     u1790:
  7841  0643                     l3412:
  7842                           
  7843                           ;mcc_generated_files/drivers/i2c_simple_master.c: 115:     return d2;
  7844  0643  0832               	movf	i2c_read1ByteRegister@d2,w
  7845  0644                     l52:
  7846  0644  0008               	return
  7847  0645                     __end_of_i2c_read1ByteRegister:
  7848                           
  7849                           	psect	text27
  7850  07F2                     __ptext27:	
  7851 ;; *************** function _I2C1_SetDataCompleteCallback *****************
  7852 ;; Defined at:
  7853 ;;		line 274 in file "mcc_generated_files/i2c1_master.c"
  7854 ;; Parameters:    Size  Location     Type
  7855 ;;  cb              2    8[BANK0 ] PTR FTN(PTR void ,)enum 
  7856 ;;		 -> Absolute function(1), rdBlkRegCompleteHandler@i2c1_master_example$F180(1), wr2RegCompleteHandler@i2c1_master_exa
      +mple$F169(1), wr1RegCompleteHandler@i2c1_master_example$F163(1), 
  7857 ;;		 -> rd2RegCompleteHandler@i2c1_master_example$F157(1), rd1RegCompleteHandler@i2c1_master_example$F146(1), rdBlkRegCo
      +mpleteHandler(1), wr2RegCompleteHandler(1), 
  7858 ;;		 -> rd2RegCompleteHandler(1), rd1RegCompleteHandler(1), wr1RegCompleteHandler(1), 
  7859 ;;  ptr             1   10[BANK0 ] PTR void 
  7860 ;;		 -> I2C1_ReadDataBlock@bufferBlock(3), I2C1_Write2ByteRegister@data(2), I2C1_Write1ByteRegister@data(1), I2C1_Read2B
      +yteRegister@returnValue(2), 
  7861 ;;		 -> I2C1_Read1ByteRegister@returnValue(1), i2c_readDataBlock@d(3), i2c_write2ByteRegister@data(2), i2c_read2ByteRegi
      +ster@result(2), 
  7862 ;;		 -> i2c_read1ByteRegister@d2(1), i2c_write1ByteRegister@data(1), NULL(0), 
  7863 ;; Auto vars:     Size  Location     Type
  7864 ;;		None
  7865 ;; Return value:  Size  Location     Type
  7866 ;;                  1    wreg      void 
  7867 ;; Registers used:
  7868 ;;		wreg, fsr1l, fsr1h, status,2, status,0, pclath, cstack
  7869 ;; Tracked objects:
  7870 ;;		On entry : 0/0
  7871 ;;		On exit  : 0/0
  7872 ;;		Unchanged: 0/0
  7873 ;; Data sizes:     COMMON   BANK0   BANK1   BANK2   BANK3   BANK4   BANK5   BANK6   BANK7   BANK8   BANK9  BANK10  BANK1
      +1  BANK12
  7874 ;;      Params:         0       3       0       0       0       0       0       0       0       0       0       0       
      +0       0
  7875 ;;      Locals:         0       0       0       0       0       0       0       0       0       0       0       0       
      +0       0
  7876 ;;      Temps:          0       1       0       0       0       0       0       0       0       0       0       0       
      +0       0
  7877 ;;      Totals:         0       4       0       0       0       0       0       0       0       0       0       0       
      +0       0
  7878 ;;Total ram usage:        4 bytes
  7879 ;; Hardware stack levels used: 1
  7880 ;; Hardware stack levels required when called: 8
  7881 ;; This function calls:
  7882 ;;		_I2C1_SetCallback
  7883 ;; This function is called by:
  7884 ;;		_i2c_write1ByteRegister
  7885 ;;		_i2c_read1ByteRegister
  7886 ;;		_i2c_read2ByteRegister
  7887 ;;		_i2c_write2ByteRegister
  7888 ;;		_i2c_readDataBlock
  7889 ;;		_I2C1_Read1ByteRegister
  7890 ;;		_I2C1_Read2ByteRegister
  7891 ;;		_I2C1_Write1ByteRegister
  7892 ;;		_I2C1_Write2ByteRegister
  7893 ;;		_I2C1_ReadDataBlock
  7894 ;; This function uses a non-reentrant model
  7895 ;;
  7896                           
  7897  07F2                     _I2C1_SetDataCompleteCallback:	
  7898                           ;psect for function _I2C1_SetDataCompleteCallback
  7899                           
  7900  07F2                     l3146:	
  7901                           ;incstack = 0
  7902                           ; Regs used in _I2C1_SetDataCompleteCallback: [wreg+fsr1l+fsr1h+status,2+status,0+pclath
      +                          +cstack]
  7903                           
  7904                           
  7905                           ;mcc_generated_files/i2c1_master.c: 274: void I2C1_SetDataCompleteCallback(i2c1_callback
      +                          _t cb, void *ptr);mcc_generated_files/i2c1_master.c: 275: {;mcc_generated_files/i2c1_mas
      +                          ter.c: 276:     I2C1_SetCallback(I2C1_DATA_COMPLETE, cb, ptr);
  7906  07F2  0020               	movlb	0	; select bank0
  7907  07F3  0829               	movf	I2C1_SetDataCompleteCallback@cb+1,w
  7908  07F4  00A4               	movwf	I2C1_SetCallback@cb+1
  7909  07F5  0828               	movf	I2C1_SetDataCompleteCallback@cb,w
  7910  07F6  00A3               	movwf	I2C1_SetCallback@cb
  7911  07F7  082A               	movf	I2C1_SetDataCompleteCallback@ptr,w
  7912  07F8  00AB               	movwf	??_I2C1_SetDataCompleteCallback
  7913  07F9  082B               	movf	??_I2C1_SetDataCompleteCallback,w
  7914  07FA  00A5               	movwf	I2C1_SetCallback@ptr
  7915  07FB  3000               	movlw	0
  7916  07FC  318F  2727  3187   	fcall	_I2C1_SetCallback
  7917  07FF                     l569:
  7918  07FF  0008               	return
  7919  0800                     __end_of_I2C1_SetDataCompleteCallback:
  7920                           
  7921                           	psect	text28
  7922  0E1C                     __ptext28:	
  7923 ;; *************** function _I2C1_SetBuffer *****************
  7924 ;; Defined at:
  7925 ;;		line 264 in file "mcc_generated_files/i2c1_master.c"
  7926 ;; Parameters:    Size  Location     Type
  7927 ;;  buffer          1    wreg     PTR void 
  7928 ;;		 -> I2C1_ReadDataBlock@reg(1), I2C1_ReadDataBlock@bufferBlock(3), I2C1_Write2ByteRegister@reg(1), I2C1_Write2ByteReg
      +ister@data(2), 
  7929 ;;		 -> I2C1_Write1ByteRegister@reg(1), I2C1_Write1ByteRegister@data(1), I2C1_Read2ByteRegister@reg(1), I2C1_Read2ByteRe
      +gister@returnValue(2), 
  7930 ;;		 -> I2C1_Read1ByteRegister@reg(1), I2C1_Read1ByteRegister@returnValue(1), i2c_readDataBlock@reg(1), i2c_readDataBloc
      +k@d(3), 
  7931 ;;		 -> i2c_write2ByteRegister@reg(1), i2c_write2ByteRegister@data(2), i2c_read2ByteRegister@reg(1), i2c_read2ByteRegist
      +er@result(2), 
  7932 ;;		 -> i2c_read1ByteRegister@reg(1), i2c_read1ByteRegister@d2(1), i2c_write1ByteRegister@reg(1), i2c_write1ByteRegister
      +@data(1), 
  7933 ;;		 -> NULL(0), 
  7934 ;;  bufferSize      2    3[BANK0 ] unsigned int 
  7935 ;; Auto vars:     Size  Location     Type
  7936 ;;  buffer          1    6[BANK0 ] PTR void 
  7937 ;;		 -> I2C1_ReadDataBlock@reg(1), I2C1_ReadDataBlock@bufferBlock(3), I2C1_Write2ByteRegister@reg(1), I2C1_Write2ByteReg
      +ister@data(2), 
  7938 ;;		 -> I2C1_Write1ByteRegister@reg(1), I2C1_Write1ByteRegister@data(1), I2C1_Read2ByteRegister@reg(1), I2C1_Read2ByteRe
      +gister@returnValue(2), 
  7939 ;;		 -> I2C1_Read1ByteRegister@reg(1), I2C1_Read1ByteRegister@returnValue(1), i2c_readDataBlock@reg(1), i2c_readDataBloc
      +k@d(3), 
  7940 ;;		 -> i2c_write2ByteRegister@reg(1), i2c_write2ByteRegister@data(2), i2c_read2ByteRegister@reg(1), i2c_read2ByteRegist
      +er@result(2), 
  7941 ;;		 -> i2c_read1ByteRegister@reg(1), i2c_read1ByteRegister@d2(1), i2c_write1ByteRegister@reg(1), i2c_write1ByteRegister
      +@data(1), 
  7942 ;;		 -> NULL(0), 
  7943 ;; Return value:  Size  Location     Type
  7944 ;;                  1    wreg      void 
  7945 ;; Registers used:
  7946 ;;		wreg
  7947 ;; Tracked objects:
  7948 ;;		On entry : 0/0
  7949 ;;		On exit  : 0/0
  7950 ;;		Unchanged: 0/0
  7951 ;; Data sizes:     COMMON   BANK0   BANK1   BANK2   BANK3   BANK4   BANK5   BANK6   BANK7   BANK8   BANK9  BANK10  BANK1
      +1  BANK12
  7952 ;;      Params:         0       2       0       0       0       0       0       0       0       0       0       0       
      +0       0
  7953 ;;      Locals:         0       1       0       0       0       0       0       0       0       0       0       0       
      +0       0
  7954 ;;      Temps:          0       1       0       0       0       0       0       0       0       0       0       0       
      +0       0
  7955 ;;      Totals:         0       4       0       0       0       0       0       0       0       0       0       0       
      +0       0
  7956 ;;Total ram usage:        4 bytes
  7957 ;; Hardware stack levels used: 1
  7958 ;; Hardware stack levels required when called: 7
  7959 ;; This function calls:
  7960 ;;		Nothing
  7961 ;; This function is called by:
  7962 ;;		_i2c_write1ByteRegister
  7963 ;;		_i2c_read1ByteRegister
  7964 ;;		_i2c_writeNBytes
  7965 ;;		_i2c_read2ByteRegister
  7966 ;;		_i2c_write2ByteRegister
  7967 ;;		_i2c_readDataBlock
  7968 ;;		_i2c_readNBytes
  7969 ;;		_I2C1_Read1ByteRegister
  7970 ;;		_I2C1_Read2ByteRegister
  7971 ;;		_I2C1_Write1ByteRegister
  7972 ;;		_I2C1_Write2ByteRegister
  7973 ;;		_I2C1_WriteNBytes
  7974 ;;		_I2C1_ReadNBytes
  7975 ;;		_I2C1_ReadDataBlock
  7976 ;; This function uses a non-reentrant model
  7977 ;;
  7978                           
  7979  0E1C                     _I2C1_SetBuffer:	
  7980                           ;psect for function _I2C1_SetBuffer
  7981                           
  7982                           
  7983                           ;incstack = 0
  7984                           ; Regs used in _I2C1_SetBuffer: [wreg]
  7985                           ;I2C1_SetBuffer@buffer stored from wreg
  7986  0E1C  0020               	movlb	0	; select bank0
  7987  0E1D  00A6               	movwf	I2C1_SetBuffer@buffer
  7988  0E1E                     l3140:
  7989                           
  7990                           ;mcc_generated_files/i2c1_master.c: 264: void I2C1_SetBuffer(void *buffer, size_t buffer
      +                          Size);mcc_generated_files/i2c1_master.c: 265: {;mcc_generated_files/i2c1_master.c: 266: 
      +                              if(I2C1_Status.bufferFree)
  7991  0E1E  0021               	movlb	1	; select bank1
  7992  0E1F  1DBC               	btfss	(_I2C1_Status^(0+128)+28),3
  7993  0E20  2E22               	goto	u1691
  7994  0E21  2E23               	goto	u1690
  7995  0E22                     u1691:
  7996  0E22  2E32               	goto	l566
  7997  0E23                     u1690:
  7998  0E23                     l3142:
  7999                           
  8000                           ;mcc_generated_files/i2c1_master.c: 267:     {;mcc_generated_files/i2c1_master.c: 268:  
      +                                 I2C1_Status.data_ptr = buffer;
  8001  0E23  0020               	movlb	0	; select bank0
  8002  0E24  0826               	movf	I2C1_SetBuffer@buffer,w
  8003  0E25  00A5               	movwf	??_I2C1_SetBuffer
  8004  0E26  0825               	movf	??_I2C1_SetBuffer,w
  8005  0E27  0021               	movlb	1	; select bank1
  8006  0E28  00B7               	movwf	(low ((_I2C1_Status| 0+23)))^(0+128)
  8007                           
  8008                           ;mcc_generated_files/i2c1_master.c: 269:         I2C1_Status.data_length = bufferSize;
  8009  0E29  0020               	movlb	0	; select bank0
  8010  0E2A  0824               	movf	I2C1_SetBuffer@bufferSize+1,w
  8011  0E2B  0021               	movlb	1	; select bank1
  8012  0E2C  00B9               	movwf	((_I2C1_Status+1)^(0+128)+24)
  8013  0E2D  0020               	movlb	0	; select bank0
  8014  0E2E  0823               	movf	I2C1_SetBuffer@bufferSize,w
  8015  0E2F  0021               	movlb	1	; select bank1
  8016  0E30  00B8               	movwf	(_I2C1_Status^(0+128)+24)
  8017  0E31                     l3144:
  8018                           
  8019                           ;mcc_generated_files/i2c1_master.c: 270:         I2C1_Status.bufferFree = 0;
  8020  0E31  11BC               	bcf	(_I2C1_Status^(0+128)+28),3
  8021  0E32                     l566:
  8022  0E32  0008               	return
  8023  0E33                     __end_of_I2C1_SetBuffer:
  8024                           
  8025                           	psect	text29
  8026  0D4E                     __ptext29:	
  8027 ;; *************** function _I2C1_SetAddressNackCallback *****************
  8028 ;; Defined at:
  8029 ;;		line 284 in file "mcc_generated_files/i2c1_master.c"
  8030 ;; Parameters:    Size  Location     Type
  8031 ;;  cb              2    8[BANK0 ] PTR FTN(PTR void ,)enum 
  8032 ;;		 -> Absolute function(1), 
  8033 ;;  ptr             1   10[BANK0 ] PTR void 
  8034 ;;		 -> NULL(0), 
  8035 ;; Auto vars:     Size  Location     Type
  8036 ;;		None
  8037 ;; Return value:  Size  Location     Type
  8038 ;;                  1    wreg      void 
  8039 ;; Registers used:
  8040 ;;		wreg, fsr1l, fsr1h, status,2, status,0, pclath, cstack
  8041 ;; Tracked objects:
  8042 ;;		On entry : 0/0
  8043 ;;		On exit  : 0/0
  8044 ;;		Unchanged: 0/0
  8045 ;; Data sizes:     COMMON   BANK0   BANK1   BANK2   BANK3   BANK4   BANK5   BANK6   BANK7   BANK8   BANK9  BANK10  BANK1
      +1  BANK12
  8046 ;;      Params:         0       3       0       0       0       0       0       0       0       0       0       0       
      +0       0
  8047 ;;      Locals:         0       0       0       0       0       0       0       0       0       0       0       0       
      +0       0
  8048 ;;      Temps:          0       1       0       0       0       0       0       0       0       0       0       0       
      +0       0
  8049 ;;      Totals:         0       4       0       0       0       0       0       0       0       0       0       0       
      +0       0
  8050 ;;Total ram usage:        4 bytes
  8051 ;; Hardware stack levels used: 1
  8052 ;; Hardware stack levels required when called: 8
  8053 ;; This function calls:
  8054 ;;		_I2C1_SetCallback
  8055 ;; This function is called by:
  8056 ;;		_i2c_write1ByteRegister
  8057 ;;		_i2c_read1ByteRegister
  8058 ;;		_i2c_writeNBytes
  8059 ;;		_i2c_read2ByteRegister
  8060 ;;		_i2c_write2ByteRegister
  8061 ;;		_i2c_readDataBlock
  8062 ;;		_I2C1_Read1ByteRegister
  8063 ;;		_I2C1_Read2ByteRegister
  8064 ;;		_I2C1_Write1ByteRegister
  8065 ;;		_I2C1_Write2ByteRegister
  8066 ;;		_I2C1_WriteNBytes
  8067 ;;		_I2C1_ReadDataBlock
  8068 ;; This function uses a non-reentrant model
  8069 ;;
  8070                           
  8071  0D4E                     _I2C1_SetAddressNackCallback:	
  8072                           ;psect for function _I2C1_SetAddressNackCallback
  8073                           
  8074  0D4E                     l3184:	
  8075                           ;incstack = 0
  8076                           ; Regs used in _I2C1_SetAddressNackCallback: [wreg+fsr1l+fsr1h+status,2+status,0+pclath+
      +                          cstack]
  8077                           
  8078                           
  8079                           ;mcc_generated_files/i2c1_master.c: 284: void I2C1_SetAddressNackCallback(i2c1_callback_
      +                          t cb, void *ptr);mcc_generated_files/i2c1_master.c: 285: {;mcc_generated_files/i2c1_mast
      +                          er.c: 286:     I2C1_SetCallback(I2C1_ADDR_NACK, cb, ptr);
  8080  0D4E  0020               	movlb	0	; select bank0
  8081  0D4F  0829               	movf	I2C1_SetAddressNackCallback@cb+1,w
  8082  0D50  00A4               	movwf	I2C1_SetCallback@cb+1
  8083  0D51  0828               	movf	I2C1_SetAddressNackCallback@cb,w
  8084  0D52  00A3               	movwf	I2C1_SetCallback@cb
  8085  0D53  082A               	movf	I2C1_SetAddressNackCallback@ptr,w
  8086  0D54  00AB               	movwf	??_I2C1_SetAddressNackCallback
  8087  0D55  082B               	movf	??_I2C1_SetAddressNackCallback,w
  8088  0D56  00A5               	movwf	I2C1_SetCallback@ptr
  8089  0D57  3002               	movlw	2
  8090  0D58  318F  2727  318D   	fcall	_I2C1_SetCallback
  8091  0D5B                     l575:
  8092  0D5B  0008               	return
  8093  0D5C                     __end_of_I2C1_SetAddressNackCallback:
  8094                           
  8095                           	psect	text30
  8096  0F27                     __ptext30:	
  8097 ;; *************** function _I2C1_SetCallback *****************
  8098 ;; Defined at:
  8099 ;;		line 304 in file "mcc_generated_files/i2c1_master.c"
  8100 ;; Parameters:    Size  Location     Type
  8101 ;;  idx             1    wreg     enum E7068
  8102 ;;  cb              2    3[BANK0 ] PTR FTN(PTR void ,)enum 
  8103 ;;		 -> Absolute function(1), rdBlkRegCompleteHandler@i2c1_master_example$F180(1), wr2RegCompleteHandler@i2c1_master_exa
      +mple$F169(1), wr1RegCompleteHandler@i2c1_master_example$F163(1), 
  8104 ;;		 -> rd2RegCompleteHandler@i2c1_master_example$F157(1), rd1RegCompleteHandler@i2c1_master_example$F146(1), rdBlkRegCo
      +mpleteHandler(1), wr2RegCompleteHandler(1), 
  8105 ;;		 -> rd2RegCompleteHandler(1), rd1RegCompleteHandler(1), wr1RegCompleteHandler(1), 
  8106 ;;  ptr             1    5[BANK0 ] PTR void 
  8107 ;;		 -> I2C1_ReadDataBlock@bufferBlock(3), I2C1_Write2ByteRegister@data(2), I2C1_Write1ByteRegister@data(1), I2C1_Read2B
      +yteRegister@returnValue(2), 
  8108 ;;		 -> I2C1_Read1ByteRegister@returnValue(1), i2c_readDataBlock@d(3), i2c_write2ByteRegister@data(2), i2c_read2ByteRegi
      +ster@result(2), 
  8109 ;;		 -> i2c_read1ByteRegister@d2(1), i2c_write1ByteRegister@data(1), NULL(0), 
  8110 ;; Auto vars:     Size  Location     Type
  8111 ;;  idx             1    7[BANK0 ] enum E7068
  8112 ;; Return value:  Size  Location     Type
  8113 ;;                  1    wreg      void 
  8114 ;; Registers used:
  8115 ;;		wreg, fsr1l, fsr1h, status,2, status,0
  8116 ;; Tracked objects:
  8117 ;;		On entry : 0/0
  8118 ;;		On exit  : 0/0
  8119 ;;		Unchanged: 0/0
  8120 ;; Data sizes:     COMMON   BANK0   BANK1   BANK2   BANK3   BANK4   BANK5   BANK6   BANK7   BANK8   BANK9  BANK10  BANK1
      +1  BANK12
  8121 ;;      Params:         0       3       0       0       0       0       0       0       0       0       0       0       
      +0       0
  8122 ;;      Locals:         0       1       0       0       0       0       0       0       0       0       0       0       
      +0       0
  8123 ;;      Temps:          0       1       0       0       0       0       0       0       0       0       0       0       
      +0       0
  8124 ;;      Totals:         0       5       0       0       0       0       0       0       0       0       0       0       
      +0       0
  8125 ;;Total ram usage:        5 bytes
  8126 ;; Hardware stack levels used: 1
  8127 ;; Hardware stack levels required when called: 7
  8128 ;; This function calls:
  8129 ;;		Nothing
  8130 ;; This function is called by:
  8131 ;;		_I2C1_SetDataCompleteCallback
  8132 ;;		_I2C1_SetAddressNackCallback
  8133 ;;		_I2C1_SetWriteCollisionCallback
  8134 ;;		_I2C1_SetDataNackCallback
  8135 ;;		_I2C1_SetTimeoutCallback
  8136 ;; This function uses a non-reentrant model
  8137 ;;
  8138                           
  8139  0F27                     _I2C1_SetCallback:	
  8140                           ;psect for function _I2C1_SetCallback
  8141                           
  8142                           
  8143                           ;incstack = 0
  8144                           ; Regs used in _I2C1_SetCallback: [wreg+fsr1l+fsr1h+status,2+status,0]
  8145                           ;I2C1_SetCallback@idx stored from wreg
  8146  0F27  0020               	movlb	0	; select bank0
  8147  0F28  00A7               	movwf	I2C1_SetCallback@idx
  8148  0F29                     l3030:
  8149                           
  8150                           ;mcc_generated_files/i2c1_master.c: 304: static void I2C1_SetCallback(i2c1_callbackIndex
      +                          _t idx, i2c1_callback_t cb, void *ptr);mcc_generated_files/i2c1_master.c: 305: {;mcc_gen
      +                          erated_files/i2c1_master.c: 306:     if(cb)
  8151  0F29  0823               	movf	I2C1_SetCallback@cb,w
  8152  0F2A  0424               	iorwf	I2C1_SetCallback@cb+1,w
  8153  0F2B  1903               	btfsc	3,2
  8154  0F2C  2F2E               	goto	u1641
  8155  0F2D  2F2F               	goto	u1640
  8156  0F2E                     u1641:
  8157  0F2E  2F40               	goto	l3034
  8158  0F2F                     u1640:
  8159  0F2F                     l3032:
  8160                           
  8161                           ;mcc_generated_files/i2c1_master.c: 307:     {;mcc_generated_files/i2c1_master.c: 308:  
      +                                 I2C1_Status.callbackTable[idx] = cb;
  8162  0F2F  3527               	lslf	I2C1_SetCallback@idx,w
  8163  0F30  3EA0               	addlw	(low (_I2C1_Status| 0))& (0+255)
  8164  0F31  0086               	movwf	6
  8165  0F32  0187               	clrf	7
  8166  0F33  0823               	movf	I2C1_SetCallback@cb,w
  8167  0F34  3FC0               	movwi [0]fsr1
  8168  0F35  0824               	movf	I2C1_SetCallback@cb+1,w
  8169  0F36  3FC1               	movwi [1]fsr1
  8170                           
  8171                           ;mcc_generated_files/i2c1_master.c: 309:         I2C1_Status.callbackPayload[idx] = ptr;
  8172  0F37  0825               	movf	I2C1_SetCallback@ptr,w
  8173  0F38  00A6               	movwf	??_I2C1_SetCallback
  8174  0F39  0827               	movf	I2C1_SetCallback@idx,w
  8175  0F3A  3EAC               	addlw	(low ((_I2C1_Status| 0+12)))& (0+255)
  8176  0F3B  0086               	movwf	6
  8177  0F3C  0187               	clrf	7
  8178  0F3D  0826               	movf	??_I2C1_SetCallback,w
  8179  0F3E  0081               	movwf	1
  8180                           
  8181                           ;mcc_generated_files/i2c1_master.c: 310:     }
  8182  0F3F  2F4D               	goto	l589
  8183  0F40                     l3034:
  8184                           
  8185                           ;mcc_generated_files/i2c1_master.c: 312:     {;mcc_generated_files/i2c1_master.c: 313:  
      +                                 I2C1_Status.callbackTable[idx] = I2C1_CallbackReturnStop;
  8186  0F40  3527               	lslf	I2C1_SetCallback@idx,w
  8187  0F41  3EA0               	addlw	(low (_I2C1_Status| 0))& (0+255)
  8188  0F42  0086               	movwf	6
  8189  0F43  0187               	clrf	7
  8190  0F44  3057               	movlw	low _I2C1_CallbackReturnStop
  8191  0F45  3FC0               	movwi [0]fsr1
  8192  0F46  300C               	movlw	high _I2C1_CallbackReturnStop
  8193  0F47  3FC1               	movwi [1]fsr1
  8194                           
  8195                           ;mcc_generated_files/i2c1_master.c: 314:         I2C1_Status.callbackPayload[idx] = ((vo
      +                          id*)0);
  8196  0F48  0827               	movf	I2C1_SetCallback@idx,w
  8197  0F49  3EAC               	addlw	(low ((_I2C1_Status| 0+12)))& (0+255)
  8198  0F4A  0086               	movwf	6
  8199  0F4B  0187               	clrf	7
  8200  0F4C  0181               	clrf	1
  8201  0F4D                     l589:
  8202  0F4D  0008               	return
  8203  0F4E                     __end_of_I2C1_SetCallback:
  8204                           
  8205                           	psect	text31
  8206  0645                     __ptext31:	
  8207 ;; *************** function _I2C1_Open *****************
  8208 ;; Defined at:
  8209 ;;		line 176 in file "mcc_generated_files/i2c1_master.c"
  8210 ;; Parameters:    Size  Location     Type
  8211 ;;  address         1    wreg     unsigned char 
  8212 ;; Auto vars:     Size  Location     Type
  8213 ;;  address         1    6[BANK0 ] unsigned char 
  8214 ;;  returnValue     1    7[BANK0 ] enum E355
  8215 ;; Return value:  Size  Location     Type
  8216 ;;                  1    wreg      enum E355
  8217 ;; Registers used:
  8218 ;;		wreg, status,2, status,0, pclath, cstack
  8219 ;; Tracked objects:
  8220 ;;		On entry : 0/0
  8221 ;;		On exit  : 0/0
  8222 ;;		Unchanged: 0/0
  8223 ;; Data sizes:     COMMON   BANK0   BANK1   BANK2   BANK3   BANK4   BANK5   BANK6   BANK7   BANK8   BANK9  BANK10  BANK1
      +1  BANK12
  8224 ;;      Params:         0       0       0       0       0       0       0       0       0       0       0       0       
      +0       0
  8225 ;;      Locals:         0       2       0       0       0       0       0       0       0       0       0       0       
      +0       0
  8226 ;;      Temps:          0       1       0       0       0       0       0       0       0       0       0       0       
      +0       0
  8227 ;;      Totals:         0       3       0       0       0       0       0       0       0       0       0       0       
      +0       0
  8228 ;;Total ram usage:        3 bytes
  8229 ;; Hardware stack levels used: 1
  8230 ;; Hardware stack levels required when called: 8
  8231 ;; This function calls:
  8232 ;;		_I2C1_MasterClearIrq
  8233 ;;		_I2C1_MasterEnableIrq
  8234 ;;		_I2C1_MasterOpen
  8235 ;;		_I2C1_SetInterruptHandler
  8236 ;; This function is called by:
  8237 ;;		_i2c_write1ByteRegister
  8238 ;;		_i2c_read1ByteRegister
  8239 ;;		_i2c_writeNBytes
  8240 ;;		_i2c_read2ByteRegister
  8241 ;;		_i2c_write2ByteRegister
  8242 ;;		_i2c_readDataBlock
  8243 ;;		_i2c_readNBytes
  8244 ;;		_I2C1_Read1ByteRegister
  8245 ;;		_I2C1_Read2ByteRegister
  8246 ;;		_I2C1_Write1ByteRegister
  8247 ;;		_I2C1_Write2ByteRegister
  8248 ;;		_I2C1_WriteNBytes
  8249 ;;		_I2C1_ReadNBytes
  8250 ;;		_I2C1_ReadDataBlock
  8251 ;; This function uses a non-reentrant model
  8252 ;;
  8253                           
  8254  0645                     _I2C1_Open:	
  8255                           ;psect for function _I2C1_Open
  8256                           
  8257                           
  8258                           ;incstack = 0
  8259                           ; Regs used in _I2C1_Open: [wreg+status,2+status,0+pclath+cstack]
  8260                           ;I2C1_Open@address stored from wreg
  8261  0645  0020               	movlb	0	; select bank0
  8262  0646  00A6               	movwf	I2C1_Open@address
  8263  0647                     l3148:
  8264                           
  8265                           ;mcc_generated_files/i2c1_master.c: 176: i2c1_error_t I2C1_Open(i2c1_address_t address);
      +                          mcc_generated_files/i2c1_master.c: 177: {;mcc_generated_files/i2c1_master.c: 178:     i2
      +                          c1_error_t returnValue = I2C1_BUSY;
  8266  0647  01A7               	clrf	I2C1_Open@returnValue
  8267  0648  0AA7               	incf	I2C1_Open@returnValue,f
  8268                           
  8269                           ;mcc_generated_files/i2c1_master.c: 180:     if(!I2C1_Status.inUse)
  8270  0649  0021               	movlb	1	; select bank1
  8271  064A  193C               	btfsc	(_I2C1_Status^(0+128)+28),2
  8272  064B  2E4D               	goto	u1701
  8273  064C  2E4E               	goto	u1700
  8274  064D                     u1701:
  8275  064D  2E8E               	goto	l3180
  8276  064E                     u1700:
  8277  064E                     l3150:
  8278                           
  8279                           ;mcc_generated_files/i2c1_master.c: 181:     {;mcc_generated_files/i2c1_master.c: 182:  
      +                                 I2C1_Status.address = address;
  8280  064E  0020               	movlb	0	; select bank0
  8281  064F  0826               	movf	I2C1_Open@address,w
  8282  0650  00A5               	movwf	??_I2C1_Open
  8283  0651  0825               	movf	??_I2C1_Open,w
  8284  0652  0021               	movlb	1	; select bank1
  8285  0653  00B6               	movwf	(_I2C1_Status^(0+128)+22)
  8286  0654                     l3152:
  8287                           
  8288                           ;mcc_generated_files/i2c1_master.c: 183:         I2C1_Status.busy = 0;
  8289  0654  10BC               	bcf	(_I2C1_Status^(0+128)+28),1
  8290  0655                     l3154:
  8291                           
  8292                           ;mcc_generated_files/i2c1_master.c: 184:         I2C1_Status.inUse = 1;
  8293  0655  153C               	bsf	(_I2C1_Status^(0+128)+28),2
  8294  0656                     l3156:
  8295                           
  8296                           ;mcc_generated_files/i2c1_master.c: 185:         I2C1_Status.addressNackCheck = 0;
  8297  0656  103C               	bcf	(_I2C1_Status^(0+128)+28),0
  8298                           
  8299                           ;mcc_generated_files/i2c1_master.c: 186:         I2C1_Status.state = I2C1_RESET;
  8300  0657  300E               	movlw	14
  8301  0658  0020               	movlb	0	; select bank0
  8302  0659  00A5               	movwf	??_I2C1_Open
  8303  065A  0825               	movf	??_I2C1_Open,w
  8304  065B  0021               	movlb	1	; select bank1
  8305  065C  00BA               	movwf	(_I2C1_Status^(0+128)+26)
  8306                           
  8307                           ;mcc_generated_files/i2c1_master.c: 187:         I2C1_Status.time_out_value = 500;
  8308  065D  30F4               	movlw	244
  8309  065E  00B4               	movwf	(_I2C1_Status^(0+128)+20)
  8310  065F  3001               	movlw	1
  8311  0660  00B5               	movwf	(_I2C1_Status^(0+128)+21)
  8312  0661                     l3158:
  8313                           
  8314                           ;mcc_generated_files/i2c1_master.c: 188:         I2C1_Status.bufferFree = 1;
  8315  0661  15BC               	bsf	(_I2C1_Status^(0+128)+28),3
  8316                           
  8317                           ;mcc_generated_files/i2c1_master.c: 191:         I2C1_Status.callbackTable[I2C1_DATA_COM
      +                          PLETE]=I2C1_CallbackReturnStop;
  8318  0662  3057               	movlw	low _I2C1_CallbackReturnStop
  8319  0663  00A0               	movwf	_I2C1_Status^(0+128)
  8320  0664  300C               	movlw	high _I2C1_CallbackReturnStop
  8321  0665  00A1               	movwf	(_I2C1_Status^(0+128)+1)
  8322  0666                     l3160:
  8323                           
  8324                           ;mcc_generated_files/i2c1_master.c: 192:         I2C1_Status.callbackPayload[I2C1_DATA_C
      +                          OMPLETE] = ((void*)0);
  8325  0666  01AC               	clrf	(low ((_I2C1_Status| 0+12)))^(0+128)
  8326  0667                     l3162:
  8327                           
  8328                           ;mcc_generated_files/i2c1_master.c: 193:         I2C1_Status.callbackTable[I2C1_WRITE_CO
      +                          LLISION]=I2C1_CallbackReturnStop;
  8329  0667  3057               	movlw	low _I2C1_CallbackReturnStop
  8330  0668  00A2               	movwf	(low ((_I2C1_Status| 0+2)))^(0+128)
  8331  0669  300C               	movlw	high _I2C1_CallbackReturnStop
  8332  066A  00A3               	movwf	((low ((_I2C1_Status| 0+2)))^(0+128)+1)
  8333                           
  8334                           ;mcc_generated_files/i2c1_master.c: 194:         I2C1_Status.callbackPayload[I2C1_WRITE_
      +                          COLLISION] = ((void*)0);
  8335  066B  01AD               	clrf	(low ((_I2C1_Status| 0+13)))^(0+128)
  8336  066C                     l3164:
  8337                           
  8338                           ;mcc_generated_files/i2c1_master.c: 195:         I2C1_Status.callbackTable[I2C1_ADDR_NAC
      +                          K]=I2C1_CallbackReturnStop;
  8339  066C  3057               	movlw	low _I2C1_CallbackReturnStop
  8340  066D  00A4               	movwf	(low ((_I2C1_Status| 0+4)))^(0+128)
  8341  066E  300C               	movlw	high _I2C1_CallbackReturnStop
  8342  066F  00A5               	movwf	((low ((_I2C1_Status| 0+4)))^(0+128)+1)
  8343  0670                     l3166:
  8344                           
  8345                           ;mcc_generated_files/i2c1_master.c: 196:         I2C1_Status.callbackPayload[I2C1_ADDR_N
      +                          ACK] = ((void*)0);
  8346  0670  01AE               	clrf	(low ((_I2C1_Status| 0+14)))^(0+128)
  8347                           
  8348                           ;mcc_generated_files/i2c1_master.c: 197:         I2C1_Status.callbackTable[I2C1_DATA_NAC
      +                          K]=I2C1_CallbackReturnStop;
  8349  0671  3057               	movlw	low _I2C1_CallbackReturnStop
  8350  0672  00A6               	movwf	(low ((_I2C1_Status| 0+6)))^(0+128)
  8351  0673  300C               	movlw	high _I2C1_CallbackReturnStop
  8352  0674  00A7               	movwf	((low ((_I2C1_Status| 0+6)))^(0+128)+1)
  8353  0675                     l3168:
  8354                           
  8355                           ;mcc_generated_files/i2c1_master.c: 198:         I2C1_Status.callbackPayload[I2C1_DATA_N
      +                          ACK] = ((void*)0);
  8356  0675  01AF               	clrf	(low ((_I2C1_Status| 0+15)))^(0+128)
  8357  0676                     l3170:
  8358                           
  8359                           ;mcc_generated_files/i2c1_master.c: 199:         I2C1_Status.callbackTable[I2C1_TIMEOUT]
      +                          =I2C1_CallbackReturnReset;
  8360  0676  3002               	movlw	low _I2C1_CallbackReturnReset
  8361  0677  00A8               	movwf	(low ((_I2C1_Status| 0+8)))^(0+128)
  8362  0678  3000               	movlw	high _I2C1_CallbackReturnReset
  8363  0679  00A9               	movwf	((low ((_I2C1_Status| 0+8)))^(0+128)+1)
  8364                           
  8365                           ;mcc_generated_files/i2c1_master.c: 200:         I2C1_Status.callbackPayload[I2C1_TIMEOU
      +                          T] = ((void*)0);
  8366  067A  01B0               	clrf	(low ((_I2C1_Status| 0+16)))^(0+128)
  8367  067B                     l3172:
  8368                           
  8369                           ;mcc_generated_files/i2c1_master.c: 202:         I2C1_SetInterruptHandler(I2C1_MasterIsr
      +                          );
  8370  067B  3082               	movlw	low _I2C1_MasterIsr
  8371  067C  0020               	movlb	0	; select bank0
  8372  067D  00A3               	movwf	I2C1_SetInterruptHandler@InterruptHandler
  8373  067E  300C               	movlw	high _I2C1_MasterIsr
  8374  067F  00A4               	movwf	I2C1_SetInterruptHandler@InterruptHandler+1
  8375  0680  318C  24F4  3186   	fcall	_I2C1_SetInterruptHandler
  8376  0683                     l3174:
  8377                           
  8378                           ;mcc_generated_files/i2c1_master.c: 203:         I2C1_MasterClearIrq();
  8379  0683  318C  246B  3186   	fcall	_I2C1_MasterClearIrq
  8380  0686                     l3176:
  8381                           
  8382                           ;mcc_generated_files/i2c1_master.c: 204:         I2C1_MasterOpen();
  8383  0686  318D  2541  3186   	fcall	_I2C1_MasterOpen
  8384  0689                     l3178:
  8385                           
  8386                           ;mcc_generated_files/i2c1_master.c: 205:         I2C1_MasterEnableIrq();
  8387  0689  318C  2477  3186   	fcall	_I2C1_MasterEnableIrq
  8388                           
  8389                           ;mcc_generated_files/i2c1_master.c: 206:         returnValue = I2C1_NOERR;
  8390  068C  0020               	movlb	0	; select bank0
  8391  068D  01A7               	clrf	I2C1_Open@returnValue
  8392  068E                     l3180:
  8393                           
  8394                           ;mcc_generated_files/i2c1_master.c: 208:     return returnValue;
  8395  068E  0020               	movlb	0	; select bank0
  8396  068F  0827               	movf	I2C1_Open@returnValue,w
  8397  0690                     l543:
  8398  0690  0008               	return
  8399  0691                     __end_of_I2C1_Open:
  8400                           
  8401                           	psect	text32
  8402  0CF4                     __ptext32:	
  8403 ;; *************** function _I2C1_SetInterruptHandler *****************
  8404 ;; Defined at:
  8405 ;;		line 299 in file "mcc_generated_files/i2c1_master.c"
  8406 ;; Parameters:    Size  Location     Type
  8407 ;;  InterruptHan    2    3[BANK0 ] PTR FTN()void 
  8408 ;;		 -> I2C1_MasterIsr(1), 
  8409 ;; Auto vars:     Size  Location     Type
  8410 ;;		None
  8411 ;; Return value:  Size  Location     Type
  8412 ;;                  1    wreg      void 
  8413 ;; Registers used:
  8414 ;;		wreg
  8415 ;; Tracked objects:
  8416 ;;		On entry : 0/0
  8417 ;;		On exit  : 0/0
  8418 ;;		Unchanged: 0/0
  8419 ;; Data sizes:     COMMON   BANK0   BANK1   BANK2   BANK3   BANK4   BANK5   BANK6   BANK7   BANK8   BANK9  BANK10  BANK1
      +1  BANK12
  8420 ;;      Params:         0       2       0       0       0       0       0       0       0       0       0       0       
      +0       0
  8421 ;;      Locals:         0       0       0       0       0       0       0       0       0       0       0       0       
      +0       0
  8422 ;;      Temps:          0       0       0       0       0       0       0       0       0       0       0       0       
      +0       0
  8423 ;;      Totals:         0       2       0       0       0       0       0       0       0       0       0       0       
      +0       0
  8424 ;;Total ram usage:        2 bytes
  8425 ;; Hardware stack levels used: 1
  8426 ;; Hardware stack levels required when called: 7
  8427 ;; This function calls:
  8428 ;;		Nothing
  8429 ;; This function is called by:
  8430 ;;		_I2C1_Open
  8431 ;; This function uses a non-reentrant model
  8432 ;;
  8433                           
  8434  0CF4                     _I2C1_SetInterruptHandler:	
  8435                           ;psect for function _I2C1_SetInterruptHandler
  8436                           
  8437  0CF4                     l2990:	
  8438                           ;incstack = 0
  8439                           ; Regs used in _I2C1_SetInterruptHandler: [wreg]
  8440                           
  8441                           
  8442                           ;mcc_generated_files/i2c1_master.c: 299: void I2C1_SetInterruptHandler(void (* Interrupt
      +                          Handler)(void));mcc_generated_files/i2c1_master.c: 300: {;mcc_generated_files/i2c1_maste
      +                          r.c: 301:     MSSP1_InterruptHandler = InterruptHandler;
  8443  0CF4  0020               	movlb	0	; select bank0
  8444  0CF5  0824               	movf	I2C1_SetInterruptHandler@InterruptHandler+1,w
  8445  0CF6  0021               	movlb	1	; select bank1
  8446  0CF7  00C4               	movwf	(_MSSP1_InterruptHandler+1)^(0+128)
  8447  0CF8  0020               	movlb	0	; select bank0
  8448  0CF9  0823               	movf	I2C1_SetInterruptHandler@InterruptHandler,w
  8449  0CFA  0021               	movlb	1	; select bank1
  8450  0CFB  00C3               	movwf	_MSSP1_InterruptHandler^(0+128)
  8451  0CFC                     l584:
  8452  0CFC  0008               	return
  8453  0CFD                     __end_of_I2C1_SetInterruptHandler:
  8454                           
  8455                           	psect	text33
  8456  0D41                     __ptext33:	
  8457 ;; *************** function _I2C1_MasterOpen *****************
  8458 ;; Defined at:
  8459 ;;		line 544 in file "mcc_generated_files/i2c1_master.c"
  8460 ;; Parameters:    Size  Location     Type
  8461 ;;		None
  8462 ;; Auto vars:     Size  Location     Type
  8463 ;;		None
  8464 ;; Return value:  Size  Location     Type
  8465 ;;                  1    wreg      _Bool 
  8466 ;; Registers used:
  8467 ;;		wreg, status,2
  8468 ;; Tracked objects:
  8469 ;;		On entry : 0/0
  8470 ;;		On exit  : 0/0
  8471 ;;		Unchanged: 0/0
  8472 ;; Data sizes:     COMMON   BANK0   BANK1   BANK2   BANK3   BANK4   BANK5   BANK6   BANK7   BANK8   BANK9  BANK10  BANK1
      +1  BANK12
  8473 ;;      Params:         0       0       0       0       0       0       0       0       0       0       0       0       
      +0       0
  8474 ;;      Locals:         0       0       0       0       0       0       0       0       0       0       0       0       
      +0       0
  8475 ;;      Temps:          0       0       0       0       0       0       0       0       0       0       0       0       
      +0       0
  8476 ;;      Totals:         0       0       0       0       0       0       0       0       0       0       0       0       
      +0       0
  8477 ;;Total ram usage:        0 bytes
  8478 ;; Hardware stack levels used: 1
  8479 ;; Hardware stack levels required when called: 7
  8480 ;; This function calls:
  8481 ;;		Nothing
  8482 ;; This function is called by:
  8483 ;;		_I2C1_Open
  8484 ;; This function uses a non-reentrant model
  8485 ;;
  8486                           
  8487  0D41                     _I2C1_MasterOpen:	
  8488                           ;psect for function _I2C1_MasterOpen
  8489                           
  8490  0D41                     l2994:	
  8491                           ;incstack = 0
  8492                           ; Regs used in _I2C1_MasterOpen: [wreg+status,2]
  8493                           
  8494                           
  8495                           ;mcc_generated_files/i2c1_master.c: 546:     if(!SSP1CON1bits.SSPEN)
  8496  0D41  0024               	movlb	4	; select bank4
  8497  0D42  1A95               	btfsc	21,5	;volatile
  8498  0D43  2D45               	goto	u1611
  8499  0D44  2D46               	goto	u1610
  8500  0D45                     u1611:
  8501  0D45  2D4D               	goto	l708
  8502  0D46                     u1610:
  8503  0D46                     l2996:
  8504                           
  8505                           ;mcc_generated_files/i2c1_master.c: 547:     {;mcc_generated_files/i2c1_master.c: 548:  
      +                                 SSP1STAT = 0x00;
  8506  0D46  0194               	clrf	20	;volatile
  8507  0D47                     l2998:
  8508                           
  8509                           ;mcc_generated_files/i2c1_master.c: 549:         SSP1CON1 = 0x08;
  8510  0D47  3008               	movlw	8
  8511  0D48  0095               	movwf	21	;volatile
  8512  0D49                     l3000:
  8513                           
  8514                           ;mcc_generated_files/i2c1_master.c: 550:         SSP1CON2 = 0x00;
  8515  0D49  0196               	clrf	22	;volatile
  8516                           
  8517                           ;mcc_generated_files/i2c1_master.c: 551:         SSP1ADD = 0x4F;
  8518  0D4A  304F               	movlw	79
  8519  0D4B  0092               	movwf	18	;volatile
  8520  0D4C                     l3002:
  8521                           
  8522                           ;mcc_generated_files/i2c1_master.c: 552:         SSP1CON1bits.SSPEN = 1;
  8523  0D4C  1695               	bsf	21,5	;volatile
  8524  0D4D                     l708:
  8525  0D4D  0008               	return
  8526  0D4E                     __end_of_I2C1_MasterOpen:
  8527                           
  8528                           	psect	text34
  8529  0C77                     __ptext34:	
  8530 ;; *************** function _I2C1_MasterEnableIrq *****************
  8531 ;; Defined at:
  8532 ;;		line 627 in file "mcc_generated_files/i2c1_master.c"
  8533 ;; Parameters:    Size  Location     Type
  8534 ;;		None
  8535 ;; Auto vars:     Size  Location     Type
  8536 ;;		None
  8537 ;; Return value:  Size  Location     Type
  8538 ;;                  1    wreg      void 
  8539 ;; Registers used:
  8540 ;;		None
  8541 ;; Tracked objects:
  8542 ;;		On entry : 0/0
  8543 ;;		On exit  : 0/0
  8544 ;;		Unchanged: 0/0
  8545 ;; Data sizes:     COMMON   BANK0   BANK1   BANK2   BANK3   BANK4   BANK5   BANK6   BANK7   BANK8   BANK9  BANK10  BANK1
      +1  BANK12
  8546 ;;      Params:         0       0       0       0       0       0       0       0       0       0       0       0       
      +0       0
  8547 ;;      Locals:         0       0       0       0       0       0       0       0       0       0       0       0       
      +0       0
  8548 ;;      Temps:          0       0       0       0       0       0       0       0       0       0       0       0       
      +0       0
  8549 ;;      Totals:         0       0       0       0       0       0       0       0       0       0       0       0       
      +0       0
  8550 ;;Total ram usage:        0 bytes
  8551 ;; Hardware stack levels used: 1
  8552 ;; Hardware stack levels required when called: 7
  8553 ;; This function calls:
  8554 ;;		Nothing
  8555 ;; This function is called by:
  8556 ;;		_I2C1_Open
  8557 ;;		_I2C1_SetTimeOut
  8558 ;; This function uses a non-reentrant model
  8559 ;;
  8560                           
  8561  0C77                     _I2C1_MasterEnableIrq:	
  8562                           ;psect for function _I2C1_MasterEnableIrq
  8563                           
  8564  0C77                     l3006:	
  8565                           ;incstack = 0
  8566                           ; Regs used in _I2C1_MasterEnableIrq: []
  8567                           
  8568                           
  8569                           ;mcc_generated_files/i2c1_master.c: 629:     PIE1bits.SSP1IE = 1;
  8570  0C77  0021               	movlb	1	; select bank1
  8571  0C78  1591               	bsf	17,3	;volatile
  8572  0C79                     l750:
  8573  0C79  0008               	return
  8574  0C7A                     __end_of_I2C1_MasterEnableIrq:
  8575                           
  8576                           	psect	text35
  8577  0CBC                     __ptext35:	
  8578 ;; *************** function _I2C1_MasterWrite *****************
  8579 ;; Defined at:
  8580 ;;		line 252 in file "mcc_generated_files/i2c1_master.c"
  8581 ;; Parameters:    Size  Location     Type
  8582 ;;		None
  8583 ;; Auto vars:     Size  Location     Type
  8584 ;;		None
  8585 ;; Return value:  Size  Location     Type
  8586 ;;                  1    wreg      enum E355
  8587 ;; Registers used:
  8588 ;;		wreg, status,2, status,0, pclath, cstack
  8589 ;; Tracked objects:
  8590 ;;		On entry : 0/0
  8591 ;;		On exit  : 0/0
  8592 ;;		Unchanged: 0/0
  8593 ;; Data sizes:     COMMON   BANK0   BANK1   BANK2   BANK3   BANK4   BANK5   BANK6   BANK7   BANK8   BANK9  BANK10  BANK1
      +1  BANK12
  8594 ;;      Params:         0       0       0       0       0       0       0       0       0       0       0       0       
      +0       0
  8595 ;;      Locals:         0       0       0       0       0       0       0       0       0       0       0       0       
      +0       0
  8596 ;;      Temps:          0       0       0       0       0       0       0       0       0       0       0       0       
      +0       0
  8597 ;;      Totals:         0       0       0       0       0       0       0       0       0       0       0       0       
      +0       0
  8598 ;;Total ram usage:        0 bytes
  8599 ;; Hardware stack levels used: 1
  8600 ;; Hardware stack levels required when called: 9
  8601 ;; This function calls:
  8602 ;;		_I2C1_MasterOperation
  8603 ;; This function is called by:
  8604 ;;		_i2c_write1ByteRegister
  8605 ;;		_i2c_read1ByteRegister
  8606 ;;		_i2c_writeNBytes
  8607 ;;		_i2c_read2ByteRegister
  8608 ;;		_i2c_write2ByteRegister
  8609 ;;		_i2c_readDataBlock
  8610 ;;		_I2C1_Read1ByteRegister
  8611 ;;		_I2C1_Read2ByteRegister
  8612 ;;		_I2C1_Write1ByteRegister
  8613 ;;		_I2C1_Write2ByteRegister
  8614 ;;		_I2C1_WriteNBytes
  8615 ;;		_I2C1_ReadDataBlock
  8616 ;; This function uses a non-reentrant model
  8617 ;;
  8618                           
  8619  0CBC                     _I2C1_MasterWrite:	
  8620                           ;psect for function _I2C1_MasterWrite
  8621                           
  8622  0CBC                     l3186:	
  8623                           ;incstack = 0
  8624                           ; Regs used in _I2C1_MasterWrite: [wreg+status,2+status,0+pclath+cstack]
  8625                           
  8626                           
  8627                           ;mcc_generated_files/i2c1_master.c: 254:     return I2C1_MasterOperation(0);;	Return val
      +                          ue of _I2C1_MasterWrite is never used
  8628  0CBC  3000               	movlw	0
  8629  0CBD  318E  269A  318C   	fcall	_I2C1_MasterOperation
  8630  0CC0                     l559:
  8631  0CC0  0008               	return
  8632  0CC1                     __end_of_I2C1_MasterWrite:
  8633                           
  8634                           	psect	text36
  8635  0E9A                     __ptext36:	
  8636 ;; *************** function _I2C1_MasterOperation *****************
  8637 ;; Defined at:
  8638 ;;		line 226 in file "mcc_generated_files/i2c1_master.c"
  8639 ;; Parameters:    Size  Location     Type
  8640 ;;  read            1    wreg     _Bool 
  8641 ;; Auto vars:     Size  Location     Type
  8642 ;;  read            1    4[BANK0 ] _Bool 
  8643 ;;  returnValue     1    5[BANK0 ] enum E355
  8644 ;; Return value:  Size  Location     Type
  8645 ;;                  1    wreg      enum E355
  8646 ;; Registers used:
  8647 ;;		wreg, status,2, status,0, pclath, cstack
  8648 ;; Tracked objects:
  8649 ;;		On entry : 0/0
  8650 ;;		On exit  : 0/0
  8651 ;;		Unchanged: 0/0
  8652 ;; Data sizes:     COMMON   BANK0   BANK1   BANK2   BANK3   BANK4   BANK5   BANK6   BANK7   BANK8   BANK9  BANK10  BANK1
      +1  BANK12
  8653 ;;      Params:         0       0       0       0       0       0       0       0       0       0       0       0       
      +0       0
  8654 ;;      Locals:         0       2       0       0       0       0       0       0       0       0       0       0       
      +0       0
  8655 ;;      Temps:          0       1       0       0       0       0       0       0       0       0       0       0       
      +0       0
  8656 ;;      Totals:         0       3       0       0       0       0       0       0       0       0       0       0       
      +0       0
  8657 ;;Total ram usage:        3 bytes
  8658 ;; Hardware stack levels used: 1
  8659 ;; Hardware stack levels required when called: 8
  8660 ;; This function calls:
  8661 ;;		_I2C1_MasterStart
  8662 ;; This function is called by:
  8663 ;;		_I2C1_MasterWrite
  8664 ;;		_I2C1_MasterRead
  8665 ;; This function uses a non-reentrant model
  8666 ;;
  8667                           
  8668  0E9A                     _I2C1_MasterOperation:	
  8669                           ;psect for function _I2C1_MasterOperation
  8670                           
  8671                           
  8672                           ;incstack = 0
  8673                           ; Regs used in _I2C1_MasterOperation: [wreg+status,2+status,0+pclath+cstack]
  8674                           ;I2C1_MasterOperation@read stored from wreg
  8675  0E9A  0020               	movlb	0	; select bank0
  8676  0E9B  00A4               	movwf	I2C1_MasterOperation@read
  8677  0E9C                     l3012:
  8678                           
  8679                           ;mcc_generated_files/i2c1_master.c: 226: i2c1_error_t I2C1_MasterOperation(_Bool read);m
      +                          cc_generated_files/i2c1_master.c: 227: {;mcc_generated_files/i2c1_master.c: 228:     i2c
      +                          1_error_t returnValue = I2C1_BUSY;
  8680  0E9C  01A5               	clrf	I2C1_MasterOperation@returnValue
  8681  0E9D  0AA5               	incf	I2C1_MasterOperation@returnValue,f
  8682                           
  8683                           ;mcc_generated_files/i2c1_master.c: 229:     if(!I2C1_Status.busy)
  8684  0E9E  0021               	movlb	1	; select bank1
  8685  0E9F  18BC               	btfsc	(_I2C1_Status^(0+128)+28),1
  8686  0EA0  2EA2               	goto	u1621
  8687  0EA1  2EA3               	goto	u1620
  8688  0EA2                     u1621:
  8689  0EA2  2EB7               	goto	l3026
  8690  0EA3                     u1620:
  8691  0EA3                     l3014:
  8692                           
  8693                           ;mcc_generated_files/i2c1_master.c: 230:     {;mcc_generated_files/i2c1_master.c: 231:  
      +                                 I2C1_Status.busy = 1;
  8694  0EA3  14BC               	bsf	(_I2C1_Status^(0+128)+28),1
  8695  0EA4                     l3016:
  8696                           
  8697                           ;mcc_generated_files/i2c1_master.c: 232:         returnValue = I2C1_NOERR;
  8698  0EA4  0020               	movlb	0	; select bank0
  8699  0EA5  01A5               	clrf	I2C1_MasterOperation@returnValue
  8700  0EA6                     l3018:
  8701                           
  8702                           ;mcc_generated_files/i2c1_master.c: 234:         if(read)
  8703  0EA6  0824               	movf	I2C1_MasterOperation@read,w
  8704  0EA7  1903               	btfsc	3,2
  8705  0EA8  2EAA               	goto	u1631
  8706  0EA9  2EAB               	goto	u1630
  8707  0EAA                     u1631:
  8708  0EAA  2EAF               	goto	l3022
  8709  0EAB                     u1630:
  8710  0EAB                     l3020:
  8711                           
  8712                           ;mcc_generated_files/i2c1_master.c: 235:         {;mcc_generated_files/i2c1_master.c: 23
      +                          6:             I2C1_Status.state = I2C1_SEND_ADR_READ;
  8713  0EAB  0021               	movlb	1	; select bank1
  8714  0EAC  01BA               	clrf	(_I2C1_Status^(0+128)+26)
  8715  0EAD  0ABA               	incf	(_I2C1_Status^(0+128)+26),f
  8716                           
  8717                           ;mcc_generated_files/i2c1_master.c: 237:         }
  8718  0EAE  2EB4               	goto	l3024
  8719  0EAF                     l3022:
  8720                           
  8721                           ;mcc_generated_files/i2c1_master.c: 239:         {;mcc_generated_files/i2c1_master.c: 24
      +                          0:             I2C1_Status.state = I2C1_SEND_ADR_WRITE;
  8722  0EAF  3002               	movlw	2
  8723  0EB0  00A3               	movwf	??_I2C1_MasterOperation
  8724  0EB1  0823               	movf	??_I2C1_MasterOperation,w
  8725  0EB2  0021               	movlb	1	; select bank1
  8726  0EB3  00BA               	movwf	(_I2C1_Status^(0+128)+26)
  8727  0EB4                     l3024:
  8728                           
  8729                           ;mcc_generated_files/i2c1_master.c: 242:         I2C1_MasterStart();
  8730  0EB4  318C  2474  318E   	fcall	_I2C1_MasterStart
  8731  0EB7                     l3026:
  8732                           
  8733                           ;mcc_generated_files/i2c1_master.c: 244:     return returnValue;
  8734  0EB7  0020               	movlb	0	; select bank0
  8735  0EB8  0825               	movf	I2C1_MasterOperation@returnValue,w
  8736  0EB9                     l553:
  8737  0EB9  0008               	return
  8738  0EBA                     __end_of_I2C1_MasterOperation:
  8739                           
  8740                           	psect	text37
  8741  0C74                     __ptext37:	
  8742 ;; *************** function _I2C1_MasterStart *****************
  8743 ;; Defined at:
  8744 ;;		line 589 in file "mcc_generated_files/i2c1_master.c"
  8745 ;; Parameters:    Size  Location     Type
  8746 ;;		None
  8747 ;; Auto vars:     Size  Location     Type
  8748 ;;		None
  8749 ;; Return value:  Size  Location     Type
  8750 ;;                  1    wreg      void 
  8751 ;; Registers used:
  8752 ;;		None
  8753 ;; Tracked objects:
  8754 ;;		On entry : 0/0
  8755 ;;		On exit  : 0/0
  8756 ;;		Unchanged: 0/0
  8757 ;; Data sizes:     COMMON   BANK0   BANK1   BANK2   BANK3   BANK4   BANK5   BANK6   BANK7   BANK8   BANK9  BANK10  BANK1
      +1  BANK12
  8758 ;;      Params:         0       0       0       0       0       0       0       0       0       0       0       0       
      +0       0
  8759 ;;      Locals:         0       0       0       0       0       0       0       0       0       0       0       0       
      +0       0
  8760 ;;      Temps:          0       0       0       0       0       0       0       0       0       0       0       0       
      +0       0
  8761 ;;      Totals:         0       0       0       0       0       0       0       0       0       0       0       0       
      +0       0
  8762 ;;Total ram usage:        0 bytes
  8763 ;; Hardware stack levels used: 1
  8764 ;; Hardware stack levels required when called: 7
  8765 ;; This function calls:
  8766 ;;		Nothing
  8767 ;; This function is called by:
  8768 ;;		_I2C1_MasterOperation
  8769 ;; This function uses a non-reentrant model
  8770 ;;
  8771                           
  8772  0C74                     _I2C1_MasterStart:	
  8773                           ;psect for function _I2C1_MasterStart
  8774                           
  8775  0C74                     l2840:	
  8776                           ;incstack = 0
  8777                           ; Regs used in _I2C1_MasterStart: []
  8778                           
  8779                           
  8780                           ;mcc_generated_files/i2c1_master.c: 591:     SSP1CON2bits.SEN = 1;
  8781  0C74  0024               	movlb	4	; select bank4
  8782  0C75  1416               	bsf	22,0	;volatile
  8783  0C76                     l729:
  8784  0C76  0008               	return
  8785  0C77                     __end_of_I2C1_MasterStart:
  8786                           
  8787                           	psect	text38
  8788  0EBA                     __ptext38:	
  8789 ;; *************** function _I2C1_Close *****************
  8790 ;; Defined at:
  8791 ;;		line 211 in file "mcc_generated_files/i2c1_master.c"
  8792 ;; Parameters:    Size  Location     Type
  8793 ;;		None
  8794 ;; Auto vars:     Size  Location     Type
  8795 ;;  returnValue     1    4[BANK0 ] enum E355
  8796 ;; Return value:  Size  Location     Type
  8797 ;;                  1    wreg      enum E355
  8798 ;; Registers used:
  8799 ;;		wreg, status,2, status,0, pclath, cstack
  8800 ;; Tracked objects:
  8801 ;;		On entry : 0/0
  8802 ;;		On exit  : 0/0
  8803 ;;		Unchanged: 0/0
  8804 ;; Data sizes:     COMMON   BANK0   BANK1   BANK2   BANK3   BANK4   BANK5   BANK6   BANK7   BANK8   BANK9  BANK10  BANK1
      +1  BANK12
  8805 ;;      Params:         0       0       0       0       0       0       0       0       0       0       0       0       
      +0       0
  8806 ;;      Locals:         0       1       0       0       0       0       0       0       0       0       0       0       
      +0       0
  8807 ;;      Temps:          0       1       0       0       0       0       0       0       0       0       0       0       
      +0       0
  8808 ;;      Totals:         0       2       0       0       0       0       0       0       0       0       0       0       
      +0       0
  8809 ;;Total ram usage:        2 bytes
  8810 ;; Hardware stack levels used: 1
  8811 ;; Hardware stack levels required when called: 8
  8812 ;; This function calls:
  8813 ;;		_I2C1_MasterClearIrq
  8814 ;;		_I2C1_MasterClose
  8815 ;;		_I2C1_MasterDisableIrq
  8816 ;; This function is called by:
  8817 ;;		_i2c_write1ByteRegister
  8818 ;;		_i2c_read1ByteRegister
  8819 ;;		_i2c_writeNBytes
  8820 ;;		_i2c_read2ByteRegister
  8821 ;;		_i2c_write2ByteRegister
  8822 ;;		_i2c_readDataBlock
  8823 ;;		_i2c_readNBytes
  8824 ;;		_I2C1_Read1ByteRegister
  8825 ;;		_I2C1_Read2ByteRegister
  8826 ;;		_I2C1_Write1ByteRegister
  8827 ;;		_I2C1_Write2ByteRegister
  8828 ;;		_I2C1_WriteNBytes
  8829 ;;		_I2C1_ReadNBytes
  8830 ;;		_I2C1_ReadDataBlock
  8831 ;; This function uses a non-reentrant model
  8832 ;;
  8833                           
  8834  0EBA                     _I2C1_Close:	
  8835                           ;psect for function _I2C1_Close
  8836                           
  8837  0EBA                     l3190:	
  8838                           ;incstack = 0
  8839                           ; Regs used in _I2C1_Close: [wreg+status,2+status,0+pclath+cstack]
  8840                           
  8841                           
  8842                           ;mcc_generated_files/i2c1_master.c: 213:     i2c1_error_t returnValue = I2C1_BUSY;
  8843  0EBA  0020               	movlb	0	; select bank0
  8844  0EBB  01A4               	clrf	I2C1_Close@returnValue
  8845  0EBC  0AA4               	incf	I2C1_Close@returnValue,f
  8846                           
  8847                           ;mcc_generated_files/i2c1_master.c: 214:     if(!I2C1_Status.busy)
  8848  0EBD  0021               	movlb	1	; select bank1
  8849  0EBE  18BC               	btfsc	(_I2C1_Status^(0+128)+28),1
  8850  0EBF  2EC1               	goto	u1711
  8851  0EC0  2EC2               	goto	u1710
  8852  0EC1                     u1711:
  8853  0EC1  2ED8               	goto	l3204
  8854  0EC2                     u1710:
  8855  0EC2                     l3192:
  8856                           
  8857                           ;mcc_generated_files/i2c1_master.c: 215:     {;mcc_generated_files/i2c1_master.c: 216:  
      +                                 I2C1_Status.inUse = 0;
  8858  0EC2  113C               	bcf	(_I2C1_Status^(0+128)+28),2
  8859  0EC3                     l3194:
  8860                           
  8861                           ;mcc_generated_files/i2c1_master.c: 217:         I2C1_Status.address = 0xff;
  8862  0EC3  30FF               	movlw	255
  8863  0EC4  0020               	movlb	0	; select bank0
  8864  0EC5  00A3               	movwf	??_I2C1_Close
  8865  0EC6  0823               	movf	??_I2C1_Close,w
  8866  0EC7  0021               	movlb	1	; select bank1
  8867  0EC8  00B6               	movwf	(_I2C1_Status^(0+128)+22)
  8868  0EC9                     l3196:
  8869                           
  8870                           ;mcc_generated_files/i2c1_master.c: 218:         I2C1_MasterClearIrq();
  8871  0EC9  318C  246B  318E   	fcall	_I2C1_MasterClearIrq
  8872  0ECC                     l3198:
  8873                           
  8874                           ;mcc_generated_files/i2c1_master.c: 219:         I2C1_MasterDisableIrq();
  8875  0ECC  318C  2471  318E   	fcall	_I2C1_MasterDisableIrq
  8876  0ECF                     l3200:
  8877                           
  8878                           ;mcc_generated_files/i2c1_master.c: 220:         I2C1_MasterClose();
  8879  0ECF  318C  246E  318E   	fcall	_I2C1_MasterClose
  8880  0ED2                     l3202:
  8881                           
  8882                           ;mcc_generated_files/i2c1_master.c: 221:         returnValue = I2C1_Status.error;
  8883  0ED2  0021               	movlb	1	; select bank1
  8884  0ED3  083B               	movf	(_I2C1_Status^(0+128)+27),w
  8885  0ED4  0020               	movlb	0	; select bank0
  8886  0ED5  00A3               	movwf	??_I2C1_Close
  8887  0ED6  0823               	movf	??_I2C1_Close,w
  8888  0ED7  00A4               	movwf	I2C1_Close@returnValue
  8889  0ED8                     l3204:
  8890                           
  8891                           ;mcc_generated_files/i2c1_master.c: 223:     return returnValue;
  8892  0ED8  0020               	movlb	0	; select bank0
  8893  0ED9  0824               	movf	I2C1_Close@returnValue,w
  8894  0EDA                     l547:
  8895  0EDA  0008               	return
  8896  0EDB                     __end_of_I2C1_Close:
  8897                           
  8898                           	psect	text39
  8899  0C71                     __ptext39:	
  8900 ;; *************** function _I2C1_MasterDisableIrq *****************
  8901 ;; Defined at:
  8902 ;;		line 637 in file "mcc_generated_files/i2c1_master.c"
  8903 ;; Parameters:    Size  Location     Type
  8904 ;;		None
  8905 ;; Auto vars:     Size  Location     Type
  8906 ;;		None
  8907 ;; Return value:  Size  Location     Type
  8908 ;;                  1    wreg      void 
  8909 ;; Registers used:
  8910 ;;		None
  8911 ;; Tracked objects:
  8912 ;;		On entry : 0/0
  8913 ;;		On exit  : 0/0
  8914 ;;		Unchanged: 0/0
  8915 ;; Data sizes:     COMMON   BANK0   BANK1   BANK2   BANK3   BANK4   BANK5   BANK6   BANK7   BANK8   BANK9  BANK10  BANK1
      +1  BANK12
  8916 ;;      Params:         0       0       0       0       0       0       0       0       0       0       0       0       
      +0       0
  8917 ;;      Locals:         0       0       0       0       0       0       0       0       0       0       0       0       
      +0       0
  8918 ;;      Temps:          0       0       0       0       0       0       0       0       0       0       0       0       
      +0       0
  8919 ;;      Totals:         0       0       0       0       0       0       0       0       0       0       0       0       
      +0       0
  8920 ;;Total ram usage:        0 bytes
  8921 ;; Hardware stack levels used: 1
  8922 ;; Hardware stack levels required when called: 7
  8923 ;; This function calls:
  8924 ;;		Nothing
  8925 ;; This function is called by:
  8926 ;;		_I2C1_Close
  8927 ;;		_I2C1_SetTimeOut
  8928 ;; This function uses a non-reentrant model
  8929 ;;
  8930                           
  8931  0C71                     _I2C1_MasterDisableIrq:	
  8932                           ;psect for function _I2C1_MasterDisableIrq
  8933                           
  8934  0C71                     l3008:	
  8935                           ;incstack = 0
  8936                           ; Regs used in _I2C1_MasterDisableIrq: []
  8937                           
  8938                           
  8939                           ;mcc_generated_files/i2c1_master.c: 639:     PIE1bits.SSP1IE = 0;
  8940  0C71  0021               	movlb	1	; select bank1
  8941  0C72  1191               	bcf	17,3	;volatile
  8942  0C73                     l756:
  8943  0C73  0008               	return
  8944  0C74                     __end_of_I2C1_MasterDisableIrq:
  8945                           
  8946                           	psect	text40
  8947  0C6E                     __ptext40:	
  8948 ;; *************** function _I2C1_MasterClose *****************
  8949 ;; Defined at:
  8950 ;;		line 558 in file "mcc_generated_files/i2c1_master.c"
  8951 ;; Parameters:    Size  Location     Type
  8952 ;;		None
  8953 ;; Auto vars:     Size  Location     Type
  8954 ;;		None
  8955 ;; Return value:  Size  Location     Type
  8956 ;;                  1    wreg      void 
  8957 ;; Registers used:
  8958 ;;		None
  8959 ;; Tracked objects:
  8960 ;;		On entry : 0/0
  8961 ;;		On exit  : 0/0
  8962 ;;		Unchanged: 0/0
  8963 ;; Data sizes:     COMMON   BANK0   BANK1   BANK2   BANK3   BANK4   BANK5   BANK6   BANK7   BANK8   BANK9  BANK10  BANK1
      +1  BANK12
  8964 ;;      Params:         0       0       0       0       0       0       0       0       0       0       0       0       
      +0       0
  8965 ;;      Locals:         0       0       0       0       0       0       0       0       0       0       0       0       
      +0       0
  8966 ;;      Temps:          0       0       0       0       0       0       0       0       0       0       0       0       
      +0       0
  8967 ;;      Totals:         0       0       0       0       0       0       0       0       0       0       0       0       
      +0       0
  8968 ;;Total ram usage:        0 bytes
  8969 ;; Hardware stack levels used: 1
  8970 ;; Hardware stack levels required when called: 7
  8971 ;; This function calls:
  8972 ;;		Nothing
  8973 ;; This function is called by:
  8974 ;;		_I2C1_Close
  8975 ;; This function uses a non-reentrant model
  8976 ;;
  8977                           
  8978  0C6E                     _I2C1_MasterClose:	
  8979                           ;psect for function _I2C1_MasterClose
  8980                           
  8981  0C6E                     l3010:	
  8982                           ;incstack = 0
  8983                           ; Regs used in _I2C1_MasterClose: []
  8984                           
  8985                           
  8986                           ;mcc_generated_files/i2c1_master.c: 561:     SSP1CON1bits.SSPEN = 0;
  8987  0C6E  0024               	movlb	4	; select bank4
  8988  0C6F  1295               	bcf	21,5	;volatile
  8989  0C70                     l711:
  8990  0C70  0008               	return
  8991  0C71                     __end_of_I2C1_MasterClose:
  8992                           
  8993                           	psect	text41
  8994  0C6B                     __ptext41:	
  8995 ;; *************** function _I2C1_MasterClearIrq *****************
  8996 ;; Defined at:
  8997 ;;		line 642 in file "mcc_generated_files/i2c1_master.c"
  8998 ;; Parameters:    Size  Location     Type
  8999 ;;		None
  9000 ;; Auto vars:     Size  Location     Type
  9001 ;;		None
  9002 ;; Return value:  Size  Location     Type
  9003 ;;                  1    wreg      void 
  9004 ;; Registers used:
  9005 ;;		None
  9006 ;; Tracked objects:
  9007 ;;		On entry : 0/0
  9008 ;;		On exit  : 0/0
  9009 ;;		Unchanged: 0/0
  9010 ;; Data sizes:     COMMON   BANK0   BANK1   BANK2   BANK3   BANK4   BANK5   BANK6   BANK7   BANK8   BANK9  BANK10  BANK1
      +1  BANK12
  9011 ;;      Params:         0       0       0       0       0       0       0       0       0       0       0       0       
      +0       0
  9012 ;;      Locals:         0       0       0       0       0       0       0       0       0       0       0       0       
      +0       0
  9013 ;;      Temps:          0       0       0       0       0       0       0       0       0       0       0       0       
      +0       0
  9014 ;;      Totals:         0       0       0       0       0       0       0       0       0       0       0       0       
      +0       0
  9015 ;;Total ram usage:        0 bytes
  9016 ;; Hardware stack levels used: 1
  9017 ;; Hardware stack levels required when called: 7
  9018 ;; This function calls:
  9019 ;;		Nothing
  9020 ;; This function is called by:
  9021 ;;		_I2C1_Open
  9022 ;;		_I2C1_Close
  9023 ;; This function uses a non-reentrant model
  9024 ;;
  9025                           
  9026  0C6B                     _I2C1_MasterClearIrq:	
  9027                           ;psect for function _I2C1_MasterClearIrq
  9028                           
  9029  0C6B                     l2992:	
  9030                           ;incstack = 0
  9031                           ; Regs used in _I2C1_MasterClearIrq: []
  9032                           
  9033                           
  9034                           ;mcc_generated_files/i2c1_master.c: 644:     PIR1bits.SSP1IF = 0;
  9035  0C6B  0020               	movlb	0	; select bank0
  9036  0C6C  1191               	bcf	17,3	;volatile
  9037  0C6D                     l759:
  9038  0C6D  0008               	return
  9039  0C6E                     __end_of_I2C1_MasterClearIrq:
  9040                           
  9041                           	psect	intentry
  9042  0004                     __pintentry:	
  9043 ;; *************** function _INTERRUPT_InterruptManager *****************
  9044 ;; Defined at:
  9045 ;;		line 52 in file "mcc_generated_files/interrupt_manager.c"
  9046 ;; Parameters:    Size  Location     Type
  9047 ;;		None
  9048 ;; Auto vars:     Size  Location     Type
  9049 ;;		None
  9050 ;; Return value:  Size  Location     Type
  9051 ;;                  1    wreg      void 
  9052 ;; Registers used:
  9053 ;;		wreg, fsr0l, fsr0h, fsr1l, fsr1h, status,2, status,0, pclath, cstack
  9054 ;; Tracked objects:
  9055 ;;		On entry : 0/0
  9056 ;;		On exit  : 0/0
  9057 ;;		Unchanged: 0/0
  9058 ;; Data sizes:     COMMON   BANK0   BANK1   BANK2   BANK3   BANK4   BANK5   BANK6   BANK7   BANK8   BANK9  BANK10  BANK1
      +1  BANK12
  9059 ;;      Params:         0       0       0       0       0       0       0       0       0       0       0       0       
      +0       0
  9060 ;;      Locals:         0       0       0       0       0       0       0       0       0       0       0       0       
      +0       0
  9061 ;;      Temps:          0       0       0       0       0       0       0       0       0       0       0       0       
      +0       0
  9062 ;;      Totals:         0       0       0       0       0       0       0       0       0       0       0       0       
      +0       0
  9063 ;;Total ram usage:        0 bytes
  9064 ;; Hardware stack levels used: 1
  9065 ;; Hardware stack levels required when called: 6
  9066 ;; This function calls:
  9067 ;;		Absolute function
  9068 ;;		_I2C1_MasterIsr
  9069 ;; This function is called by:
  9070 ;;		Interrupt level 1
  9071 ;; This function uses a non-reentrant model
  9072 ;;
  9073                           
  9074  0004                     _INTERRUPT_InterruptManager:
  9075                           
  9076                           ;incstack = 0
  9077 ;; hardware stack exceeded
  9078  0004  147E               	bsf	int$flags,0	;set compiler interrupt flag (level 1)
  9079                           
  9080                           ; Regs used in _INTERRUPT_InterruptManager: [wreg-fsr1h+status,2+status,0+pclath+cstack]
  9081  0005  3180               	pagesel	$
  9082  0006                     i1l3744:
  9083                           
  9084                           ;mcc_generated_files/interrupt_manager.c: 55:     if(INTCONbits.PEIE == 1)
  9085  0006  1F0B               	btfss	11,6	;volatile
  9086  0007  2809               	goto	u211_21
  9087  0008  280A               	goto	u211_20
  9088  0009                     u211_21:
  9089  0009  2826               	goto	i1l788
  9090  000A                     u211_20:
  9091  000A                     i1l3746:
  9092                           
  9093                           ;mcc_generated_files/interrupt_manager.c: 56:     {;mcc_generated_files/interrupt_manage
      +                          r.c: 57:         if(PIE1bits.BCL1IE == 1 && PIR1bits.BCL1IF == 1)
  9094  000A  0021               	movlb	1	; select bank1
  9095  000B  1D11               	btfss	17,2	;volatile
  9096  000C  280E               	goto	u212_21
  9097  000D  280F               	goto	u212_20
  9098  000E                     u212_21:
  9099  000E  281B               	goto	i1l783
  9100  000F                     u212_20:
  9101  000F                     i1l3748:
  9102  000F  0020               	movlb	0	; select bank0
  9103  0010  1D11               	btfss	17,2	;volatile
  9104  0011  2813               	goto	u213_21
  9105  0012  2814               	goto	u213_20
  9106  0013                     u213_21:
  9107  0013  281B               	goto	i1l783
  9108  0014                     u213_20:
  9109  0014                     i1l3750:
  9110                           
  9111                           ;mcc_generated_files/interrupt_manager.c: 58:         {;mcc_generated_files/interrupt_ma
      +                          nager.c: 59:             MSSP1_InterruptHandler();
  9112  0014  0021               	movlb	1	; select bank1
  9113  0015  0844               	movf	(_MSSP1_InterruptHandler+1)^(0+128),w
  9114  0016  008A               	movwf	10
  9115  0017  0843               	movf	_MSSP1_InterruptHandler^(0+128),w
  9116  0018  000A               	callw
  9117  0019  3180               	pagesel	$
  9118                           
  9119                           ;mcc_generated_files/interrupt_manager.c: 60:         }
  9120  001A  2826               	goto	i1l788
  9121  001B                     i1l783:	
  9122                           ;mcc_generated_files/interrupt_manager.c: 61:         else if(PIE1bits.SSP1IE == 1 && PI
      +                          R1bits.SSP1IF == 1)
  9123                           
  9124  001B  0021               	movlb	1	; select bank1
  9125  001C  1D91               	btfss	17,3	;volatile
  9126  001D  281F               	goto	u214_21
  9127  001E  2820               	goto	u214_20
  9128  001F                     u214_21:
  9129  001F  2826               	goto	i1l784
  9130  0020                     u214_20:
  9131  0020                     i1l3752:
  9132  0020  0020               	movlb	0	; select bank0
  9133  0021  1D91               	btfss	17,3	;volatile
  9134  0022  2824               	goto	u215_21
  9135  0023  2825               	goto	u215_20
  9136  0024                     u215_21:
  9137  0024  2826               	goto	i1l784
  9138  0025                     u215_20:
  9139  0025  2814               	goto	i1l3750
  9140  0026                     i1l784:
  9141  0026                     i1l788:	
  9142                           ;mcc_generated_files/interrupt_manager.c: 69:     }
  9143                           
  9144  0026  107E               	bcf	int$flags,0	;clear compiler interrupt flag (level 1)
  9145  0027  0009               	retfie
  9146  0028                     __end_of_INTERRUPT_InterruptManager:
  9147                           
  9148                           	psect	text43
  9149  0C82                     __ptext43:	
  9150 ;; *************** function _I2C1_MasterIsr *****************
  9151 ;; Defined at:
  9152 ;;		line 318 in file "mcc_generated_files/i2c1_master.c"
  9153 ;; Parameters:    Size  Location     Type
  9154 ;;		None
  9155 ;; Auto vars:     Size  Location     Type
  9156 ;;		None
  9157 ;; Return value:  Size  Location     Type
  9158 ;;                  1    wreg      void 
  9159 ;; Registers used:
  9160 ;;		wreg, fsr0l, fsr0h, fsr1l, fsr1h, status,2, status,0, pclath, cstack
  9161 ;; Tracked objects:
  9162 ;;		On entry : 0/0
  9163 ;;		On exit  : 0/0
  9164 ;;		Unchanged: 0/0
  9165 ;; Data sizes:     COMMON   BANK0   BANK1   BANK2   BANK3   BANK4   BANK5   BANK6   BANK7   BANK8   BANK9  BANK10  BANK1
      +1  BANK12
  9166 ;;      Params:         0       0       0       0       0       0       0       0       0       0       0       0       
      +0       0
  9167 ;;      Locals:         0       0       0       0       0       0       0       0       0       0       0       0       
      +0       0
  9168 ;;      Temps:          0       0       0       0       0       0       0       0       0       0       0       0       
      +0       0
  9169 ;;      Totals:         0       0       0       0       0       0       0       0       0       0       0       0       
      +0       0
  9170 ;;Total ram usage:        0 bytes
  9171 ;; Hardware stack levels used: 1
  9172 ;; Hardware stack levels required when called: 5
  9173 ;; This function calls:
  9174 ;;		_I2C1_MasterFsm
  9175 ;; This function is called by:
  9176 ;;		_I2C1_Open
  9177 ;;		_INTERRUPT_InterruptManager
  9178 ;; This function uses a non-reentrant model
  9179 ;;
  9180                           
  9181  0C82                     _I2C1_MasterIsr:	
  9182                           ;psect for function _I2C1_MasterIsr
  9183                           
  9184  0C82                     i1l3552:	
  9185                           ;incstack = 0
  9186 ;; hardware stack exceeded
  9187                           ; Regs used in _I2C1_MasterIsr: [wreg-fsr1h+status,2+status,0+pclath+cstack]
  9188                           
  9189                           
  9190                           ;mcc_generated_files/i2c1_master.c: 320:     I2C1_MasterFsm();
  9191  0C82  318F  27A3  318C   	fcall	_I2C1_MasterFsm
  9192  0C85                     i1l592:
  9193  0C85  0008               	return
  9194  0C86                     __end_of_I2C1_MasterIsr:
  9195                           
  9196                           	psect	text44
  9197  0FA3                     __ptext44:	
  9198 ;; *************** function _I2C1_MasterFsm *****************
  9199 ;; Defined at:
  9200 ;;		line 323 in file "mcc_generated_files/i2c1_master.c"
  9201 ;; Parameters:    Size  Location     Type
  9202 ;;		None
  9203 ;; Auto vars:     Size  Location     Type
  9204 ;;		None
  9205 ;; Return value:  Size  Location     Type
  9206 ;;                  1    wreg      void 
  9207 ;; Registers used:
  9208 ;;		wreg, fsr0l, fsr0h, fsr1l, fsr1h, status,2, status,0, pclath, cstack
  9209 ;; Tracked objects:
  9210 ;;		On entry : 0/0
  9211 ;;		On exit  : 0/0
  9212 ;;		Unchanged: 0/0
  9213 ;; Data sizes:     COMMON   BANK0   BANK1   BANK2   BANK3   BANK4   BANK5   BANK6   BANK7   BANK8   BANK9  BANK10  BANK1
      +1  BANK12
  9214 ;;      Params:         0       0       0       0       0       0       0       0       0       0       0       0       
      +0       0
  9215 ;;      Locals:         0       0       0       0       0       0       0       0       0       0       0       0       
      +0       0
  9216 ;;      Temps:          0       3       0       0       0       0       0       0       0       0       0       0       
      +0       0
  9217 ;;      Totals:         0       3       0       0       0       0       0       0       0       0       0       0       
      +0       0
  9218 ;;Total ram usage:        3 bytes
  9219 ;; Hardware stack levels used: 1
  9220 ;; Hardware stack levels required when called: 4
  9221 ;; This function calls:
  9222 ;;		_I2C1_DO_ADDRESS_NACK
  9223 ;;		_I2C1_DO_IDLE
  9224 ;;		_I2C1_DO_RCEN
  9225 ;;		_I2C1_DO_RESET
  9226 ;;		_I2C1_DO_RX
  9227 ;;		_I2C1_DO_RX_ACK
  9228 ;;		_I2C1_DO_RX_NACK_RESTART
  9229 ;;		_I2C1_DO_RX_NACK_STOP
  9230 ;;		_I2C1_DO_SEND_ADR_READ
  9231 ;;		_I2C1_DO_SEND_ADR_WRITE
  9232 ;;		_I2C1_DO_SEND_RESTART
  9233 ;;		_I2C1_DO_SEND_RESTART_READ
  9234 ;;		_I2C1_DO_SEND_RESTART_WRITE
  9235 ;;		_I2C1_DO_SEND_STOP
  9236 ;;		_I2C1_DO_TX
  9237 ;;		_I2C1_DO_TX_EMPTY
  9238 ;;		_I2C1_MasterIsNack
  9239 ;;		i1_I2C1_MasterClearIrq
  9240 ;; This function is called by:
  9241 ;;		_I2C1_MasterIsr
  9242 ;; This function uses a non-reentrant model
  9243 ;;
  9244                           
  9245  0FA3                     _I2C1_MasterFsm:	
  9246                           ;psect for function _I2C1_MasterFsm
  9247                           
  9248  0FA3                     i1l3490:	
  9249                           ;incstack = 0
  9250 ;; hardware stack exceeded
  9251                           ; Regs used in _I2C1_MasterFsm: [wreg-fsr1h+status,2+status,0+pclath+cstack]
  9252                           
  9253                           
  9254                           ;mcc_generated_files/i2c1_master.c: 325:     I2C1_MasterClearIrq();
  9255  0FA3  318C  2468  318F   	fcall	i1_I2C1_MasterClearIrq
  9256  0FA6                     i1l3492:
  9257                           
  9258                           ;mcc_generated_files/i2c1_master.c: 327:     if(I2C1_Status.addressNackCheck && I2C1_Mas
      +                          terIsNack())
  9259  0FA6  0021               	movlb	1	; select bank1
  9260  0FA7  1C3C               	btfss	(_I2C1_Status^(0+128)+28),0
  9261  0FA8  2FAA               	goto	u180_21
  9262  0FA9  2FAB               	goto	u180_20
  9263  0FAA                     u180_21:
  9264  0FAA  2FB9               	goto	i1l3498
  9265  0FAB                     u180_20:
  9266  0FAB                     i1l3494:
  9267  0FAB  318C  24C1  318F   	fcall	_I2C1_MasterIsNack
  9268  0FAE  3A00               	xorlw	0
  9269  0FAF  1903               	skipnz
  9270  0FB0  2FB2               	goto	u181_21
  9271  0FB1  2FB3               	goto	u181_20
  9272  0FB2                     u181_21:
  9273  0FB2  2FB9               	goto	i1l3498
  9274  0FB3                     u181_20:
  9275  0FB3                     i1l3496:
  9276                           
  9277                           ;mcc_generated_files/i2c1_master.c: 328:     {;mcc_generated_files/i2c1_master.c: 329:  
      +                                 I2C1_Status.state = I2C1_ADDRESS_NACK;
  9278  0FB3  300F               	movlw	15
  9279  0FB4  0020               	movlb	0	; select bank0
  9280  0FB5  00A0               	movwf	??_I2C1_MasterFsm
  9281  0FB6  0820               	movf	??_I2C1_MasterFsm,w
  9282  0FB7  0021               	movlb	1	; select bank1
  9283  0FB8  00BA               	movwf	(_I2C1_Status^(0+128)+26)
  9284  0FB9                     i1l3498:
  9285                           
  9286                           ;mcc_generated_files/i2c1_master.c: 331:     I2C1_Status.state = i2c1_fsmStateTable[I2C1
      +                          _Status.state]();
  9287  0FB9  0021               	movlb	1	; select bank1
  9288  0FBA  083A               	movf	(_I2C1_Status^(0+128)+26),w
  9289  0FBB  0020               	movlb	0	; select bank0
  9290  0FBC  00A0               	movwf	??_I2C1_MasterFsm
  9291  0FBD  01A1               	clrf	??_I2C1_MasterFsm+1
  9292  0FBE  35A0               	lslf	??_I2C1_MasterFsm,f
  9293  0FBF  0DA1               	rlf	??_I2C1_MasterFsm+1,f
  9294  0FC0  3000               	movlw	low (_i2c1_fsmStateTable| (0+32768))
  9295  0FC1  0720               	addwf	??_I2C1_MasterFsm,w
  9296  0FC2  0084               	movwf	4
  9297  0FC3  3090               	movlw	high (_i2c1_fsmStateTable| (0+32768))
  9298  0FC4  3D21               	addwfc	??_I2C1_MasterFsm+1,w
  9299  0FC5  0085               	movwf	5
  9300  0FC6  3F01               	moviw [1]fsr0
  9301  0FC7  008A               	movwf	10
  9302  0FC8  3F00               	moviw [0]fsr0
  9303  0FC9  000A               	callw
  9304  0FCA  318F               	pagesel	$
  9305  0FCB  0020               	movlb	0	; select bank0
  9306  0FCC  00A2               	movwf	??_I2C1_MasterFsm+2
  9307  0FCD  0822               	movf	??_I2C1_MasterFsm+2,w
  9308  0FCE  0021               	movlb	1	; select bank1
  9309  0FCF  00BA               	movwf	(_I2C1_Status^(0+128)+26)
  9310  0FD0                     i1l596:
  9311  0FD0  0008               	return
  9312  0FD1                     __end_of_I2C1_MasterFsm:
  9313                           
  9314                           	psect	text45
  9315  0C68                     __ptext45:	
  9316 ;; *************** function i1_I2C1_MasterClearIrq *****************
  9317 ;; Defined at:
  9318 ;;		line 642 in file "mcc_generated_files/i2c1_master.c"
  9319 ;; Parameters:    Size  Location     Type
  9320 ;;		None
  9321 ;; Auto vars:     Size  Location     Type
  9322 ;;		None
  9323 ;; Return value:  Size  Location     Type
  9324 ;;                  1    wreg      void 
  9325 ;; Registers used:
  9326 ;;		None
  9327 ;; Tracked objects:
  9328 ;;		On entry : 0/0
  9329 ;;		On exit  : 0/0
  9330 ;;		Unchanged: 0/0
  9331 ;; Data sizes:     COMMON   BANK0   BANK1   BANK2   BANK3   BANK4   BANK5   BANK6   BANK7   BANK8   BANK9  BANK10  BANK1
      +1  BANK12
  9332 ;;      Params:         0       0       0       0       0       0       0       0       0       0       0       0       
      +0       0
  9333 ;;      Locals:         0       0       0       0       0       0       0       0       0       0       0       0       
      +0       0
  9334 ;;      Temps:          0       0       0       0       0       0       0       0       0       0       0       0       
      +0       0
  9335 ;;      Totals:         0       0       0       0       0       0       0       0       0       0       0       0       
      +0       0
  9336 ;;Total ram usage:        0 bytes
  9337 ;; Hardware stack levels used: 1
  9338 ;; This function calls:
  9339 ;;		Nothing
  9340 ;; This function is called by:
  9341 ;;		_I2C1_MasterFsm
  9342 ;; This function uses a non-reentrant model
  9343 ;;
  9344                           
  9345  0C68                     i1_I2C1_MasterClearIrq:	
  9346                           ;psect for function i1_I2C1_MasterClearIrq
  9347                           
  9348  0C68                     i1l3386:	
  9349                           ;incstack = 0
  9350                           ; Regs used in i1_I2C1_MasterClearIrq: []
  9351                           
  9352                           
  9353                           ;mcc_generated_files/i2c1_master.c: 644:     PIR1bits.SSP1IF = 0;
  9354  0C68  0020               	movlb	0	; select bank0
  9355  0C69  1191               	bcf	17,3	;volatile
  9356  0C6A                     i1l759:
  9357  0C6A  0008               	return
  9358  0C6B                     __end_ofi1_I2C1_MasterClearIrq:
  9359                           
  9360                           	psect	text46
  9361  0F77                     __ptext46:	
  9362 ;; *************** function _I2C1_DO_ADDRESS_NACK *****************
  9363 ;; Defined at:
  9364 ;;		line 501 in file "mcc_generated_files/i2c1_master.c"
  9365 ;; Parameters:    Size  Location     Type
  9366 ;;		None
  9367 ;; Auto vars:     Size  Location     Type
  9368 ;;		None
  9369 ;; Return value:  Size  Location     Type
  9370 ;;                  1    wreg      enum E7050
  9371 ;; Registers used:
  9372 ;;		wreg, fsr0l, fsr0h, fsr1l, fsr1h, status,2, status,0, pclath, cstack
  9373 ;; Tracked objects:
  9374 ;;		On entry : 0/0
  9375 ;;		On exit  : 0/0
  9376 ;;		Unchanged: 0/0
  9377 ;; Data sizes:     COMMON   BANK0   BANK1   BANK2   BANK3   BANK4   BANK5   BANK6   BANK7   BANK8   BANK9  BANK10  BANK1
      +1  BANK12
  9378 ;;      Params:         0       0       0       0       0       0       0       0       0       0       0       0       
      +0       0
  9379 ;;      Locals:         0       0       0       0       0       0       0       0       0       0       0       0       
      +0       0
  9380 ;;      Temps:          3       0       0       0       0       0       0       0       0       0       0       0       
      +0       0
  9381 ;;      Totals:         3       0       0       0       0       0       0       0       0       0       0       0       
      +0       0
  9382 ;;Total ram usage:        3 bytes
  9383 ;; Hardware stack levels used: 1
  9384 ;; Hardware stack levels required when called: 3
  9385 ;; This function calls:
  9386 ;;		Absolute function
  9387 ;;		_I2C1_CallbackReturnReset
  9388 ;;		_I2C1_CallbackReturnStop
  9389 ;;		_I2C1_DO_SEND_RESTART
  9390 ;;		_I2C1_DO_SEND_STOP
  9391 ;;		_rd1RegCompleteHandler
  9392 ;;		_rd1RegCompleteHandler@i2c1_master_example$F146
  9393 ;;		_rd2RegCompleteHandler
  9394 ;;		_rd2RegCompleteHandler@i2c1_master_example$F157
  9395 ;;		_rdBlkRegCompleteHandler
  9396 ;;		_rdBlkRegCompleteHandler@i2c1_master_example$F180
  9397 ;;		_wr1RegCompleteHandler
  9398 ;;		_wr1RegCompleteHandler@i2c1_master_example$F163
  9399 ;;		_wr2RegCompleteHandler
  9400 ;;		_wr2RegCompleteHandler@i2c1_master_example$F169
  9401 ;; This function is called by:
  9402 ;;		_I2C1_MasterFsm
  9403 ;; This function uses a non-reentrant model
  9404 ;;
  9405                           
  9406  0F77                     _I2C1_DO_ADDRESS_NACK:	
  9407                           ;psect for function _I2C1_DO_ADDRESS_NACK
  9408                           
  9409  0F77                     i1l3352:	
  9410                           ;incstack = 0
  9411 ;; hardware stack exceeded
  9412                           ; Regs used in _I2C1_DO_ADDRESS_NACK: [wreg-fsr1h+status,2+status,0+pclath+cstack]
  9413                           
  9414                           
  9415                           ;mcc_generated_files/i2c1_master.c: 503:     I2C1_Status.addressNackCheck = 0;
  9416  0F77  0021               	movlb	1	; select bank1
  9417  0F78  103C               	bcf	(_I2C1_Status^(0+128)+28),0
  9418  0F79                     i1l3354:
  9419                           
  9420                           ;mcc_generated_files/i2c1_master.c: 504:     I2C1_Status.error = I2C1_FAIL;
  9421  0F79  3002               	movlw	2
  9422  0F7A  00FA               	movwf	??_I2C1_DO_ADDRESS_NACK
  9423  0F7B  087A               	movf	??_I2C1_DO_ADDRESS_NACK,w
  9424  0F7C  00BB               	movwf	(_I2C1_Status^(0+128)+27)
  9425                           
  9426                           ;mcc_generated_files/i2c1_master.c: 505:     switch(I2C1_Status.callbackTable[I2C1_ADDR_
      +                          NACK](I2C1_Status.callbackPayload[I2C1_ADDR_NACK]))
  9427  0F7D  2F86               	goto	i1l3366
  9428  0F7E                     i1l3356:
  9429                           
  9430                           ;mcc_generated_files/i2c1_master.c: 509:             return I2C1_DO_SEND_RESTART();
  9431  0F7E  318C  249E  318F   	fcall	_I2C1_DO_SEND_RESTART
  9432  0F81  2FA2               	goto	i1l687
  9433  0F82                     i1l3360:
  9434                           
  9435                           ;mcc_generated_files/i2c1_master.c: 511:             return I2C1_DO_SEND_STOP();
  9436  0F82  318C  24A3  318F   	fcall	_I2C1_DO_SEND_STOP
  9437  0F85  2FA2               	goto	i1l687
  9438  0F86                     i1l3366:
  9439  0F86  082E               	movf	(low ((_I2C1_Status| 0+14)))^(0+128),w
  9440  0F87  00FA               	movwf	??_I2C1_DO_ADDRESS_NACK
  9441  0F88  087A               	movf	??_I2C1_DO_ADDRESS_NACK,w
  9442  0F89  00F9               	movwf	I2C1_CallbackReturnReset@funPtr
  9443  0F8A  3004               	movlw	4
  9444  0F8B  3EA0               	addlw	(low (_I2C1_Status| 0))& (0+255)
  9445  0F8C  0086               	movwf	6
  9446  0F8D  0187               	clrf	7
  9447  0F8E  3F41               	moviw [1]fsr1
  9448  0F8F  008A               	movwf	10
  9449  0F90  3F40               	moviw [0]fsr1
  9450  0F91  000A               	callw
  9451  0F92  318F               	pagesel	$
  9452  0F93  00FB               	movwf	??_I2C1_DO_ADDRESS_NACK+1
  9453  0F94  01FC               	clrf	??_I2C1_DO_ADDRESS_NACK+2
  9454                           
  9455                           ; Switch on 2 bytes has been partitioned into a top level switch of size 1, and 1 sub-sw
      +                          itches
  9456                           ; Switch size 1, requested type "simple"
  9457                           ; Number of cases is 1, Range of values is 0 to 0
  9458                           ; switch strategies available:
  9459                           ; Name         Instructions Cycles
  9460                           ; simple_byte            4     3 (average)
  9461                           ; direct_byte            8     6 (fixed)
  9462                           ; jumptable            260     6 (fixed)
  9463                           ;	Chosen strategy is simple_byte
  9464  0F95  087C               	movf	??_I2C1_DO_ADDRESS_NACK+2,w
  9465  0F96  3A00               	xorlw	0	; case 0
  9466  0F97  1903               	skipnz
  9467  0F98  2F9A               	goto	i1l4270
  9468  0F99  2F82               	goto	i1l3360
  9469  0F9A                     i1l4270:
  9470                           
  9471                           ; Switch size 1, requested type "simple"
  9472                           ; Number of cases is 2, Range of values is 2 to 3
  9473                           ; switch strategies available:
  9474                           ; Name         Instructions Cycles
  9475                           ; simple_byte            7     4 (average)
  9476                           ; direct_byte           13     9 (fixed)
  9477                           ; jumptable            263     9 (fixed)
  9478                           ;	Chosen strategy is simple_byte
  9479  0F9A  087B               	movf	??_I2C1_DO_ADDRESS_NACK+1,w
  9480  0F9B  3A02               	xorlw	2	; case 2
  9481  0F9C  1903               	skipnz
  9482  0F9D  2F7E               	goto	i1l3356
  9483  0F9E  3A01               	xorlw	1	; case 3
  9484  0F9F  1903               	skipnz
  9485  0FA0  2F7E               	goto	i1l3356
  9486  0FA1  2F82               	goto	i1l3360
  9487  0FA2                     i1l687:
  9488  0FA2  0008               	return
  9489  0FA3                     __end_of_I2C1_DO_ADDRESS_NACK:
  9490                           
  9491                           	psect	text47
  9492  0CB7                     __ptext47:	
  9493 ;; *************** function _I2C1_DO_RESET *****************
  9494 ;; Defined at:
  9495 ;;		line 495 in file "mcc_generated_files/i2c1_master.c"
  9496 ;; Parameters:    Size  Location     Type
  9497 ;;		None
  9498 ;; Auto vars:     Size  Location     Type
  9499 ;;		None
  9500 ;; Return value:  Size  Location     Type
  9501 ;;                  1    wreg      enum E7050
  9502 ;; Registers used:
  9503 ;;		wreg, status,2
  9504 ;; Tracked objects:
  9505 ;;		On entry : 0/0
  9506 ;;		On exit  : 0/0
  9507 ;;		Unchanged: 0/0
  9508 ;; Data sizes:     COMMON   BANK0   BANK1   BANK2   BANK3   BANK4   BANK5   BANK6   BANK7   BANK8   BANK9  BANK10  BANK1
      +1  BANK12
  9509 ;;      Params:         0       0       0       0       0       0       0       0       0       0       0       0       
      +0       0
  9510 ;;      Locals:         0       0       0       0       0       0       0       0       0       0       0       0       
      +0       0
  9511 ;;      Temps:          0       0       0       0       0       0       0       0       0       0       0       0       
      +0       0
  9512 ;;      Totals:         0       0       0       0       0       0       0       0       0       0       0       0       
      +0       0
  9513 ;;Total ram usage:        0 bytes
  9514 ;; Hardware stack levels used: 1
  9515 ;; This function calls:
  9516 ;;		Nothing
  9517 ;; This function is called by:
  9518 ;;		_I2C1_MasterFsm
  9519 ;; This function uses a non-reentrant model
  9520 ;;
  9521                           
  9522  0CB7                     _I2C1_DO_RESET:	
  9523                           ;psect for function _I2C1_DO_RESET
  9524                           
  9525  0CB7                     i1l3344:	
  9526                           ;incstack = 0
  9527                           ; Regs used in _I2C1_DO_RESET: [wreg+status,2]
  9528                           
  9529                           
  9530                           ;mcc_generated_files/i2c1_master.c: 497:     I2C1_Status.busy = 0;
  9531  0CB7  0021               	movlb	1	; select bank1
  9532  0CB8  10BC               	bcf	(_I2C1_Status^(0+128)+28),1
  9533  0CB9                     i1l3346:
  9534                           
  9535                           ;mcc_generated_files/i2c1_master.c: 498:     I2C1_Status.error = I2C1_NOERR;
  9536  0CB9  01BB               	clrf	(_I2C1_Status^(0+128)+27)
  9537  0CBA                     i1l3348:
  9538                           
  9539                           ;mcc_generated_files/i2c1_master.c: 499:     return I2C1_RESET;
  9540  0CBA  300E               	movlw	14
  9541  0CBB                     i1l681:
  9542  0CBB  0008               	return
  9543  0CBC                     __end_of_I2C1_DO_RESET:
  9544                           
  9545                           	psect	text48
  9546  0CB2                     __ptext48:	
  9547 ;; *************** function _I2C1_DO_RX_NACK_RESTART *****************
  9548 ;; Defined at:
  9549 ;;		line 489 in file "mcc_generated_files/i2c1_master.c"
  9550 ;; Parameters:    Size  Location     Type
  9551 ;;		None
  9552 ;; Auto vars:     Size  Location     Type
  9553 ;;		None
  9554 ;; Return value:  Size  Location     Type
  9555 ;;                  1    wreg      enum E7050
  9556 ;; Registers used:
  9557 ;;		wreg, status,2, status,0, pclath, cstack
  9558 ;; Tracked objects:
  9559 ;;		On entry : 0/0
  9560 ;;		On exit  : 0/0
  9561 ;;		Unchanged: 0/0
  9562 ;; Data sizes:     COMMON   BANK0   BANK1   BANK2   BANK3   BANK4   BANK5   BANK6   BANK7   BANK8   BANK9  BANK10  BANK1
      +1  BANK12
  9563 ;;      Params:         0       0       0       0       0       0       0       0       0       0       0       0       
      +0       0
  9564 ;;      Locals:         0       0       0       0       0       0       0       0       0       0       0       0       
      +0       0
  9565 ;;      Temps:          0       0       0       0       0       0       0       0       0       0       0       0       
      +0       0
  9566 ;;      Totals:         0       0       0       0       0       0       0       0       0       0       0       0       
      +0       0
  9567 ;;Total ram usage:        0 bytes
  9568 ;; Hardware stack levels used: 1
  9569 ;; Hardware stack levels required when called: 1
  9570 ;; This function calls:
  9571 ;;		_I2C1_MasterSendNack
  9572 ;; This function is called by:
  9573 ;;		_I2C1_DO_RX
  9574 ;;		_I2C1_MasterFsm
  9575 ;; This function uses a non-reentrant model
  9576 ;;
  9577                           
  9578  0CB2                     _I2C1_DO_RX_NACK_RESTART:	
  9579                           ;psect for function _I2C1_DO_RX_NACK_RESTART
  9580                           
  9581  0CB2                     i1l3066:	
  9582                           ;incstack = 0
  9583                           ; Regs used in _I2C1_DO_RX_NACK_RESTART: [wreg+status,2+status,0+pclath+cstack]
  9584                           
  9585                           
  9586                           ;mcc_generated_files/i2c1_master.c: 491:     I2C1_MasterSendNack();
  9587  0CB2  318C  247A  318C   	fcall	_I2C1_MasterSendNack
  9588  0CB5                     i1l3068:
  9589                           
  9590                           ;mcc_generated_files/i2c1_master.c: 492:     return I2C1_SEND_RESTART;
  9591  0CB5  3009               	movlw	9
  9592  0CB6                     i1l678:
  9593  0CB6  0008               	return
  9594  0CB7                     __end_of_I2C1_DO_RX_NACK_RESTART:
  9595                           
  9596                           	psect	text49
  9597  0CAD                     __ptext49:	
  9598 ;; *************** function _I2C1_DO_RX_NACK_STOP *****************
  9599 ;; Defined at:
  9600 ;;		line 483 in file "mcc_generated_files/i2c1_master.c"
  9601 ;; Parameters:    Size  Location     Type
  9602 ;;		None
  9603 ;; Auto vars:     Size  Location     Type
  9604 ;;		None
  9605 ;; Return value:  Size  Location     Type
  9606 ;;                  1    wreg      enum E7050
  9607 ;; Registers used:
  9608 ;;		wreg, status,2, status,0, pclath, cstack
  9609 ;; Tracked objects:
  9610 ;;		On entry : 0/0
  9611 ;;		On exit  : 0/0
  9612 ;;		Unchanged: 0/0
  9613 ;; Data sizes:     COMMON   BANK0   BANK1   BANK2   BANK3   BANK4   BANK5   BANK6   BANK7   BANK8   BANK9  BANK10  BANK1
      +1  BANK12
  9614 ;;      Params:         0       0       0       0       0       0       0       0       0       0       0       0       
      +0       0
  9615 ;;      Locals:         0       0       0       0       0       0       0       0       0       0       0       0       
      +0       0
  9616 ;;      Temps:          0       0       0       0       0       0       0       0       0       0       0       0       
      +0       0
  9617 ;;      Totals:         0       0       0       0       0       0       0       0       0       0       0       0       
      +0       0
  9618 ;;Total ram usage:        0 bytes
  9619 ;; Hardware stack levels used: 1
  9620 ;; Hardware stack levels required when called: 1
  9621 ;; This function calls:
  9622 ;;		_I2C1_MasterSendNack
  9623 ;; This function is called by:
  9624 ;;		_I2C1_DO_RX
  9625 ;;		_I2C1_MasterFsm
  9626 ;; This function uses a non-reentrant model
  9627 ;;
  9628                           
  9629  0CAD                     _I2C1_DO_RX_NACK_STOP:	
  9630                           ;psect for function _I2C1_DO_RX_NACK_STOP
  9631                           
  9632  0CAD                     i1l3072:	
  9633                           ;incstack = 0
  9634                           ; Regs used in _I2C1_DO_RX_NACK_STOP: [wreg+status,2+status,0+pclath+cstack]
  9635                           
  9636                           
  9637                           ;mcc_generated_files/i2c1_master.c: 485:     I2C1_MasterSendNack();
  9638  0CAD  318C  247A  318C   	fcall	_I2C1_MasterSendNack
  9639  0CB0                     i1l3074:
  9640                           
  9641                           ;mcc_generated_files/i2c1_master.c: 486:     return I2C1_SEND_STOP;
  9642  0CB0  300A               	movlw	10
  9643  0CB1                     i1l675:
  9644  0CB1  0008               	return
  9645  0CB2                     __end_of_I2C1_DO_RX_NACK_STOP:
  9646                           
  9647                           	psect	text50
  9648  0CA8                     __ptext50:	
  9649 ;; *************** function _I2C1_DO_RX_ACK *****************
  9650 ;; Defined at:
  9651 ;;		line 476 in file "mcc_generated_files/i2c1_master.c"
  9652 ;; Parameters:    Size  Location     Type
  9653 ;;		None
  9654 ;; Auto vars:     Size  Location     Type
  9655 ;;		None
  9656 ;; Return value:  Size  Location     Type
  9657 ;;                  1    wreg      enum E7050
  9658 ;; Registers used:
  9659 ;;		wreg, status,2, status,0, pclath, cstack
  9660 ;; Tracked objects:
  9661 ;;		On entry : 0/0
  9662 ;;		On exit  : 0/0
  9663 ;;		Unchanged: 0/0
  9664 ;; Data sizes:     COMMON   BANK0   BANK1   BANK2   BANK3   BANK4   BANK5   BANK6   BANK7   BANK8   BANK9  BANK10  BANK1
      +1  BANK12
  9665 ;;      Params:         0       0       0       0       0       0       0       0       0       0       0       0       
      +0       0
  9666 ;;      Locals:         0       0       0       0       0       0       0       0       0       0       0       0       
      +0       0
  9667 ;;      Temps:          0       0       0       0       0       0       0       0       0       0       0       0       
      +0       0
  9668 ;;      Totals:         0       0       0       0       0       0       0       0       0       0       0       0       
      +0       0
  9669 ;;Total ram usage:        0 bytes
  9670 ;; Hardware stack levels used: 1
  9671 ;; Hardware stack levels required when called: 1
  9672 ;; This function calls:
  9673 ;;		_I2C1_MasterSendAck
  9674 ;; This function is called by:
  9675 ;;		_I2C1_MasterFsm
  9676 ;; This function uses a non-reentrant model
  9677 ;;
  9678                           
  9679  0CA8                     _I2C1_DO_RX_ACK:	
  9680                           ;psect for function _I2C1_DO_RX_ACK
  9681                           
  9682  0CA8                     i1l3338:	
  9683                           ;incstack = 0
  9684                           ; Regs used in _I2C1_DO_RX_ACK: [wreg+status,2+status,0+pclath+cstack]
  9685                           
  9686                           
  9687                           ;mcc_generated_files/i2c1_master.c: 478:     I2C1_MasterSendAck();
  9688  0CA8  318C  247E  318C   	fcall	_I2C1_MasterSendAck
  9689  0CAB                     i1l3340:
  9690                           
  9691                           ;mcc_generated_files/i2c1_master.c: 479:     return I2C1_RCEN;
  9692  0CAB  3005               	movlw	5
  9693  0CAC                     i1l672:
  9694  0CAC  0008               	return
  9695  0CAD                     __end_of_I2C1_DO_RX_ACK:
  9696                           
  9697                           	psect	text51
  9698  0CA3                     __ptext51:	
  9699 ;; *************** function _I2C1_DO_SEND_STOP *****************
  9700 ;; Defined at:
  9701 ;;		line 470 in file "mcc_generated_files/i2c1_master.c"
  9702 ;; Parameters:    Size  Location     Type
  9703 ;;		None
  9704 ;; Auto vars:     Size  Location     Type
  9705 ;;		None
  9706 ;; Return value:  Size  Location     Type
  9707 ;;                  1    wreg      enum E7050
  9708 ;; Registers used:
  9709 ;;		wreg, status,2, status,0, pclath, cstack
  9710 ;; Tracked objects:
  9711 ;;		On entry : 0/0
  9712 ;;		On exit  : 0/0
  9713 ;;		Unchanged: 0/0
  9714 ;; Data sizes:     COMMON   BANK0   BANK1   BANK2   BANK3   BANK4   BANK5   BANK6   BANK7   BANK8   BANK9  BANK10  BANK1
      +1  BANK12
  9715 ;;      Params:         0       0       0       0       0       0       0       0       0       0       0       0       
      +0       0
  9716 ;;      Locals:         0       0       0       0       0       0       0       0       0       0       0       0       
      +0       0
  9717 ;;      Temps:          0       0       0       0       0       0       0       0       0       0       0       0       
      +0       0
  9718 ;;      Totals:         0       0       0       0       0       0       0       0       0       0       0       0       
      +0       0
  9719 ;;Total ram usage:        0 bytes
  9720 ;; Hardware stack levels used: 1
  9721 ;; Hardware stack levels required when called: 1
  9722 ;; This function calls:
  9723 ;;		_I2C1_MasterStop
  9724 ;; This function is called by:
  9725 ;;		_I2C1_DO_TX
  9726 ;;		_I2C1_DO_TX_EMPTY
  9727 ;;		_I2C1_DO_ADDRESS_NACK
  9728 ;;		_I2C1_MasterFsm
  9729 ;; This function uses a non-reentrant model
  9730 ;;
  9731                           
  9732  0CA3                     _I2C1_DO_SEND_STOP:	
  9733                           ;psect for function _I2C1_DO_SEND_STOP
  9734                           
  9735  0CA3                     i1l3054:	
  9736                           ;incstack = 0
  9737                           ; Regs used in _I2C1_DO_SEND_STOP: [wreg+status,2+status,0+pclath+cstack]
  9738                           
  9739                           
  9740                           ;mcc_generated_files/i2c1_master.c: 472:     I2C1_MasterStop();
  9741  0CA3  318C  245C  318C   	fcall	_I2C1_MasterStop
  9742  0CA6                     i1l3056:
  9743                           
  9744                           ;mcc_generated_files/i2c1_master.c: 473:     return I2C1_IDLE;
  9745  0CA6  3000               	movlw	0
  9746  0CA7                     i1l669:
  9747  0CA7  0008               	return
  9748  0CA8                     __end_of_I2C1_DO_SEND_STOP:
  9749                           
  9750                           	psect	text52
  9751  0C9E                     __ptext52:	
  9752 ;; *************** function _I2C1_DO_SEND_RESTART *****************
  9753 ;; Defined at:
  9754 ;;		line 464 in file "mcc_generated_files/i2c1_master.c"
  9755 ;; Parameters:    Size  Location     Type
  9756 ;;		None
  9757 ;; Auto vars:     Size  Location     Type
  9758 ;;		None
  9759 ;; Return value:  Size  Location     Type
  9760 ;;                  1    wreg      enum E7050
  9761 ;; Registers used:
  9762 ;;		wreg, status,2, status,0, pclath, cstack
  9763 ;; Tracked objects:
  9764 ;;		On entry : 0/0
  9765 ;;		On exit  : 0/0
  9766 ;;		Unchanged: 0/0
  9767 ;; Data sizes:     COMMON   BANK0   BANK1   BANK2   BANK3   BANK4   BANK5   BANK6   BANK7   BANK8   BANK9  BANK10  BANK1
      +1  BANK12
  9768 ;;      Params:         0       0       0       0       0       0       0       0       0       0       0       0       
      +0       0
  9769 ;;      Locals:         0       0       0       0       0       0       0       0       0       0       0       0       
      +0       0
  9770 ;;      Temps:          0       0       0       0       0       0       0       0       0       0       0       0       
      +0       0
  9771 ;;      Totals:         0       0       0       0       0       0       0       0       0       0       0       0       
      +0       0
  9772 ;;Total ram usage:        0 bytes
  9773 ;; Hardware stack levels used: 1
  9774 ;; Hardware stack levels required when called: 1
  9775 ;; This function calls:
  9776 ;;		_I2C1_MasterEnableRestart
  9777 ;; This function is called by:
  9778 ;;		_I2C1_DO_TX_EMPTY
  9779 ;;		_I2C1_DO_ADDRESS_NACK
  9780 ;;		_I2C1_MasterFsm
  9781 ;; This function uses a non-reentrant model
  9782 ;;
  9783                           
  9784  0C9E                     _I2C1_DO_SEND_RESTART:	
  9785                           ;psect for function _I2C1_DO_SEND_RESTART
  9786                           
  9787  0C9E                     i1l3080:	
  9788                           ;incstack = 0
  9789                           ; Regs used in _I2C1_DO_SEND_RESTART: [wreg+status,2+status,0+pclath+cstack]
  9790                           
  9791                           
  9792                           ;mcc_generated_files/i2c1_master.c: 466:     I2C1_MasterEnableRestart();
  9793  0C9E  318C  2459  318C   	fcall	_I2C1_MasterEnableRestart
  9794  0CA1                     i1l3082:
  9795                           
  9796                           ;mcc_generated_files/i2c1_master.c: 467:     return I2C1_SEND_ADR_READ;
  9797  0CA1  3001               	movlw	1
  9798  0CA2                     i1l666:
  9799  0CA2  0008               	return
  9800  0CA3                     __end_of_I2C1_DO_SEND_RESTART:
  9801                           
  9802                           	psect	text53
  9803  0C99                     __ptext53:	
  9804 ;; *************** function _I2C1_DO_SEND_RESTART_WRITE *****************
  9805 ;; Defined at:
  9806 ;;		line 457 in file "mcc_generated_files/i2c1_master.c"
  9807 ;; Parameters:    Size  Location     Type
  9808 ;;		None
  9809 ;; Auto vars:     Size  Location     Type
  9810 ;;		None
  9811 ;; Return value:  Size  Location     Type
  9812 ;;                  1    wreg      enum E7050
  9813 ;; Registers used:
  9814 ;;		wreg, status,2, status,0, pclath, cstack
  9815 ;; Tracked objects:
  9816 ;;		On entry : 0/0
  9817 ;;		On exit  : 0/0
  9818 ;;		Unchanged: 0/0
  9819 ;; Data sizes:     COMMON   BANK0   BANK1   BANK2   BANK3   BANK4   BANK5   BANK6   BANK7   BANK8   BANK9  BANK10  BANK1
      +1  BANK12
  9820 ;;      Params:         0       0       0       0       0       0       0       0       0       0       0       0       
      +0       0
  9821 ;;      Locals:         0       0       0       0       0       0       0       0       0       0       0       0       
      +0       0
  9822 ;;      Temps:          0       0       0       0       0       0       0       0       0       0       0       0       
      +0       0
  9823 ;;      Totals:         0       0       0       0       0       0       0       0       0       0       0       0       
      +0       0
  9824 ;;Total ram usage:        0 bytes
  9825 ;; Hardware stack levels used: 1
  9826 ;; Hardware stack levels required when called: 1
  9827 ;; This function calls:
  9828 ;;		_I2C1_MasterEnableRestart
  9829 ;; This function is called by:
  9830 ;;		_I2C1_DO_TX
  9831 ;;		_I2C1_MasterFsm
  9832 ;; This function uses a non-reentrant model
  9833 ;;
  9834                           
  9835  0C99                     _I2C1_DO_SEND_RESTART_WRITE:	
  9836                           ;psect for function _I2C1_DO_SEND_RESTART_WRITE
  9837                           
  9838  0C99                     i1l3048:	
  9839                           ;incstack = 0
  9840                           ; Regs used in _I2C1_DO_SEND_RESTART_WRITE: [wreg+status,2+status,0+pclath+cstack]
  9841                           
  9842                           
  9843                           ;mcc_generated_files/i2c1_master.c: 459:     I2C1_MasterEnableRestart();
  9844  0C99  318C  2459  318C   	fcall	_I2C1_MasterEnableRestart
  9845  0C9C                     i1l3050:
  9846                           
  9847                           ;mcc_generated_files/i2c1_master.c: 460:     return I2C1_SEND_ADR_WRITE;
  9848  0C9C  3002               	movlw	2
  9849  0C9D                     i1l663:
  9850  0C9D  0008               	return
  9851  0C9E                     __end_of_I2C1_DO_SEND_RESTART_WRITE:
  9852                           
  9853                           	psect	text54
  9854  0C94                     __ptext54:	
  9855 ;; *************** function _I2C1_DO_SEND_RESTART_READ *****************
  9856 ;; Defined at:
  9857 ;;		line 451 in file "mcc_generated_files/i2c1_master.c"
  9858 ;; Parameters:    Size  Location     Type
  9859 ;;		None
  9860 ;; Auto vars:     Size  Location     Type
  9861 ;;		None
  9862 ;; Return value:  Size  Location     Type
  9863 ;;                  1    wreg      enum E7050
  9864 ;; Registers used:
  9865 ;;		wreg, status,2, status,0, pclath, cstack
  9866 ;; Tracked objects:
  9867 ;;		On entry : 0/0
  9868 ;;		On exit  : 0/0
  9869 ;;		Unchanged: 0/0
  9870 ;; Data sizes:     COMMON   BANK0   BANK1   BANK2   BANK3   BANK4   BANK5   BANK6   BANK7   BANK8   BANK9  BANK10  BANK1
      +1  BANK12
  9871 ;;      Params:         0       0       0       0       0       0       0       0       0       0       0       0       
      +0       0
  9872 ;;      Locals:         0       0       0       0       0       0       0       0       0       0       0       0       
      +0       0
  9873 ;;      Temps:          0       0       0       0       0       0       0       0       0       0       0       0       
      +0       0
  9874 ;;      Totals:         0       0       0       0       0       0       0       0       0       0       0       0       
      +0       0
  9875 ;;Total ram usage:        0 bytes
  9876 ;; Hardware stack levels used: 1
  9877 ;; Hardware stack levels required when called: 1
  9878 ;; This function calls:
  9879 ;;		_I2C1_MasterEnableRestart
  9880 ;; This function is called by:
  9881 ;;		_I2C1_DO_TX
  9882 ;;		_I2C1_MasterFsm
  9883 ;; This function uses a non-reentrant model
  9884 ;;
  9885                           
  9886  0C94                     _I2C1_DO_SEND_RESTART_READ:	
  9887                           ;psect for function _I2C1_DO_SEND_RESTART_READ
  9888                           
  9889  0C94                     i1l3042:	
  9890                           ;incstack = 0
  9891                           ; Regs used in _I2C1_DO_SEND_RESTART_READ: [wreg+status,2+status,0+pclath+cstack]
  9892                           
  9893                           
  9894                           ;mcc_generated_files/i2c1_master.c: 453:     I2C1_MasterEnableRestart();
  9895  0C94  318C  2459  318C   	fcall	_I2C1_MasterEnableRestart
  9896  0C97                     i1l3044:
  9897                           
  9898                           ;mcc_generated_files/i2c1_master.c: 454:     return I2C1_SEND_ADR_READ;
  9899  0C97  3001               	movlw	1
  9900  0C98                     i1l660:
  9901  0C98  0008               	return
  9902  0C99                     __end_of_I2C1_DO_SEND_RESTART_READ:
  9903                           
  9904                           	psect	text55
  9905  0CCD                     __ptext55:	
  9906 ;; *************** function _I2C1_DO_RCEN *****************
  9907 ;; Defined at:
  9908 ;;		line 404 in file "mcc_generated_files/i2c1_master.c"
  9909 ;; Parameters:    Size  Location     Type
  9910 ;;		None
  9911 ;; Auto vars:     Size  Location     Type
  9912 ;;		None
  9913 ;; Return value:  Size  Location     Type
  9914 ;;                  1    wreg      enum E7050
  9915 ;; Registers used:
  9916 ;;		wreg, status,2, status,0, pclath, cstack
  9917 ;; Tracked objects:
  9918 ;;		On entry : 0/0
  9919 ;;		On exit  : 0/0
  9920 ;;		Unchanged: 0/0
  9921 ;; Data sizes:     COMMON   BANK0   BANK1   BANK2   BANK3   BANK4   BANK5   BANK6   BANK7   BANK8   BANK9  BANK10  BANK1
      +1  BANK12
  9922 ;;      Params:         0       0       0       0       0       0       0       0       0       0       0       0       
      +0       0
  9923 ;;      Locals:         0       0       0       0       0       0       0       0       0       0       0       0       
      +0       0
  9924 ;;      Temps:          0       0       0       0       0       0       0       0       0       0       0       0       
      +0       0
  9925 ;;      Totals:         0       0       0       0       0       0       0       0       0       0       0       0       
      +0       0
  9926 ;;Total ram usage:        0 bytes
  9927 ;; Hardware stack levels used: 1
  9928 ;; Hardware stack levels required when called: 1
  9929 ;; This function calls:
  9930 ;;		_I2C1_MasterStartRx
  9931 ;; This function is called by:
  9932 ;;		_I2C1_MasterFsm
  9933 ;; This function uses a non-reentrant model
  9934 ;;
  9935                           
  9936  0CCD                     _I2C1_DO_RCEN:	
  9937                           ;psect for function _I2C1_DO_RCEN
  9938                           
  9939  0CCD                     i1l3304:	
  9940                           ;incstack = 0
  9941                           ; Regs used in _I2C1_DO_RCEN: [wreg+status,2+status,0+pclath+cstack]
  9942                           
  9943                           
  9944                           ;mcc_generated_files/i2c1_master.c: 406:     I2C1_Status.addressNackCheck = 0;
  9945  0CCD  0021               	movlb	1	; select bank1
  9946  0CCE  103C               	bcf	(_I2C1_Status^(0+128)+28),0
  9947  0CCF                     i1l3306:
  9948                           
  9949                           ;mcc_generated_files/i2c1_master.c: 407:     I2C1_MasterStartRx();
  9950  0CCF  318C  245F  318C   	fcall	_I2C1_MasterStartRx
  9951  0CD2                     i1l3308:
  9952                           
  9953                           ;mcc_generated_files/i2c1_master.c: 408:     return I2C1_RX;
  9954  0CD2  3004               	movlw	4
  9955  0CD3                     i1l636:
  9956  0CD3  0008               	return
  9957  0CD4                     __end_of_I2C1_DO_RCEN:
  9958                           
  9959                           	psect	text56
  9960  0691                     __ptext56:	
  9961 ;; *************** function _I2C1_DO_RX *****************
  9962 ;; Defined at:
  9963 ;;		line 380 in file "mcc_generated_files/i2c1_master.c"
  9964 ;; Parameters:    Size  Location     Type
  9965 ;;		None
  9966 ;; Auto vars:     Size  Location     Type
  9967 ;;		None
  9968 ;; Return value:  Size  Location     Type
  9969 ;;                  1    wreg      enum E7050
  9970 ;; Registers used:
  9971 ;;		wreg, fsr0l, fsr0h, fsr1l, fsr1h, status,2, status,0, pclath, cstack
  9972 ;; Tracked objects:
  9973 ;;		On entry : 0/0
  9974 ;;		On exit  : 0/0
  9975 ;;		Unchanged: 0/0
  9976 ;; Data sizes:     COMMON   BANK0   BANK1   BANK2   BANK3   BANK4   BANK5   BANK6   BANK7   BANK8   BANK9  BANK10  BANK1
      +1  BANK12
  9977 ;;      Params:         0       0       0       0       0       0       0       0       0       0       0       0       
      +0       0
  9978 ;;      Locals:         0       0       0       0       0       0       0       0       0       0       0       0       
      +0       0
  9979 ;;      Temps:          3       0       0       0       0       0       0       0       0       0       0       0       
      +0       0
  9980 ;;      Totals:         3       0       0       0       0       0       0       0       0       0       0       0       
      +0       0
  9981 ;;Total ram usage:        3 bytes
  9982 ;; Hardware stack levels used: 1
  9983 ;; Hardware stack levels required when called: 3
  9984 ;; This function calls:
  9985 ;;		Absolute function
  9986 ;;		_I2C1_CallbackReturnReset
  9987 ;;		_I2C1_CallbackReturnStop
  9988 ;;		_I2C1_DO_RX_NACK_RESTART
  9989 ;;		_I2C1_DO_RX_NACK_STOP
  9990 ;;		_I2C1_MasterGetRxData
  9991 ;;		_I2C1_MasterSendAck
  9992 ;;		_rd1RegCompleteHandler
  9993 ;;		_rd1RegCompleteHandler@i2c1_master_example$F146
  9994 ;;		_rd2RegCompleteHandler
  9995 ;;		_rd2RegCompleteHandler@i2c1_master_example$F157
  9996 ;;		_rdBlkRegCompleteHandler
  9997 ;;		_rdBlkRegCompleteHandler@i2c1_master_example$F180
  9998 ;;		_wr1RegCompleteHandler
  9999 ;;		_wr1RegCompleteHandler@i2c1_master_example$F163
 10000 ;;		_wr2RegCompleteHandler
 10001 ;;		_wr2RegCompleteHandler@i2c1_master_example$F169
 10002 ;; This function is called by:
 10003 ;;		_I2C1_MasterFsm
 10004 ;; This function uses a non-reentrant model
 10005 ;;
 10006                           
 10007  0691                     _I2C1_DO_RX:	
 10008                           ;psect for function _I2C1_DO_RX
 10009                           
 10010  0691                     i1l3272:	
 10011                           ;incstack = 0
 10012 ;; hardware stack exceeded
 10013                           ; Regs used in _I2C1_DO_RX: [wreg-fsr1h+status,2+status,0+pclath+cstack]
 10014                           
 10015                           
 10016                           ;mcc_generated_files/i2c1_master.c: 382:     *I2C1_Status.data_ptr++ = I2C1_MasterGetRxD
      +                          ata();
 10017  0691  318C  2462  3186   	fcall	_I2C1_MasterGetRxData
 10018  0694  00FA               	movwf	??_I2C1_DO_RX
 10019  0695  0021               	movlb	1	; select bank1
 10020  0696  0837               	movf	(low ((_I2C1_Status| 0+23)))^(0+128),w
 10021  0697  0086               	movwf	6
 10022  0698  0187               	clrf	7
 10023  0699  087A               	movf	??_I2C1_DO_RX,w
 10024  069A  0081               	movwf	1
 10025  069B                     i1l3274:
 10026  069B  3001               	movlw	1
 10027  069C  00FA               	movwf	??_I2C1_DO_RX
 10028  069D  087A               	movf	??_I2C1_DO_RX,w
 10029  069E  07B7               	addwf	(low ((_I2C1_Status| 0+23)))^(0+128),f
 10030  069F                     i1l3276:
 10031                           
 10032                           ;mcc_generated_files/i2c1_master.c: 383:     if(--I2C1_Status.data_length)
 10033  069F  3001               	movlw	1
 10034  06A0  02B8               	subwf	(_I2C1_Status^(0+128)+24),f
 10035  06A1  3000               	movlw	0
 10036  06A2  3BB9               	subwfb	((_I2C1_Status+1)^(0+128)+24),f
 10037  06A3  0838               	movf	(_I2C1_Status^(0+128)+24),w
 10038  06A4  0439               	iorwf	((_I2C1_Status+1)^(0+128)+24),w
 10039  06A5  1903               	btfsc	3,2
 10040  06A6  2EA8               	goto	u174_21
 10041  06A7  2EA9               	goto	u174_20
 10042  06A8                     u174_21:
 10043  06A8  2EAE               	goto	i1l624
 10044  06A9                     u174_20:
 10045  06A9                     i1l3278:
 10046                           
 10047                           ;mcc_generated_files/i2c1_master.c: 384:     {;mcc_generated_files/i2c1_master.c: 385:  
      +                                 I2C1_MasterSendAck();
 10048  06A9  318C  247E  3186   	fcall	_I2C1_MasterSendAck
 10049  06AC                     i1l3280:
 10050                           
 10051                           ;mcc_generated_files/i2c1_master.c: 386:         return I2C1_RCEN;
 10052  06AC  3005               	movlw	5
 10053  06AD  2ED6               	goto	i1l625
 10054  06AE                     i1l624:	
 10055                           ;mcc_generated_files/i2c1_master.c: 388:     else
 10056                           
 10057                           
 10058                           ;mcc_generated_files/i2c1_master.c: 389:     {;mcc_generated_files/i2c1_master.c: 390:  
      +                                 I2C1_Status.bufferFree = 1;
 10059  06AE  15BC               	bsf	(_I2C1_Status^(0+128)+28),3
 10060                           
 10061                           ;mcc_generated_files/i2c1_master.c: 391:         switch(I2C1_Status.callbackTable[I2C1_D
      +                          ATA_COMPLETE](I2C1_Status.callbackPayload[I2C1_DATA_COMPLETE]))
 10062  06AF  2EB8               	goto	i1l3296
 10063  06B0                     i1l3286:
 10064                           
 10065                           ;mcc_generated_files/i2c1_master.c: 395:                 return I2C1_DO_RX_NACK_RESTART(
      +                          );
 10066  06B0  318C  24B2  3186   	fcall	_I2C1_DO_RX_NACK_RESTART
 10067  06B3  2ED6               	goto	i1l625
 10068  06B4                     i1l3290:
 10069                           
 10070                           ;mcc_generated_files/i2c1_master.c: 399:                 return I2C1_DO_RX_NACK_STOP();
 10071  06B4  318C  24AD  3186   	fcall	_I2C1_DO_RX_NACK_STOP
 10072  06B7  2ED6               	goto	i1l625
 10073  06B8                     i1l3296:
 10074  06B8  082C               	movf	(low ((_I2C1_Status| 0+12)))^(0+128),w
 10075  06B9  00FA               	movwf	??_I2C1_DO_RX
 10076  06BA  087A               	movf	??_I2C1_DO_RX,w
 10077  06BB  00F9               	movwf	I2C1_CallbackReturnReset@funPtr
 10078  06BC  0821               	movf	(_I2C1_Status+1)^(0+128),w
 10079  06BD  008A               	movwf	10
 10080  06BE  0820               	movf	_I2C1_Status^(0+128),w
 10081  06BF  000A               	callw
 10082  06C0  3186               	pagesel	$
 10083  06C1  00FB               	movwf	??_I2C1_DO_RX+1
 10084  06C2  01FC               	clrf	??_I2C1_DO_RX+2
 10085                           
 10086                           ; Switch on 2 bytes has been partitioned into a top level switch of size 1, and 1 sub-sw
      +                          itches
 10087                           ; Switch size 1, requested type "simple"
 10088                           ; Number of cases is 1, Range of values is 0 to 0
 10089                           ; switch strategies available:
 10090                           ; Name         Instructions Cycles
 10091                           ; simple_byte            4     3 (average)
 10092                           ; direct_byte            8     6 (fixed)
 10093                           ; jumptable            260     6 (fixed)
 10094                           ;	Chosen strategy is simple_byte
 10095  06C3  087C               	movf	??_I2C1_DO_RX+2,w
 10096  06C4  3A00               	xorlw	0	; case 0
 10097  06C5  1903               	skipnz
 10098  06C6  2EC8               	goto	i1l4272
 10099  06C7  2EB4               	goto	i1l3290
 10100  06C8                     i1l4272:
 10101                           
 10102                           ; Switch size 1, requested type "simple"
 10103                           ; Number of cases is 4, Range of values is 1 to 4
 10104                           ; switch strategies available:
 10105                           ; Name         Instructions Cycles
 10106                           ; simple_byte           13     7 (average)
 10107                           ; direct_byte           17     9 (fixed)
 10108                           ; jumptable            263     9 (fixed)
 10109                           ;	Chosen strategy is simple_byte
 10110  06C8  087B               	movf	??_I2C1_DO_RX+1,w
 10111  06C9  3A01               	xorlw	1	; case 1
 10112  06CA  1903               	skipnz
 10113  06CB  2EB4               	goto	i1l3290
 10114  06CC  3A03               	xorlw	3	; case 2
 10115  06CD  1903               	skipnz
 10116  06CE  2EB0               	goto	i1l3286
 10117  06CF  3A01               	xorlw	1	; case 3
 10118  06D0  1903               	skipnz
 10119  06D1  2EB0               	goto	i1l3286
 10120  06D2  3A07               	xorlw	7	; case 4
 10121  06D3  1903               	skipnz
 10122  06D4  2EB4               	goto	i1l3290
 10123  06D5  2EB4               	goto	i1l3290
 10124  06D6                     i1l625:
 10125  06D6  0008               	return
 10126  06D7                     __end_of_I2C1_DO_RX:
 10127                           
 10128                           	psect	text57
 10129  059E                     __ptext57:	
 10130 ;; *************** function _I2C1_DO_TX *****************
 10131 ;; Defined at:
 10132 ;;		line 356 in file "mcc_generated_files/i2c1_master.c"
 10133 ;; Parameters:    Size  Location     Type
 10134 ;;		None
 10135 ;; Auto vars:     Size  Location     Type
 10136 ;;		None
 10137 ;; Return value:  Size  Location     Type
 10138 ;;                  1    wreg      enum E7050
 10139 ;; Registers used:
 10140 ;;		wreg, fsr0l, fsr0h, fsr1l, fsr1h, status,2, status,0, pclath, cstack
 10141 ;; Tracked objects:
 10142 ;;		On entry : 0/0
 10143 ;;		On exit  : 0/0
 10144 ;;		Unchanged: 0/0
 10145 ;; Data sizes:     COMMON   BANK0   BANK1   BANK2   BANK3   BANK4   BANK5   BANK6   BANK7   BANK8   BANK9  BANK10  BANK1
      +1  BANK12
 10146 ;;      Params:         0       0       0       0       0       0       0       0       0       0       0       0       
      +0       0
 10147 ;;      Locals:         0       0       0       0       0       0       0       0       0       0       0       0       
      +0       0
 10148 ;;      Temps:          3       0       0       0       0       0       0       0       0       0       0       0       
      +0       0
 10149 ;;      Totals:         3       0       0       0       0       0       0       0       0       0       0       0       
      +0       0
 10150 ;;Total ram usage:        3 bytes
 10151 ;; Hardware stack levels used: 1
 10152 ;; Hardware stack levels required when called: 3
 10153 ;; This function calls:
 10154 ;;		Absolute function
 10155 ;;		_I2C1_CallbackReturnReset
 10156 ;;		_I2C1_CallbackReturnStop
 10157 ;;		_I2C1_DO_SEND_RESTART_READ
 10158 ;;		_I2C1_DO_SEND_RESTART_WRITE
 10159 ;;		_I2C1_DO_SEND_STOP
 10160 ;;		_I2C1_MasterIsNack
 10161 ;;		_I2C1_MasterSendTxData
 10162 ;;		_rd1RegCompleteHandler
 10163 ;;		_rd1RegCompleteHandler@i2c1_master_example$F146
 10164 ;;		_rd2RegCompleteHandler
 10165 ;;		_rd2RegCompleteHandler@i2c1_master_example$F157
 10166 ;;		_rdBlkRegCompleteHandler
 10167 ;;		_rdBlkRegCompleteHandler@i2c1_master_example$F180
 10168 ;;		_wr1RegCompleteHandler
 10169 ;;		_wr1RegCompleteHandler@i2c1_master_example$F163
 10170 ;;		_wr2RegCompleteHandler
 10171 ;;		_wr2RegCompleteHandler@i2c1_master_example$F169
 10172 ;; This function is called by:
 10173 ;;		_I2C1_MasterFsm
 10174 ;; This function uses a non-reentrant model
 10175 ;;
 10176                           
 10177  059E                     _I2C1_DO_TX:	
 10178                           ;psect for function _I2C1_DO_TX
 10179                           
 10180  059E                     i1l3238:	
 10181                           ;incstack = 0
 10182 ;; hardware stack exceeded
 10183                           ; Regs used in _I2C1_DO_TX: [wreg-fsr1h+status,2+status,0+pclath+cstack]
 10184                           
 10185                           
 10186                           ;mcc_generated_files/i2c1_master.c: 358:     if(I2C1_MasterIsNack())
 10187  059E  318C  24C1  3185   	fcall	_I2C1_MasterIsNack
 10188  05A1  3A00               	xorlw	0
 10189  05A2  1903               	skipnz
 10190  05A3  2DA5               	goto	u172_21
 10191  05A4  2DA6               	goto	u172_20
 10192  05A5                     u172_21:
 10193  05A5  2DD6               	goto	i1l608
 10194  05A6                     u172_20:
 10195  05A6  2DB3               	goto	i1l3256
 10196  05A7                     i1l3242:
 10197                           
 10198                           ;mcc_generated_files/i2c1_master.c: 363:                 return I2C1_DO_SEND_RESTART_REA
      +                          D();
 10199  05A7  318C  2494  3185   	fcall	_I2C1_DO_SEND_RESTART_READ
 10200  05AA  2DF2               	goto	i1l611
 10201  05AB                     i1l3246:
 10202                           
 10203                           ;mcc_generated_files/i2c1_master.c: 365:                   return I2C1_DO_SEND_RESTART_W
      +                          RITE();
 10204  05AB  318C  2499  3185   	fcall	_I2C1_DO_SEND_RESTART_WRITE
 10205  05AE  2DF2               	goto	i1l611
 10206  05AF                     i1l3250:
 10207                           
 10208                           ;mcc_generated_files/i2c1_master.c: 369:                 return I2C1_DO_SEND_STOP();
 10209  05AF  318C  24A3  3185   	fcall	_I2C1_DO_SEND_STOP
 10210  05B2  2DF2               	goto	i1l611
 10211  05B3                     i1l3256:
 10212  05B3  0021               	movlb	1	; select bank1
 10213  05B4  082F               	movf	(low ((_I2C1_Status| 0+15)))^(0+128),w
 10214  05B5  00FA               	movwf	??_I2C1_DO_TX
 10215  05B6  087A               	movf	??_I2C1_DO_TX,w
 10216  05B7  00F9               	movwf	I2C1_CallbackReturnReset@funPtr
 10217  05B8  3006               	movlw	6
 10218  05B9  3EA0               	addlw	(low (_I2C1_Status| 0))& (0+255)
 10219  05BA  0086               	movwf	6
 10220  05BB  0187               	clrf	7
 10221  05BC  3F41               	moviw [1]fsr1
 10222  05BD  008A               	movwf	10
 10223  05BE  3F40               	moviw [0]fsr1
 10224  05BF  000A               	callw
 10225  05C0  3185               	pagesel	$
 10226  05C1  00FB               	movwf	??_I2C1_DO_TX+1
 10227  05C2  01FC               	clrf	??_I2C1_DO_TX+2
 10228                           
 10229                           ; Switch on 2 bytes has been partitioned into a top level switch of size 1, and 1 sub-sw
      +                          itches
 10230                           ; Switch size 1, requested type "simple"
 10231                           ; Number of cases is 1, Range of values is 0 to 0
 10232                           ; switch strategies available:
 10233                           ; Name         Instructions Cycles
 10234                           ; simple_byte            4     3 (average)
 10235                           ; direct_byte            8     6 (fixed)
 10236                           ; jumptable            260     6 (fixed)
 10237                           ;	Chosen strategy is simple_byte
 10238  05C3  087C               	movf	??_I2C1_DO_TX+2,w
 10239  05C4  3A00               	xorlw	0	; case 0
 10240  05C5  1903               	skipnz
 10241  05C6  2DC8               	goto	i1l4274
 10242  05C7  2DAF               	goto	i1l3250
 10243  05C8                     i1l4274:
 10244                           
 10245                           ; Switch size 1, requested type "simple"
 10246                           ; Number of cases is 4, Range of values is 1 to 4
 10247                           ; switch strategies available:
 10248                           ; Name         Instructions Cycles
 10249                           ; simple_byte           13     7 (average)
 10250                           ; direct_byte           17     9 (fixed)
 10251                           ; jumptable            263     9 (fixed)
 10252                           ;	Chosen strategy is simple_byte
 10253  05C8  087B               	movf	??_I2C1_DO_TX+1,w
 10254  05C9  3A01               	xorlw	1	; case 1
 10255  05CA  1903               	skipnz
 10256  05CB  2DAF               	goto	i1l3250
 10257  05CC  3A03               	xorlw	3	; case 2
 10258  05CD  1903               	skipnz
 10259  05CE  2DA7               	goto	i1l3242
 10260  05CF  3A01               	xorlw	1	; case 3
 10261  05D0  1903               	skipnz
 10262  05D1  2DAB               	goto	i1l3246
 10263  05D2  3A07               	xorlw	7	; case 4
 10264  05D3  1903               	skipnz
 10265  05D4  2DAF               	goto	i1l3250
 10266  05D5  2DAF               	goto	i1l3250
 10267  05D6                     i1l608:	
 10268                           ;mcc_generated_files/i2c1_master.c: 372:     else
 10269                           
 10270                           
 10271                           ;mcc_generated_files/i2c1_master.c: 373:     {;mcc_generated_files/i2c1_master.c: 374:  
      +                                 I2C1_Status.addressNackCheck = 0;
 10272  05D6  0021               	movlb	1	; select bank1
 10273  05D7  103C               	bcf	(_I2C1_Status^(0+128)+28),0
 10274  05D8                     i1l3258:
 10275                           
 10276                           ;mcc_generated_files/i2c1_master.c: 375:         I2C1_MasterSendTxData(*I2C1_Status.data
      +                          _ptr++);
 10277  05D8  3017               	movlw	23
 10278  05D9  3EA0               	addlw	(low (_I2C1_Status| 0))& (0+255)
 10279  05DA  0086               	movwf	6
 10280  05DB  0187               	clrf	7
 10281  05DC  3F40               	moviw [0]fsr1
 10282  05DD  0084               	movwf	4
 10283  05DE  0185               	clrf	5
 10284  05DF  0A81               	incf	1,f
 10285  05E0  0800               	movf	0,w
 10286  05E1  318C  248A  3185   	fcall	_I2C1_MasterSendTxData
 10287  05E4                     i1l3260:
 10288                           
 10289                           ;mcc_generated_files/i2c1_master.c: 376:         return (--I2C1_Status.data_length)?I2C1
      +                          _TX:I2C1_TX_EMPTY;
 10290  05E4  3001               	movlw	1
 10291  05E5  0021               	movlb	1	; select bank1
 10292  05E6  02B8               	subwf	(_I2C1_Status^(0+128)+24),f
 10293  05E7  3000               	movlw	0
 10294  05E8  3BB9               	subwfb	((_I2C1_Status+1)^(0+128)+24),f
 10295  05E9  0838               	movf	(_I2C1_Status^(0+128)+24),w
 10296  05EA  0439               	iorwf	((_I2C1_Status+1)^(0+128)+24),w
 10297  05EB  1D03               	btfss	3,2
 10298  05EC  2DEE               	goto	u173_21
 10299  05ED  2DEF               	goto	u173_20
 10300  05EE                     u173_21:
 10301  05EE  2DF1               	goto	i1l3264
 10302  05EF                     u173_20:
 10303  05EF                     i1l3262:
 10304  05EF  3006               	movlw	6
 10305  05F0  2DF2               	goto	i1l611
 10306  05F1                     i1l3264:
 10307  05F1  3003               	movlw	3
 10308  05F2                     i1l611:
 10309  05F2  0008               	return
 10310  05F3                     __end_of_I2C1_DO_TX:
 10311                           
 10312                           	psect	text58
 10313  0CDB                     __ptext58:	
 10314 ;; *************** function _I2C1_DO_SEND_ADR_WRITE *****************
 10315 ;; Defined at:
 10316 ;;		line 349 in file "mcc_generated_files/i2c1_master.c"
 10317 ;; Parameters:    Size  Location     Type
 10318 ;;		None
 10319 ;; Auto vars:     Size  Location     Type
 10320 ;;		None
 10321 ;; Return value:  Size  Location     Type
 10322 ;;                  1    wreg      enum E7050
 10323 ;; Registers used:
 10324 ;;		wreg, status,2, status,0, pclath, cstack
 10325 ;; Tracked objects:
 10326 ;;		On entry : 0/0
 10327 ;;		On exit  : 0/0
 10328 ;;		Unchanged: 0/0
 10329 ;; Data sizes:     COMMON   BANK0   BANK1   BANK2   BANK3   BANK4   BANK5   BANK6   BANK7   BANK8   BANK9  BANK10  BANK1
      +1  BANK12
 10330 ;;      Params:         0       0       0       0       0       0       0       0       0       0       0       0       
      +0       0
 10331 ;;      Locals:         0       0       0       0       0       0       0       0       0       0       0       0       
      +0       0
 10332 ;;      Temps:          0       0       0       0       0       0       0       0       0       0       0       0       
      +0       0
 10333 ;;      Totals:         0       0       0       0       0       0       0       0       0       0       0       0       
      +0       0
 10334 ;;Total ram usage:        0 bytes
 10335 ;; Hardware stack levels used: 1
 10336 ;; Hardware stack levels required when called: 1
 10337 ;; This function calls:
 10338 ;;		_I2C1_MasterSendTxData
 10339 ;; This function is called by:
 10340 ;;		_I2C1_MasterFsm
 10341 ;; This function uses a non-reentrant model
 10342 ;;
 10343                           
 10344  0CDB                     _I2C1_DO_SEND_ADR_WRITE:	
 10345                           ;psect for function _I2C1_DO_SEND_ADR_WRITE
 10346                           
 10347  0CDB                     i1l3230:	
 10348                           ;incstack = 0
 10349                           ; Regs used in _I2C1_DO_SEND_ADR_WRITE: [wreg+status,2+status,0+pclath+cstack]
 10350                           
 10351                           
 10352                           ;mcc_generated_files/i2c1_master.c: 351:     I2C1_Status.addressNackCheck = 1;
 10353  0CDB  0021               	movlb	1	; select bank1
 10354  0CDC  143C               	bsf	(_I2C1_Status^(0+128)+28),0
 10355  0CDD                     i1l3232:
 10356                           
 10357                           ;mcc_generated_files/i2c1_master.c: 352:     I2C1_MasterSendTxData((uint8_t) (I2C1_Statu
      +                          s.address << 1));
 10358  0CDD  3536               	lslf	(_I2C1_Status^(0+128)+22),w
 10359  0CDE  318C  248A  318C   	fcall	_I2C1_MasterSendTxData
 10360  0CE1                     i1l3234:
 10361                           
 10362                           ;mcc_generated_files/i2c1_master.c: 353:     return I2C1_TX;
 10363  0CE1  3003               	movlw	3
 10364  0CE2                     i1l605:
 10365  0CE2  0008               	return
 10366  0CE3                     __end_of_I2C1_DO_SEND_ADR_WRITE:
 10367                           
 10368                           	psect	text59
 10369  0CEB                     __ptext59:	
 10370 ;; *************** function _I2C1_DO_SEND_ADR_READ *****************
 10371 ;; Defined at:
 10372 ;;		line 342 in file "mcc_generated_files/i2c1_master.c"
 10373 ;; Parameters:    Size  Location     Type
 10374 ;;		None
 10375 ;; Auto vars:     Size  Location     Type
 10376 ;;		None
 10377 ;; Return value:  Size  Location     Type
 10378 ;;                  1    wreg      enum E7050
 10379 ;; Registers used:
 10380 ;;		wreg, status,2, status,0, pclath, cstack
 10381 ;; Tracked objects:
 10382 ;;		On entry : 0/0
 10383 ;;		On exit  : 0/0
 10384 ;;		Unchanged: 0/0
 10385 ;; Data sizes:     COMMON   BANK0   BANK1   BANK2   BANK3   BANK4   BANK5   BANK6   BANK7   BANK8   BANK9  BANK10  BANK1
      +1  BANK12
 10386 ;;      Params:         0       0       0       0       0       0       0       0       0       0       0       0       
      +0       0
 10387 ;;      Locals:         0       0       0       0       0       0       0       0       0       0       0       0       
      +0       0
 10388 ;;      Temps:          0       0       0       0       0       0       0       0       0       0       0       0       
      +0       0
 10389 ;;      Totals:         0       0       0       0       0       0       0       0       0       0       0       0       
      +0       0
 10390 ;;Total ram usage:        0 bytes
 10391 ;; Hardware stack levels used: 1
 10392 ;; Hardware stack levels required when called: 1
 10393 ;; This function calls:
 10394 ;;		_I2C1_MasterSendTxData
 10395 ;; This function is called by:
 10396 ;;		_I2C1_MasterFsm
 10397 ;; This function uses a non-reentrant model
 10398 ;;
 10399                           
 10400  0CEB                     _I2C1_DO_SEND_ADR_READ:	
 10401                           ;psect for function _I2C1_DO_SEND_ADR_READ
 10402                           
 10403  0CEB                     i1l3222:	
 10404                           ;incstack = 0
 10405                           ; Regs used in _I2C1_DO_SEND_ADR_READ: [wreg+status,2+status,0+pclath+cstack]
 10406                           
 10407                           
 10408                           ;mcc_generated_files/i2c1_master.c: 344:     I2C1_Status.addressNackCheck = 1;
 10409  0CEB  0021               	movlb	1	; select bank1
 10410  0CEC  143C               	bsf	(_I2C1_Status^(0+128)+28),0
 10411  0CED                     i1l3224:
 10412                           
 10413                           ;mcc_generated_files/i2c1_master.c: 345:     I2C1_MasterSendTxData((uint8_t) (I2C1_Statu
      +                          s.address << 1 | 1));
 10414  0CED  1403               	setc
 10415  0CEE  0D36               	rlf	(_I2C1_Status^(0+128)+22),w
 10416  0CEF  318C  248A  318C   	fcall	_I2C1_MasterSendTxData
 10417  0CF2                     i1l3226:
 10418                           
 10419                           ;mcc_generated_files/i2c1_master.c: 346:     return I2C1_RCEN;
 10420  0CF2  3005               	movlw	5
 10421  0CF3                     i1l602:
 10422  0CF3  0008               	return
 10423  0CF4                     __end_of_I2C1_DO_SEND_ADR_READ:
 10424                           
 10425                           	psect	text60
 10426  0C8F                     __ptext60:	
 10427 ;; *************** function _I2C1_DO_IDLE *****************
 10428 ;; Defined at:
 10429 ;;		line 335 in file "mcc_generated_files/i2c1_master.c"
 10430 ;; Parameters:    Size  Location     Type
 10431 ;;		None
 10432 ;; Auto vars:     Size  Location     Type
 10433 ;;		None
 10434 ;; Return value:  Size  Location     Type
 10435 ;;                  1    wreg      enum E7050
 10436 ;; Registers used:
 10437 ;;		wreg, status,2
 10438 ;; Tracked objects:
 10439 ;;		On entry : 0/0
 10440 ;;		On exit  : 0/0
 10441 ;;		Unchanged: 0/0
 10442 ;; Data sizes:     COMMON   BANK0   BANK1   BANK2   BANK3   BANK4   BANK5   BANK6   BANK7   BANK8   BANK9  BANK10  BANK1
      +1  BANK12
 10443 ;;      Params:         0       0       0       0       0       0       0       0       0       0       0       0       
      +0       0
 10444 ;;      Locals:         0       0       0       0       0       0       0       0       0       0       0       0       
      +0       0
 10445 ;;      Temps:          0       0       0       0       0       0       0       0       0       0       0       0       
      +0       0
 10446 ;;      Totals:         0       0       0       0       0       0       0       0       0       0       0       0       
      +0       0
 10447 ;;Total ram usage:        0 bytes
 10448 ;; Hardware stack levels used: 1
 10449 ;; This function calls:
 10450 ;;		Nothing
 10451 ;; This function is called by:
 10452 ;;		_I2C1_MasterFsm
 10453 ;; This function uses a non-reentrant model
 10454 ;;
 10455                           
 10456  0C8F                     _I2C1_DO_IDLE:	
 10457                           ;psect for function _I2C1_DO_IDLE
 10458                           
 10459  0C8F                     i1l3214:	
 10460                           ;incstack = 0
 10461                           ; Regs used in _I2C1_DO_IDLE: [wreg+status,2]
 10462                           
 10463                           
 10464                           ;mcc_generated_files/i2c1_master.c: 337:     I2C1_Status.busy = 0;
 10465  0C8F  0021               	movlb	1	; select bank1
 10466  0C90  10BC               	bcf	(_I2C1_Status^(0+128)+28),1
 10467  0C91                     i1l3216:
 10468                           
 10469                           ;mcc_generated_files/i2c1_master.c: 338:     I2C1_Status.error = I2C1_NOERR;
 10470  0C91  01BB               	clrf	(_I2C1_Status^(0+128)+27)
 10471  0C92                     i1l3218:
 10472                           
 10473                           ;mcc_generated_files/i2c1_master.c: 339:     return I2C1_RESET;
 10474  0C92  300E               	movlw	14
 10475  0C93                     i1l599:
 10476  0C93  0008               	return
 10477  0C94                     __end_of_I2C1_DO_IDLE:
 10478                           
 10479                           	psect	text61
 10480  0FD1                     __ptext61:	
 10481 ;; *************** function _I2C1_DO_TX_EMPTY *****************
 10482 ;; Defined at:
 10483 ;;		line 411 in file "mcc_generated_files/i2c1_master.c"
 10484 ;; Parameters:    Size  Location     Type
 10485 ;;		None
 10486 ;; Auto vars:     Size  Location     Type
 10487 ;;		None
 10488 ;; Return value:  Size  Location     Type
 10489 ;;                  1    wreg      enum E7050
 10490 ;; Registers used:
 10491 ;;		wreg, fsr0l, fsr0h, fsr1l, fsr1h, status,2, status,0, pclath, cstack
 10492 ;; Tracked objects:
 10493 ;;		On entry : 0/0
 10494 ;;		On exit  : 0/0
 10495 ;;		Unchanged: 0/0
 10496 ;; Data sizes:     COMMON   BANK0   BANK1   BANK2   BANK3   BANK4   BANK5   BANK6   BANK7   BANK8   BANK9  BANK10  BANK1
      +1  BANK12
 10497 ;;      Params:         0       0       0       0       0       0       0       0       0       0       0       0       
      +0       0
 10498 ;;      Locals:         0       0       0       0       0       0       0       0       0       0       0       0       
      +0       0
 10499 ;;      Temps:          3       0       0       0       0       0       0       0       0       0       0       0       
      +0       0
 10500 ;;      Totals:         3       0       0       0       0       0       0       0       0       0       0       0       
      +0       0
 10501 ;;Total ram usage:        3 bytes
 10502 ;; Hardware stack levels used: 1
 10503 ;; Hardware stack levels required when called: 3
 10504 ;; This function calls:
 10505 ;;		Absolute function
 10506 ;;		_I2C1_CallbackReturnReset
 10507 ;;		_I2C1_CallbackReturnStop
 10508 ;;		_I2C1_DO_SEND_RESTART
 10509 ;;		_I2C1_DO_SEND_STOP
 10510 ;;		_I2C1_MasterSetIrq
 10511 ;;		_rd1RegCompleteHandler
 10512 ;;		_rd1RegCompleteHandler@i2c1_master_example$F146
 10513 ;;		_rd2RegCompleteHandler
 10514 ;;		_rd2RegCompleteHandler@i2c1_master_example$F157
 10515 ;;		_rdBlkRegCompleteHandler
 10516 ;;		_rdBlkRegCompleteHandler@i2c1_master_example$F180
 10517 ;;		_wr1RegCompleteHandler
 10518 ;;		_wr1RegCompleteHandler@i2c1_master_example$F163
 10519 ;;		_wr2RegCompleteHandler
 10520 ;;		_wr2RegCompleteHandler@i2c1_master_example$F169
 10521 ;; This function is called by:
 10522 ;;		_I2C1_MasterFsm
 10523 ;; This function uses a non-reentrant model
 10524 ;;
 10525                           
 10526  0FD1                     _I2C1_DO_TX_EMPTY:	
 10527                           ;psect for function _I2C1_DO_TX_EMPTY
 10528                           
 10529  0FD1                     i1l3312:	
 10530                           ;incstack = 0
 10531 ;; hardware stack exceeded
 10532                           ; Regs used in _I2C1_DO_TX_EMPTY: [wreg-fsr1h+status,2+status,0+pclath+cstack]
 10533                           
 10534                           
 10535                           ;mcc_generated_files/i2c1_master.c: 413:     I2C1_Status.bufferFree = 1;
 10536  0FD1  0021               	movlb	1	; select bank1
 10537  0FD2  15BC               	bsf	(_I2C1_Status^(0+128)+28),3
 10538                           
 10539                           ;mcc_generated_files/i2c1_master.c: 414:     switch(I2C1_Status.callbackTable[I2C1_DATA_
      +                          COMPLETE](I2C1_Status.callbackPayload[I2C1_DATA_COMPLETE]))
 10540  0FD3  2FE1               	goto	i1l3330
 10541  0FD4                     i1l3314:
 10542                           
 10543                           ;mcc_generated_files/i2c1_master.c: 418:             return I2C1_DO_SEND_RESTART();
 10544  0FD4  318C  249E  318F   	fcall	_I2C1_DO_SEND_RESTART
 10545  0FD7  2FFF               	goto	i1l642
 10546  0FD8                     i1l3318:
 10547                           
 10548                           ;mcc_generated_files/i2c1_master.c: 420:             I2C1_MasterSetIrq();
 10549  0FD8  318C  2465  318F   	fcall	_I2C1_MasterSetIrq
 10550  0FDB                     i1l3320:
 10551                           
 10552                           ;mcc_generated_files/i2c1_master.c: 421:             return I2C1_TX;
 10553  0FDB  3003               	movlw	3
 10554  0FDC  2FFF               	goto	i1l642
 10555  0FDD                     i1l3324:
 10556                           
 10557                           ;mcc_generated_files/i2c1_master.c: 424:             return I2C1_DO_SEND_STOP();
 10558  0FDD  318C  24A3  318F   	fcall	_I2C1_DO_SEND_STOP
 10559  0FE0  2FFF               	goto	i1l642
 10560  0FE1                     i1l3330:
 10561  0FE1  082C               	movf	(low ((_I2C1_Status| 0+12)))^(0+128),w
 10562  0FE2  00FA               	movwf	??_I2C1_DO_TX_EMPTY
 10563  0FE3  087A               	movf	??_I2C1_DO_TX_EMPTY,w
 10564  0FE4  00F9               	movwf	I2C1_CallbackReturnReset@funPtr
 10565  0FE5  0821               	movf	(_I2C1_Status+1)^(0+128),w
 10566  0FE6  008A               	movwf	10
 10567  0FE7  0820               	movf	_I2C1_Status^(0+128),w
 10568  0FE8  000A               	callw
 10569  0FE9  318F               	pagesel	$
 10570  0FEA  00FB               	movwf	??_I2C1_DO_TX_EMPTY+1
 10571  0FEB  01FC               	clrf	??_I2C1_DO_TX_EMPTY+2
 10572                           
 10573                           ; Switch on 2 bytes has been partitioned into a top level switch of size 1, and 1 sub-sw
      +                          itches
 10574                           ; Switch size 1, requested type "simple"
 10575                           ; Number of cases is 1, Range of values is 0 to 0
 10576                           ; switch strategies available:
 10577                           ; Name         Instructions Cycles
 10578                           ; simple_byte            4     3 (average)
 10579                           ; direct_byte            8     6 (fixed)
 10580                           ; jumptable            260     6 (fixed)
 10581                           ;	Chosen strategy is simple_byte
 10582  0FEC  087C               	movf	??_I2C1_DO_TX_EMPTY+2,w
 10583  0FED  3A00               	xorlw	0	; case 0
 10584  0FEE  1903               	skipnz
 10585  0FEF  2FF1               	goto	i1l4276
 10586  0FF0  2FDD               	goto	i1l3324
 10587  0FF1                     i1l4276:
 10588                           
 10589                           ; Switch size 1, requested type "simple"
 10590                           ; Number of cases is 4, Range of values is 1 to 4
 10591                           ; switch strategies available:
 10592                           ; Name         Instructions Cycles
 10593                           ; simple_byte           13     7 (average)
 10594                           ; direct_byte           17     9 (fixed)
 10595                           ; jumptable            263     9 (fixed)
 10596                           ;	Chosen strategy is simple_byte
 10597  0FF1  087B               	movf	??_I2C1_DO_TX_EMPTY+1,w
 10598  0FF2  3A01               	xorlw	1	; case 1
 10599  0FF3  1903               	skipnz
 10600  0FF4  2FDD               	goto	i1l3324
 10601  0FF5  3A03               	xorlw	3	; case 2
 10602  0FF6  1903               	skipnz
 10603  0FF7  2FD4               	goto	i1l3314
 10604  0FF8  3A01               	xorlw	1	; case 3
 10605  0FF9  1903               	skipnz
 10606  0FFA  2FD4               	goto	i1l3314
 10607  0FFB  3A07               	xorlw	7	; case 4
 10608  0FFC  1903               	skipnz
 10609  0FFD  2FD8               	goto	i1l3318
 10610  0FFE  2FDD               	goto	i1l3324
 10611  0FFF                     i1l642:
 10612  0FFF  0008               	return
 10613  1000                     __end_of_I2C1_DO_TX_EMPTY:
 10614                           
 10615                           	psect	text62
 10616  0C65                     __ptext62:	
 10617 ;; *************** function _I2C1_MasterSetIrq *****************
 10618 ;; Defined at:
 10619 ;;		line 647 in file "mcc_generated_files/i2c1_master.c"
 10620 ;; Parameters:    Size  Location     Type
 10621 ;;		None
 10622 ;; Auto vars:     Size  Location     Type
 10623 ;;		None
 10624 ;; Return value:  Size  Location     Type
 10625 ;;                  1    wreg      void 
 10626 ;; Registers used:
 10627 ;;		None
 10628 ;; Tracked objects:
 10629 ;;		On entry : 0/0
 10630 ;;		On exit  : 0/0
 10631 ;;		Unchanged: 0/0
 10632 ;; Data sizes:     COMMON   BANK0   BANK1   BANK2   BANK3   BANK4   BANK5   BANK6   BANK7   BANK8   BANK9  BANK10  BANK1
      +1  BANK12
 10633 ;;      Params:         0       0       0       0       0       0       0       0       0       0       0       0       
      +0       0
 10634 ;;      Locals:         0       0       0       0       0       0       0       0       0       0       0       0       
      +0       0
 10635 ;;      Temps:          0       0       0       0       0       0       0       0       0       0       0       0       
      +0       0
 10636 ;;      Totals:         0       0       0       0       0       0       0       0       0       0       0       0       
      +0       0
 10637 ;;Total ram usage:        0 bytes
 10638 ;; Hardware stack levels used: 1
 10639 ;; This function calls:
 10640 ;;		Nothing
 10641 ;; This function is called by:
 10642 ;;		_I2C1_DO_TX_EMPTY
 10643 ;; This function uses a non-reentrant model
 10644 ;;
 10645                           
 10646  0C65                     _I2C1_MasterSetIrq:	
 10647                           ;psect for function _I2C1_MasterSetIrq
 10648                           
 10649  0C65                     i1l3086:	
 10650                           ;incstack = 0
 10651                           ; Regs used in _I2C1_MasterSetIrq: []
 10652                           
 10653                           
 10654                           ;mcc_generated_files/i2c1_master.c: 649:     PIR1bits.SSP1IF = 1;
 10655  0C65  0020               	movlb	0	; select bank0
 10656  0C66  1591               	bsf	17,3	;volatile
 10657  0C67                     i1l762:
 10658  0C67  0008               	return
 10659  0C68                     __end_of_I2C1_MasterSetIrq:
 10660                           
 10661                           	psect	text63
 10662  0CC1                     __ptext63:	
 10663 ;; *************** function _I2C1_MasterIsNack *****************
 10664 ;; Defined at:
 10665 ;;		line 599 in file "mcc_generated_files/i2c1_master.c"
 10666 ;; Parameters:    Size  Location     Type
 10667 ;;		None
 10668 ;; Auto vars:     Size  Location     Type
 10669 ;;		None
 10670 ;; Return value:  Size  Location     Type
 10671 ;;                  1    wreg      _Bool 
 10672 ;; Registers used:
 10673 ;;		wreg, status,2, status,0
 10674 ;; Tracked objects:
 10675 ;;		On entry : 0/0
 10676 ;;		On exit  : 0/0
 10677 ;;		Unchanged: 0/0
 10678 ;; Data sizes:     COMMON   BANK0   BANK1   BANK2   BANK3   BANK4   BANK5   BANK6   BANK7   BANK8   BANK9  BANK10  BANK1
      +1  BANK12
 10679 ;;      Params:         0       0       0       0       0       0       0       0       0       0       0       0       
      +0       0
 10680 ;;      Locals:         0       0       0       0       0       0       0       0       0       0       0       0       
      +0       0
 10681 ;;      Temps:          0       0       0       0       0       0       0       0       0       0       0       0       
      +0       0
 10682 ;;      Totals:         0       0       0       0       0       0       0       0       0       0       0       0       
      +0       0
 10683 ;;Total ram usage:        0 bytes
 10684 ;; Hardware stack levels used: 1
 10685 ;; This function calls:
 10686 ;;		Nothing
 10687 ;; This function is called by:
 10688 ;;		_I2C1_MasterFsm
 10689 ;;		_I2C1_DO_TX
 10690 ;; This function uses a non-reentrant model
 10691 ;;
 10692                           
 10693  0CC1                     _I2C1_MasterIsNack:	
 10694                           ;psect for function _I2C1_MasterIsNack
 10695                           
 10696  0CC1                     i1l3036:	
 10697                           ;incstack = 0
 10698                           ; Regs used in _I2C1_MasterIsNack: [wreg+status,2+status,0]
 10699                           
 10700                           
 10701                           ;mcc_generated_files/i2c1_master.c: 601:     return SSP1CON2bits.ACKSTAT;
 10702  0CC1  0024               	movlb	4	; select bank4
 10703  0CC2  0E16               	swapf	22,w	;volatile
 10704  0CC3  0C89               	rrf	9,f
 10705  0CC4  0C89               	rrf	9,f
 10706  0CC5  3901               	andlw	1
 10707  0CC6                     i1l735:
 10708  0CC6  0008               	return
 10709  0CC7                     __end_of_I2C1_MasterIsNack:
 10710                           
 10711                           	psect	text64
 10712  0C8A                     __ptext64:	
 10713 ;; *************** function _I2C1_MasterSendTxData *****************
 10714 ;; Defined at:
 10715 ;;		line 569 in file "mcc_generated_files/i2c1_master.c"
 10716 ;; Parameters:    Size  Location     Type
 10717 ;;  data            1    wreg     unsigned char 
 10718 ;; Auto vars:     Size  Location     Type
 10719 ;;  data            1    0[COMMON] unsigned char 
 10720 ;; Return value:  Size  Location     Type
 10721 ;;                  1    wreg      void 
 10722 ;; Registers used:
 10723 ;;		wreg
 10724 ;; Tracked objects:
 10725 ;;		On entry : 0/0
 10726 ;;		On exit  : 0/0
 10727 ;;		Unchanged: 0/0
 10728 ;; Data sizes:     COMMON   BANK0   BANK1   BANK2   BANK3   BANK4   BANK5   BANK6   BANK7   BANK8   BANK9  BANK10  BANK1
      +1  BANK12
 10729 ;;      Params:         0       0       0       0       0       0       0       0       0       0       0       0       
      +0       0
 10730 ;;      Locals:         1       0       0       0       0       0       0       0       0       0       0       0       
      +0       0
 10731 ;;      Temps:          0       0       0       0       0       0       0       0       0       0       0       0       
      +0       0
 10732 ;;      Totals:         1       0       0       0       0       0       0       0       0       0       0       0       
      +0       0
 10733 ;;Total ram usage:        1 bytes
 10734 ;; Hardware stack levels used: 1
 10735 ;; This function calls:
 10736 ;;		Nothing
 10737 ;; This function is called by:
 10738 ;;		_I2C1_DO_SEND_ADR_READ
 10739 ;;		_I2C1_DO_SEND_ADR_WRITE
 10740 ;;		_I2C1_DO_TX
 10741 ;; This function uses a non-reentrant model
 10742 ;;
 10743                           
 10744  0C8A                     _I2C1_MasterSendTxData:	
 10745                           ;psect for function _I2C1_MasterSendTxData
 10746                           
 10747                           
 10748                           ;incstack = 0
 10749                           ; Regs used in _I2C1_MasterSendTxData: [wreg]
 10750                           ;I2C1_MasterSendTxData@data stored from wreg
 10751  0C8A  00F0               	movwf	I2C1_MasterSendTxData@data
 10752  0C8B                     i1l3040:
 10753                           
 10754                           ;mcc_generated_files/i2c1_master.c: 569: static __attribute__((inline)) void I2C1_Master
      +                          SendTxData(uint8_t data);mcc_generated_files/i2c1_master.c: 570: {;mcc_generated_files/i
      +                          2c1_master.c: 571:     SSP1BUF = data;
 10755  0C8B  0870               	movf	I2C1_MasterSendTxData@data,w
 10756  0C8C  0024               	movlb	4	; select bank4
 10757  0C8D  0091               	movwf	17	;volatile
 10758  0C8E                     i1l717:
 10759  0C8E  0008               	return
 10760  0C8F                     __end_of_I2C1_MasterSendTxData:
 10761                           
 10762                           	psect	text65
 10763  0C7E                     __ptext65:	
 10764 ;; *************** function _I2C1_MasterSendAck *****************
 10765 ;; Defined at:
 10766 ;;		line 604 in file "mcc_generated_files/i2c1_master.c"
 10767 ;; Parameters:    Size  Location     Type
 10768 ;;		None
 10769 ;; Auto vars:     Size  Location     Type
 10770 ;;		None
 10771 ;; Return value:  Size  Location     Type
 10772 ;;                  1    wreg      void 
 10773 ;; Registers used:
 10774 ;;		None
 10775 ;; Tracked objects:
 10776 ;;		On entry : 0/0
 10777 ;;		On exit  : 0/0
 10778 ;;		Unchanged: 0/0
 10779 ;; Data sizes:     COMMON   BANK0   BANK1   BANK2   BANK3   BANK4   BANK5   BANK6   BANK7   BANK8   BANK9  BANK10  BANK1
      +1  BANK12
 10780 ;;      Params:         0       0       0       0       0       0       0       0       0       0       0       0       
      +0       0
 10781 ;;      Locals:         0       0       0       0       0       0       0       0       0       0       0       0       
      +0       0
 10782 ;;      Temps:          0       0       0       0       0       0       0       0       0       0       0       0       
      +0       0
 10783 ;;      Totals:         0       0       0       0       0       0       0       0       0       0       0       0       
      +0       0
 10784 ;;Total ram usage:        0 bytes
 10785 ;; Hardware stack levels used: 1
 10786 ;; This function calls:
 10787 ;;		Nothing
 10788 ;; This function is called by:
 10789 ;;		_I2C1_DO_RX
 10790 ;;		_I2C1_DO_RX_ACK
 10791 ;; This function uses a non-reentrant model
 10792 ;;
 10793                           
 10794  0C7E                     _I2C1_MasterSendAck:	
 10795                           ;psect for function _I2C1_MasterSendAck
 10796                           
 10797  0C7E                     i1l3064:	
 10798                           ;incstack = 0
 10799                           ; Regs used in _I2C1_MasterSendAck: []
 10800                           
 10801                           
 10802                           ;mcc_generated_files/i2c1_master.c: 606:     SSP1CON2bits.ACKDT = 0;
 10803  0C7E  0024               	movlb	4	; select bank4
 10804  0C7F  1296               	bcf	22,5	;volatile
 10805                           
 10806                           ;mcc_generated_files/i2c1_master.c: 607:     SSP1CON2bits.ACKEN = 1;
 10807  0C80  1616               	bsf	22,4	;volatile
 10808  0C81                     i1l738:
 10809  0C81  0008               	return
 10810  0C82                     __end_of_I2C1_MasterSendAck:
 10811                           
 10812                           	psect	text66
 10813  0C62                     __ptext66:	
 10814 ;; *************** function _I2C1_MasterGetRxData *****************
 10815 ;; Defined at:
 10816 ;;		line 564 in file "mcc_generated_files/i2c1_master.c"
 10817 ;; Parameters:    Size  Location     Type
 10818 ;;		None
 10819 ;; Auto vars:     Size  Location     Type
 10820 ;;		None
 10821 ;; Return value:  Size  Location     Type
 10822 ;;                  1    wreg      unsigned char 
 10823 ;; Registers used:
 10824 ;;		wreg
 10825 ;; Tracked objects:
 10826 ;;		On entry : 0/0
 10827 ;;		On exit  : 0/0
 10828 ;;		Unchanged: 0/0
 10829 ;; Data sizes:     COMMON   BANK0   BANK1   BANK2   BANK3   BANK4   BANK5   BANK6   BANK7   BANK8   BANK9  BANK10  BANK1
      +1  BANK12
 10830 ;;      Params:         0       0       0       0       0       0       0       0       0       0       0       0       
      +0       0
 10831 ;;      Locals:         0       0       0       0       0       0       0       0       0       0       0       0       
      +0       0
 10832 ;;      Temps:          0       0       0       0       0       0       0       0       0       0       0       0       
      +0       0
 10833 ;;      Totals:         0       0       0       0       0       0       0       0       0       0       0       0       
      +0       0
 10834 ;;Total ram usage:        0 bytes
 10835 ;; Hardware stack levels used: 1
 10836 ;; This function calls:
 10837 ;;		Nothing
 10838 ;; This function is called by:
 10839 ;;		_I2C1_DO_RX
 10840 ;; This function uses a non-reentrant model
 10841 ;;
 10842                           
 10843  0C62                     _I2C1_MasterGetRxData:	
 10844                           ;psect for function _I2C1_MasterGetRxData
 10845                           
 10846  0C62                     i1l3060:	
 10847                           ;incstack = 0
 10848                           ; Regs used in _I2C1_MasterGetRxData: [wreg]
 10849                           
 10850                           
 10851                           ;mcc_generated_files/i2c1_master.c: 566:     return SSP1BUF;
 10852  0C62  0024               	movlb	4	; select bank4
 10853  0C63  0811               	movf	17,w	;volatile
 10854  0C64                     i1l714:
 10855  0C64  0008               	return
 10856  0C65                     __end_of_I2C1_MasterGetRxData:
 10857                           
 10858                           	psect	text67
 10859  0C7A                     __ptext67:	
 10860 ;; *************** function _I2C1_MasterSendNack *****************
 10861 ;; Defined at:
 10862 ;;		line 610 in file "mcc_generated_files/i2c1_master.c"
 10863 ;; Parameters:    Size  Location     Type
 10864 ;;		None
 10865 ;; Auto vars:     Size  Location     Type
 10866 ;;		None
 10867 ;; Return value:  Size  Location     Type
 10868 ;;                  1    wreg      void 
 10869 ;; Registers used:
 10870 ;;		None
 10871 ;; Tracked objects:
 10872 ;;		On entry : 0/0
 10873 ;;		On exit  : 0/0
 10874 ;;		Unchanged: 0/0
 10875 ;; Data sizes:     COMMON   BANK0   BANK1   BANK2   BANK3   BANK4   BANK5   BANK6   BANK7   BANK8   BANK9  BANK10  BANK1
      +1  BANK12
 10876 ;;      Params:         0       0       0       0       0       0       0       0       0       0       0       0       
      +0       0
 10877 ;;      Locals:         0       0       0       0       0       0       0       0       0       0       0       0       
      +0       0
 10878 ;;      Temps:          0       0       0       0       0       0       0       0       0       0       0       0       
      +0       0
 10879 ;;      Totals:         0       0       0       0       0       0       0       0       0       0       0       0       
      +0       0
 10880 ;;Total ram usage:        0 bytes
 10881 ;; Hardware stack levels used: 1
 10882 ;; This function calls:
 10883 ;;		Nothing
 10884 ;; This function is called by:
 10885 ;;		_I2C1_DO_RX_NACK_STOP
 10886 ;;		_I2C1_DO_RX_NACK_RESTART
 10887 ;; This function uses a non-reentrant model
 10888 ;;
 10889                           
 10890  0C7A                     _I2C1_MasterSendNack:	
 10891                           ;psect for function _I2C1_MasterSendNack
 10892                           
 10893  0C7A                     i1l2846:	
 10894                           ;incstack = 0
 10895                           ; Regs used in _I2C1_MasterSendNack: []
 10896                           
 10897                           
 10898                           ;mcc_generated_files/i2c1_master.c: 612:     SSP1CON2bits.ACKDT = 1;
 10899  0C7A  0024               	movlb	4	; select bank4
 10900  0C7B  1696               	bsf	22,5	;volatile
 10901                           
 10902                           ;mcc_generated_files/i2c1_master.c: 613:     SSP1CON2bits.ACKEN = 1;
 10903  0C7C  1616               	bsf	22,4	;volatile
 10904  0C7D                     i1l741:
 10905  0C7D  0008               	return
 10906  0C7E                     __end_of_I2C1_MasterSendNack:
 10907                           
 10908                           	psect	text68
 10909  0C5F                     __ptext68:	
 10910 ;; *************** function _I2C1_MasterStartRx *****************
 10911 ;; Defined at:
 10912 ;;		line 584 in file "mcc_generated_files/i2c1_master.c"
 10913 ;; Parameters:    Size  Location     Type
 10914 ;;		None
 10915 ;; Auto vars:     Size  Location     Type
 10916 ;;		None
 10917 ;; Return value:  Size  Location     Type
 10918 ;;                  1    wreg      void 
 10919 ;; Registers used:
 10920 ;;		None
 10921 ;; Tracked objects:
 10922 ;;		On entry : 0/0
 10923 ;;		On exit  : 0/0
 10924 ;;		Unchanged: 0/0
 10925 ;; Data sizes:     COMMON   BANK0   BANK1   BANK2   BANK3   BANK4   BANK5   BANK6   BANK7   BANK8   BANK9  BANK10  BANK1
      +1  BANK12
 10926 ;;      Params:         0       0       0       0       0       0       0       0       0       0       0       0       
      +0       0
 10927 ;;      Locals:         0       0       0       0       0       0       0       0       0       0       0       0       
      +0       0
 10928 ;;      Temps:          0       0       0       0       0       0       0       0       0       0       0       0       
      +0       0
 10929 ;;      Totals:         0       0       0       0       0       0       0       0       0       0       0       0       
      +0       0
 10930 ;;Total ram usage:        0 bytes
 10931 ;; Hardware stack levels used: 1
 10932 ;; This function calls:
 10933 ;;		Nothing
 10934 ;; This function is called by:
 10935 ;;		_I2C1_DO_RCEN
 10936 ;; This function uses a non-reentrant model
 10937 ;;
 10938                           
 10939  0C5F                     _I2C1_MasterStartRx:	
 10940                           ;psect for function _I2C1_MasterStartRx
 10941                           
 10942  0C5F                     i1l3078:	
 10943                           ;incstack = 0
 10944                           ; Regs used in _I2C1_MasterStartRx: []
 10945                           
 10946                           
 10947                           ;mcc_generated_files/i2c1_master.c: 586:     SSP1CON2bits.RCEN = 1;
 10948  0C5F  0024               	movlb	4	; select bank4
 10949  0C60  1596               	bsf	22,3	;volatile
 10950  0C61                     i1l726:
 10951  0C61  0008               	return
 10952  0C62                     __end_of_I2C1_MasterStartRx:
 10953                           
 10954                           	psect	text69
 10955  0002                     __ptext69:	
 10956 ;; *************** function _I2C1_CallbackReturnReset *****************
 10957 ;; Defined at:
 10958 ;;		line 526 in file "mcc_generated_files/i2c1_master.c"
 10959 ;; Parameters:    Size  Location     Type
 10960 ;;  funPtr          1    9[COMMON] PTR void 
 10961 ;;		 -> I2C1_ReadDataBlock@bufferBlock(3), I2C1_Write2ByteRegister@data(2), I2C1_Write1ByteRegister@data(1), I2C1_Read2B
      +yteRegister@returnValue(2), 
 10962 ;;		 -> I2C1_Read1ByteRegister@returnValue(1), i2c_readDataBlock@d(3), i2c_write2ByteRegister@data(2), i2c_read2ByteRegi
      +ster@result(2), 
 10963 ;;		 -> i2c_read1ByteRegister@d2(1), i2c_write1ByteRegister@data(1), NULL(0), 
 10964 ;; Auto vars:     Size  Location     Type
 10965 ;;		None
 10966 ;; Return value:  Size  Location     Type
 10967 ;;                  1    wreg      enum E360
 10968 ;; Registers used:
 10969 ;;		wreg
 10970 ;; Tracked objects:
 10971 ;;		On entry : 0/0
 10972 ;;		On exit  : 0/0
 10973 ;;		Unchanged: 0/0
 10974 ;; Data sizes:     COMMON   BANK0   BANK1   BANK2   BANK3   BANK4   BANK5   BANK6   BANK7   BANK8   BANK9  BANK10  BANK1
      +1  BANK12
 10975 ;;      Params:         1       0       0       0       0       0       0       0       0       0       0       0       
      +0       0
 10976 ;;      Locals:         0       0       0       0       0       0       0       0       0       0       0       0       
      +0       0
 10977 ;;      Temps:          0       0       0       0       0       0       0       0       0       0       0       0       
      +0       0
 10978 ;;      Totals:         1       0       0       0       0       0       0       0       0       0       0       0       
      +0       0
 10979 ;;Total ram usage:        1 bytes
 10980 ;; Hardware stack levels used: 1
 10981 ;; This function calls:
 10982 ;;		Nothing
 10983 ;; This function is called by:
 10984 ;;		_I2C1_Open
 10985 ;;		_I2C1_DO_TX
 10986 ;;		_I2C1_DO_RX
 10987 ;;		_I2C1_DO_TX_EMPTY
 10988 ;;		_I2C1_DO_ADDRESS_NACK
 10989 ;;		_I2C1_DO_RX_EMPTY
 10990 ;; This function uses a non-reentrant model
 10991 ;;
 10992                           
 10993  0002                     _I2C1_CallbackReturnReset:	
 10994                           ;psect for function _I2C1_CallbackReturnReset
 10995                           
 10996  0002                     i1l3092:	
 10997                           ;incstack = 0
 10998                           ; Regs used in _I2C1_CallbackReturnReset: [wreg]
 10999                           
 11000                           
 11001                           ;mcc_generated_files/i2c1_master.c: 526: i2c1_operations_t I2C1_CallbackReturnReset(void
      +                           *funPtr);mcc_generated_files/i2c1_master.c: 527: {;mcc_generated_files/i2c1_master.c: 5
      +                          28:     return I2C1_RESET_LINK;
 11002  0002  3005               	movlw	5
 11003  0003                     i1l698:
 11004  0003  0008               	return
 11005  0004                     __end_of_I2C1_CallbackReturnReset:
 11006                           
 11007                           	psect	text70
 11008  0C57                     __ptext70:	
 11009 ;; *************** function _I2C1_CallbackReturnStop *****************
 11010 ;; Defined at:
 11011 ;;		line 521 in file "mcc_generated_files/i2c1_master.c"
 11012 ;; Parameters:    Size  Location     Type
 11013 ;;  funPtr          1    9[COMMON] PTR void 
 11014 ;;		 -> I2C1_ReadDataBlock@bufferBlock(3), I2C1_Write2ByteRegister@data(2), I2C1_Write1ByteRegister@data(1), I2C1_Read2B
      +yteRegister@returnValue(2), 
 11015 ;;		 -> I2C1_Read1ByteRegister@returnValue(1), i2c_readDataBlock@d(3), i2c_write2ByteRegister@data(2), i2c_read2ByteRegi
      +ster@result(2), 
 11016 ;;		 -> i2c_read1ByteRegister@d2(1), i2c_write1ByteRegister@data(1), NULL(0), 
 11017 ;; Auto vars:     Size  Location     Type
 11018 ;;		None
 11019 ;; Return value:  Size  Location     Type
 11020 ;;                  1    wreg      enum E360
 11021 ;; Registers used:
 11022 ;;		wreg
 11023 ;; Tracked objects:
 11024 ;;		On entry : 0/0
 11025 ;;		On exit  : 0/0
 11026 ;;		Unchanged: 0/0
 11027 ;; Data sizes:     COMMON   BANK0   BANK1   BANK2   BANK3   BANK4   BANK5   BANK6   BANK7   BANK8   BANK9  BANK10  BANK1
      +1  BANK12
 11028 ;;      Params:         1       0       0       0       0       0       0       0       0       0       0       0       
      +0       0
 11029 ;;      Locals:         0       0       0       0       0       0       0       0       0       0       0       0       
      +0       0
 11030 ;;      Temps:          0       0       0       0       0       0       0       0       0       0       0       0       
      +0       0
 11031 ;;      Totals:         1       0       0       0       0       0       0       0       0       0       0       0       
      +0       0
 11032 ;;Total ram usage:        1 bytes
 11033 ;; Hardware stack levels used: 1
 11034 ;; This function calls:
 11035 ;;		Nothing
 11036 ;; This function is called by:
 11037 ;;		_I2C1_Open
 11038 ;;		_I2C1_SetCallback
 11039 ;;		i1_I2C1_SetCallback
 11040 ;;		_I2C1_DO_TX
 11041 ;;		_I2C1_DO_RX
 11042 ;;		_I2C1_DO_TX_EMPTY
 11043 ;;		_I2C1_DO_ADDRESS_NACK
 11044 ;;		_I2C1_DO_RX_EMPTY
 11045 ;; This function uses a non-reentrant model
 11046 ;;
 11047                           
 11048  0C57                     _I2C1_CallbackReturnStop:	
 11049                           ;psect for function _I2C1_CallbackReturnStop
 11050                           
 11051  0C57                     i1l3088:	
 11052                           ;incstack = 0
 11053                           ; Regs used in _I2C1_CallbackReturnStop: [wreg]
 11054                           
 11055                           
 11056                           ;mcc_generated_files/i2c1_master.c: 521: i2c1_operations_t I2C1_CallbackReturnStop(void 
      +                          *funPtr);mcc_generated_files/i2c1_master.c: 522: {;mcc_generated_files/i2c1_master.c: 52
      +                          3:     return I2C1_STOP;
 11057  0C57  3001               	movlw	1
 11058  0C58                     i1l695:
 11059  0C58  0008               	return
 11060  0C59                     __end_of_I2C1_CallbackReturnStop:
 11061                           
 11062                           	psect	text71
 11063  0E4B                     __ptext71:	
 11064 ;; *************** function _rdBlkRegCompleteHandler@i2c1_master_example$F180 *****************
 11065 ;; Defined at:
 11066 ;;		line 170 in file "mcc_generated_files/examples/i2c1_master_example.c"
 11067 ;; Parameters:    Size  Location     Type
 11068 ;;  ptr             1    9[COMMON] PTR void 
 11069 ;;		 -> I2C1_ReadDataBlock@bufferBlock(3), I2C1_Write2ByteRegister@data(2), I2C1_Write1ByteRegister@data(1), I2C1_Read2B
      +yteRegister@returnValue(2), 
 11070 ;;		 -> I2C1_Read1ByteRegister@returnValue(1), i2c_readDataBlock@d(3), i2c_write2ByteRegister@data(2), i2c_read2ByteRegi
      +ster@result(2), 
 11071 ;;		 -> i2c_read1ByteRegister@d2(1), i2c_write1ByteRegister@data(1), NULL(0), 
 11072 ;; Auto vars:     Size  Location     Type
 11073 ;;		None
 11074 ;; Return value:  Size  Location     Type
 11075 ;;                  1    wreg      enum E360
 11076 ;; Registers used:
 11077 ;;		wreg, fsr1l, fsr1h, status,2, status,0, pclath, cstack
 11078 ;; Tracked objects:
 11079 ;;		On entry : 0/0
 11080 ;;		On exit  : 0/0
 11081 ;;		Unchanged: 0/0
 11082 ;; Data sizes:     COMMON   BANK0   BANK1   BANK2   BANK3   BANK4   BANK5   BANK6   BANK7   BANK8   BANK9  BANK10  BANK1
      +1  BANK12
 11083 ;;      Params:         1       0       0       0       0       0       0       0       0       0       0       0       
      +0       0
 11084 ;;      Locals:         0       0       0       0       0       0       0       0       0       0       0       0       
      +0       0
 11085 ;;      Temps:          0       0       0       0       0       0       0       0       0       0       0       0       
      +0       0
 11086 ;;      Totals:         1       0       0       0       0       0       0       0       0       0       0       0       
      +0       0
 11087 ;;Total ram usage:        1 bytes
 11088 ;; Hardware stack levels used: 1
 11089 ;; Hardware stack levels required when called: 2
 11090 ;; This function calls:
 11091 ;;		i1_I2C1_SetBuffer
 11092 ;;		i1_I2C1_SetDataCompleteCallback
 11093 ;; This function is called by:
 11094 ;;		_I2C1_ReadDataBlock
 11095 ;;		_I2C1_DO_TX
 11096 ;;		_I2C1_DO_RX
 11097 ;;		_I2C1_DO_TX_EMPTY
 11098 ;;		_I2C1_DO_ADDRESS_NACK
 11099 ;;		_I2C1_DO_RX_EMPTY
 11100 ;; This function uses a non-reentrant model
 11101 ;;
 11102                           
 11103  0E4B                     _rdBlkRegCompleteHandler@i2c1_master_example$F180:	
 11104                           ;psect for function _rdBlkRegCompleteHandler@i2c1_master_example$F180
 11105                           
 11106  0E4B                     i1l2984:	
 11107                           ;incstack = 0
 11108 ;; hardware stack exceeded
 11109                           ; Regs used in _rdBlkRegCompleteHandler@i2c1_master_example$F180: [wreg+fsr1l+fsr1h+stat
      +                          us,2+status,0+pclath+cstack]
 11110                           
 11111                           
 11112                           ;mcc_generated_files/examples/i2c1_master_example.c: 170: static i2c1_operations_t rdBlk
      +                          RegCompleteHandler(void *ptr);mcc_generated_files/examples/i2c1_master_example.c: 171: {
      +                          ;mcc_generated_files/examples/i2c1_master_example.c: 172:     I2C1_SetBuffer(((i2c1_buff
      +                          er_t *)ptr)->data,((i2c1_buffer_t*)ptr)->len);
 11113  0E4B  0879               	movf	rdBlkRegCompleteHandler@i2c1_master_example$F180@ptr,w
 11114  0E4C  0086               	movwf	6
 11115  0E4D  0187               	clrf	7
 11116  0E4E  3F40               	moviw [0]fsr1
 11117  0E4F  00F0               	movwf	i1I2C1_SetBuffer@bufferSize
 11118  0E50  3F41               	moviw [1]fsr1
 11119  0E51  00F1               	movwf	i1I2C1_SetBuffer@bufferSize+1
 11120  0E52  0879               	movf	rdBlkRegCompleteHandler@i2c1_master_example$F180@ptr,w
 11121  0E53  3E02               	addlw	2
 11122  0E54  0086               	movwf	6
 11123  0E55  0187               	clrf	7
 11124  0E56  0801               	movf	1,w
 11125  0E57  318D  255C  318E   	fcall	i1_I2C1_SetBuffer
 11126                           
 11127                           ;mcc_generated_files/examples/i2c1_master_example.c: 173:     I2C1_SetDataCompleteCallba
      +                          ck(((void*)0),((void*)0));
 11128  0E5A  3000               	movlw	0
 11129  0E5B  00F5               	movwf	i1I2C1_SetDataCompleteCallback@cb
 11130  0E5C  00F6               	movwf	i1I2C1_SetDataCompleteCallback@cb+1
 11131  0E5D  01F7               	clrf	i1I2C1_SetDataCompleteCallback@ptr
 11132  0E5E  318D  2534  318E   	fcall	i1_I2C1_SetDataCompleteCallback
 11133  0E61                     i1l2986:
 11134                           
 11135                           ;mcc_generated_files/examples/i2c1_master_example.c: 174:     return I2C1_RESTART_READ;
 11136  0E61  3002               	movlw	2
 11137  0E62                     i1l201:
 11138  0E62  0008               	return
 11139  0E63                     __end_of_rdBlkRegCompleteHandler@i2c1_master_example$F180:
 11140                           
 11141                           	psect	text72
 11142  0DE3                     __ptext72:	
 11143 ;; *************** function _wr1RegCompleteHandler@i2c1_master_example$F163 *****************
 11144 ;; Defined at:
 11145 ;;		line 156 in file "mcc_generated_files/examples/i2c1_master_example.c"
 11146 ;; Parameters:    Size  Location     Type
 11147 ;;  ptr             1    9[COMMON] PTR void 
 11148 ;;		 -> I2C1_ReadDataBlock@bufferBlock(3), I2C1_Write2ByteRegister@data(2), I2C1_Write1ByteRegister@data(1), I2C1_Read2B
      +yteRegister@returnValue(2), 
 11149 ;;		 -> I2C1_Read1ByteRegister@returnValue(1), i2c_readDataBlock@d(3), i2c_write2ByteRegister@data(2), i2c_read2ByteRegi
      +ster@result(2), 
 11150 ;;		 -> i2c_read1ByteRegister@d2(1), i2c_write1ByteRegister@data(1), NULL(0), 
 11151 ;; Auto vars:     Size  Location     Type
 11152 ;;		None
 11153 ;; Return value:  Size  Location     Type
 11154 ;;                  1    wreg      enum E360
 11155 ;; Registers used:
 11156 ;;		wreg, fsr1l, fsr1h, status,2, status,0, pclath, cstack
 11157 ;; Tracked objects:
 11158 ;;		On entry : 0/0
 11159 ;;		On exit  : 0/0
 11160 ;;		Unchanged: 0/0
 11161 ;; Data sizes:     COMMON   BANK0   BANK1   BANK2   BANK3   BANK4   BANK5   BANK6   BANK7   BANK8   BANK9  BANK10  BANK1
      +1  BANK12
 11162 ;;      Params:         1       0       0       0       0       0       0       0       0       0       0       0       
      +0       0
 11163 ;;      Locals:         0       0       0       0       0       0       0       0       0       0       0       0       
      +0       0
 11164 ;;      Temps:          0       0       0       0       0       0       0       0       0       0       0       0       
      +0       0
 11165 ;;      Totals:         1       0       0       0       0       0       0       0       0       0       0       0       
      +0       0
 11166 ;;Total ram usage:        1 bytes
 11167 ;; Hardware stack levels used: 1
 11168 ;; Hardware stack levels required when called: 2
 11169 ;; This function calls:
 11170 ;;		i1_I2C1_SetBuffer
 11171 ;;		i1_I2C1_SetDataCompleteCallback
 11172 ;; This function is called by:
 11173 ;;		_I2C1_Write1ByteRegister
 11174 ;;		_I2C1_DO_TX
 11175 ;;		_I2C1_DO_RX
 11176 ;;		_I2C1_DO_TX_EMPTY
 11177 ;;		_I2C1_DO_ADDRESS_NACK
 11178 ;;		_I2C1_DO_RX_EMPTY
 11179 ;; This function uses a non-reentrant model
 11180 ;;
 11181                           
 11182  0DE3                     _wr1RegCompleteHandler@i2c1_master_example$F163:	
 11183                           ;psect for function _wr1RegCompleteHandler@i2c1_master_example$F163
 11184                           
 11185  0DE3                     i1l2968:	
 11186                           ;incstack = 0
 11187 ;; hardware stack exceeded
 11188                           ; Regs used in _wr1RegCompleteHandler@i2c1_master_example$F163: [wreg+fsr1l+fsr1h+status
      +                          ,2+status,0+pclath+cstack]
 11189                           
 11190                           
 11191                           ;mcc_generated_files/examples/i2c1_master_example.c: 156: static i2c1_operations_t wr1Re
      +                          gCompleteHandler(void *ptr);mcc_generated_files/examples/i2c1_master_example.c: 157: {;m
      +                          cc_generated_files/examples/i2c1_master_example.c: 158:     I2C1_SetBuffer(ptr,1);
 11192  0DE3  3001               	movlw	1
 11193  0DE4  00F0               	movwf	i1I2C1_SetBuffer@bufferSize
 11194  0DE5  3000               	movlw	0
 11195  0DE6  00F1               	movwf	i1I2C1_SetBuffer@bufferSize+1
 11196  0DE7  0879               	movf	wr1RegCompleteHandler@i2c1_master_example$F163@ptr,w
 11197  0DE8  318D  255C  318D   	fcall	i1_I2C1_SetBuffer
 11198  0DEB                     i1l2970:
 11199                           
 11200                           ;mcc_generated_files/examples/i2c1_master_example.c: 159:     I2C1_SetDataCompleteCallba
      +                          ck(((void*)0),((void*)0));
 11201  0DEB  3000               	movlw	0
 11202  0DEC  00F5               	movwf	i1I2C1_SetDataCompleteCallback@cb
 11203  0DED  00F6               	movwf	i1I2C1_SetDataCompleteCallback@cb+1
 11204  0DEE  01F7               	clrf	i1I2C1_SetDataCompleteCallback@ptr
 11205  0DEF  318D  2534  318D   	fcall	i1_I2C1_SetDataCompleteCallback
 11206  0DF2                     i1l2972:
 11207                           
 11208                           ;mcc_generated_files/examples/i2c1_master_example.c: 160:     return I2C1_CONTINUE;
 11209  0DF2  3004               	movlw	4
 11210  0DF3                     i1l195:
 11211  0DF3  0008               	return
 11212  0DF4                     __end_of_wr1RegCompleteHandler@i2c1_master_example$F163:
 11213                           
 11214                           	psect	text73
 11215  0DD2                     __ptext73:	
 11216 ;; *************** function _rd2RegCompleteHandler@i2c1_master_example$F157 *****************
 11217 ;; Defined at:
 11218 ;;		line 149 in file "mcc_generated_files/examples/i2c1_master_example.c"
 11219 ;; Parameters:    Size  Location     Type
 11220 ;;  ptr             1    9[COMMON] PTR void 
 11221 ;;		 -> I2C1_ReadDataBlock@bufferBlock(3), I2C1_Write2ByteRegister@data(2), I2C1_Write1ByteRegister@data(1), I2C1_Read2B
      +yteRegister@returnValue(2), 
 11222 ;;		 -> I2C1_Read1ByteRegister@returnValue(1), i2c_readDataBlock@d(3), i2c_write2ByteRegister@data(2), i2c_read2ByteRegi
      +ster@result(2), 
 11223 ;;		 -> i2c_read1ByteRegister@d2(1), i2c_write1ByteRegister@data(1), NULL(0), 
 11224 ;; Auto vars:     Size  Location     Type
 11225 ;;		None
 11226 ;; Return value:  Size  Location     Type
 11227 ;;                  1    wreg      enum E360
 11228 ;; Registers used:
 11229 ;;		wreg, fsr1l, fsr1h, status,2, status,0, pclath, cstack
 11230 ;; Tracked objects:
 11231 ;;		On entry : 0/0
 11232 ;;		On exit  : 0/0
 11233 ;;		Unchanged: 0/0
 11234 ;; Data sizes:     COMMON   BANK0   BANK1   BANK2   BANK3   BANK4   BANK5   BANK6   BANK7   BANK8   BANK9  BANK10  BANK1
      +1  BANK12
 11235 ;;      Params:         1       0       0       0       0       0       0       0       0       0       0       0       
      +0       0
 11236 ;;      Locals:         0       0       0       0       0       0       0       0       0       0       0       0       
      +0       0
 11237 ;;      Temps:          0       0       0       0       0       0       0       0       0       0       0       0       
      +0       0
 11238 ;;      Totals:         1       0       0       0       0       0       0       0       0       0       0       0       
      +0       0
 11239 ;;Total ram usage:        1 bytes
 11240 ;; Hardware stack levels used: 1
 11241 ;; Hardware stack levels required when called: 2
 11242 ;; This function calls:
 11243 ;;		i1_I2C1_SetBuffer
 11244 ;;		i1_I2C1_SetDataCompleteCallback
 11245 ;; This function is called by:
 11246 ;;		_I2C1_Read2ByteRegister
 11247 ;;		_I2C1_DO_TX
 11248 ;;		_I2C1_DO_RX
 11249 ;;		_I2C1_DO_TX_EMPTY
 11250 ;;		_I2C1_DO_ADDRESS_NACK
 11251 ;;		_I2C1_DO_RX_EMPTY
 11252 ;; This function uses a non-reentrant model
 11253 ;;
 11254                           
 11255  0DD2                     _rd2RegCompleteHandler@i2c1_master_example$F157:	
 11256                           ;psect for function _rd2RegCompleteHandler@i2c1_master_example$F157
 11257                           
 11258  0DD2                     i1l2960:	
 11259                           ;incstack = 0
 11260 ;; hardware stack exceeded
 11261                           ; Regs used in _rd2RegCompleteHandler@i2c1_master_example$F157: [wreg+fsr1l+fsr1h+status
      +                          ,2+status,0+pclath+cstack]
 11262                           
 11263                           
 11264                           ;mcc_generated_files/examples/i2c1_master_example.c: 149: static i2c1_operations_t rd2Re
      +                          gCompleteHandler(void *ptr);mcc_generated_files/examples/i2c1_master_example.c: 150: {;m
      +                          cc_generated_files/examples/i2c1_master_example.c: 151:     I2C1_SetBuffer(ptr,2);
 11265  0DD2  3002               	movlw	2
 11266  0DD3  00F0               	movwf	i1I2C1_SetBuffer@bufferSize
 11267  0DD4  3000               	movlw	0
 11268  0DD5  00F1               	movwf	i1I2C1_SetBuffer@bufferSize+1
 11269  0DD6  0879               	movf	rd2RegCompleteHandler@i2c1_master_example$F157@ptr,w
 11270  0DD7  318D  255C  318D   	fcall	i1_I2C1_SetBuffer
 11271  0DDA                     i1l2962:
 11272                           
 11273                           ;mcc_generated_files/examples/i2c1_master_example.c: 152:     I2C1_SetDataCompleteCallba
      +                          ck(((void*)0),((void*)0));
 11274  0DDA  3000               	movlw	0
 11275  0DDB  00F5               	movwf	i1I2C1_SetDataCompleteCallback@cb
 11276  0DDC  00F6               	movwf	i1I2C1_SetDataCompleteCallback@cb+1
 11277  0DDD  01F7               	clrf	i1I2C1_SetDataCompleteCallback@ptr
 11278  0DDE  318D  2534  318D   	fcall	i1_I2C1_SetDataCompleteCallback
 11279  0DE1                     i1l2964:
 11280                           
 11281                           ;mcc_generated_files/examples/i2c1_master_example.c: 153:     return I2C1_RESTART_READ;
 11282  0DE1  3002               	movlw	2
 11283  0DE2                     i1l192:
 11284  0DE2  0008               	return
 11285  0DE3                     __end_of_rd2RegCompleteHandler@i2c1_master_example$F157:
 11286                           
 11287                           	psect	text74
 11288  0DC1                     __ptext74:	
 11289 ;; *************** function _rd1RegCompleteHandler@i2c1_master_example$F146 *****************
 11290 ;; Defined at:
 11291 ;;		line 142 in file "mcc_generated_files/examples/i2c1_master_example.c"
 11292 ;; Parameters:    Size  Location     Type
 11293 ;;  ptr             1    9[COMMON] PTR void 
 11294 ;;		 -> I2C1_ReadDataBlock@bufferBlock(3), I2C1_Write2ByteRegister@data(2), I2C1_Write1ByteRegister@data(1), I2C1_Read2B
      +yteRegister@returnValue(2), 
 11295 ;;		 -> I2C1_Read1ByteRegister@returnValue(1), i2c_readDataBlock@d(3), i2c_write2ByteRegister@data(2), i2c_read2ByteRegi
      +ster@result(2), 
 11296 ;;		 -> i2c_read1ByteRegister@d2(1), i2c_write1ByteRegister@data(1), NULL(0), 
 11297 ;; Auto vars:     Size  Location     Type
 11298 ;;		None
 11299 ;; Return value:  Size  Location     Type
 11300 ;;                  1    wreg      enum E360
 11301 ;; Registers used:
 11302 ;;		wreg, fsr1l, fsr1h, status,2, status,0, pclath, cstack
 11303 ;; Tracked objects:
 11304 ;;		On entry : 0/0
 11305 ;;		On exit  : 0/0
 11306 ;;		Unchanged: 0/0
 11307 ;; Data sizes:     COMMON   BANK0   BANK1   BANK2   BANK3   BANK4   BANK5   BANK6   BANK7   BANK8   BANK9  BANK10  BANK1
      +1  BANK12
 11308 ;;      Params:         1       0       0       0       0       0       0       0       0       0       0       0       
      +0       0
 11309 ;;      Locals:         0       0       0       0       0       0       0       0       0       0       0       0       
      +0       0
 11310 ;;      Temps:          0       0       0       0       0       0       0       0       0       0       0       0       
      +0       0
 11311 ;;      Totals:         1       0       0       0       0       0       0       0       0       0       0       0       
      +0       0
 11312 ;;Total ram usage:        1 bytes
 11313 ;; Hardware stack levels used: 1
 11314 ;; Hardware stack levels required when called: 2
 11315 ;; This function calls:
 11316 ;;		i1_I2C1_SetBuffer
 11317 ;;		i1_I2C1_SetDataCompleteCallback
 11318 ;; This function is called by:
 11319 ;;		_I2C1_Read1ByteRegister
 11320 ;;		_I2C1_DO_TX
 11321 ;;		_I2C1_DO_RX
 11322 ;;		_I2C1_DO_TX_EMPTY
 11323 ;;		_I2C1_DO_ADDRESS_NACK
 11324 ;;		_I2C1_DO_RX_EMPTY
 11325 ;; This function uses a non-reentrant model
 11326 ;;
 11327                           
 11328  0DC1                     _rd1RegCompleteHandler@i2c1_master_example$F146:	
 11329                           ;psect for function _rd1RegCompleteHandler@i2c1_master_example$F146
 11330                           
 11331  0DC1                     i1l2952:	
 11332                           ;incstack = 0
 11333 ;; hardware stack exceeded
 11334                           ; Regs used in _rd1RegCompleteHandler@i2c1_master_example$F146: [wreg+fsr1l+fsr1h+status
      +                          ,2+status,0+pclath+cstack]
 11335                           
 11336                           
 11337                           ;mcc_generated_files/examples/i2c1_master_example.c: 142: static i2c1_operations_t rd1Re
      +                          gCompleteHandler(void *ptr);mcc_generated_files/examples/i2c1_master_example.c: 143: {;m
      +                          cc_generated_files/examples/i2c1_master_example.c: 144:     I2C1_SetBuffer(ptr,1);
 11338  0DC1  3001               	movlw	1
 11339  0DC2  00F0               	movwf	i1I2C1_SetBuffer@bufferSize
 11340  0DC3  3000               	movlw	0
 11341  0DC4  00F1               	movwf	i1I2C1_SetBuffer@bufferSize+1
 11342  0DC5  0879               	movf	rd1RegCompleteHandler@i2c1_master_example$F146@ptr,w
 11343  0DC6  318D  255C  318D   	fcall	i1_I2C1_SetBuffer
 11344  0DC9                     i1l2954:
 11345                           
 11346                           ;mcc_generated_files/examples/i2c1_master_example.c: 145:     I2C1_SetDataCompleteCallba
      +                          ck(((void*)0),((void*)0));
 11347  0DC9  3000               	movlw	0
 11348  0DCA  00F5               	movwf	i1I2C1_SetDataCompleteCallback@cb
 11349  0DCB  00F6               	movwf	i1I2C1_SetDataCompleteCallback@cb+1
 11350  0DCC  01F7               	clrf	i1I2C1_SetDataCompleteCallback@ptr
 11351  0DCD  318D  2534  318D   	fcall	i1_I2C1_SetDataCompleteCallback
 11352  0DD0                     i1l2956:
 11353                           
 11354                           ;mcc_generated_files/examples/i2c1_master_example.c: 146:     return I2C1_RESTART_READ;
 11355  0DD0  3002               	movlw	2
 11356  0DD1                     i1l189:
 11357  0DD1  0008               	return
 11358  0DD2                     __end_of_rd1RegCompleteHandler@i2c1_master_example$F146:
 11359                           
 11360                           	psect	text75
 11361  0E33                     __ptext75:	
 11362 ;; *************** function _rdBlkRegCompleteHandler *****************
 11363 ;; Defined at:
 11364 ;;		line 185 in file "mcc_generated_files/drivers/i2c_simple_master.c"
 11365 ;; Parameters:    Size  Location     Type
 11366 ;;  p               1    9[COMMON] PTR void 
 11367 ;;		 -> I2C1_ReadDataBlock@bufferBlock(3), I2C1_Write2ByteRegister@data(2), I2C1_Write1ByteRegister@data(1), I2C1_Read2B
      +yteRegister@returnValue(2), 
 11368 ;;		 -> I2C1_Read1ByteRegister@returnValue(1), i2c_readDataBlock@d(3), i2c_write2ByteRegister@data(2), i2c_read2ByteRegi
      +ster@result(2), 
 11369 ;;		 -> i2c_read1ByteRegister@d2(1), i2c_write1ByteRegister@data(1), NULL(0), 
 11370 ;; Auto vars:     Size  Location     Type
 11371 ;;		None
 11372 ;; Return value:  Size  Location     Type
 11373 ;;                  1    wreg      enum E360
 11374 ;; Registers used:
 11375 ;;		wreg, fsr1l, fsr1h, status,2, status,0, pclath, cstack
 11376 ;; Tracked objects:
 11377 ;;		On entry : 0/0
 11378 ;;		On exit  : 0/0
 11379 ;;		Unchanged: 0/0
 11380 ;; Data sizes:     COMMON   BANK0   BANK1   BANK2   BANK3   BANK4   BANK5   BANK6   BANK7   BANK8   BANK9  BANK10  BANK1
      +1  BANK12
 11381 ;;      Params:         1       0       0       0       0       0       0       0       0       0       0       0       
      +0       0
 11382 ;;      Locals:         0       0       0       0       0       0       0       0       0       0       0       0       
      +0       0
 11383 ;;      Temps:          0       0       0       0       0       0       0       0       0       0       0       0       
      +0       0
 11384 ;;      Totals:         1       0       0       0       0       0       0       0       0       0       0       0       
      +0       0
 11385 ;;Total ram usage:        1 bytes
 11386 ;; Hardware stack levels used: 1
 11387 ;; Hardware stack levels required when called: 2
 11388 ;; This function calls:
 11389 ;;		i1_I2C1_SetBuffer
 11390 ;;		i1_I2C1_SetDataCompleteCallback
 11391 ;; This function is called by:
 11392 ;;		_i2c_readDataBlock
 11393 ;;		_I2C1_DO_TX
 11394 ;;		_I2C1_DO_RX
 11395 ;;		_I2C1_DO_TX_EMPTY
 11396 ;;		_I2C1_DO_ADDRESS_NACK
 11397 ;;		_I2C1_DO_RX_EMPTY
 11398 ;; This function uses a non-reentrant model
 11399 ;;
 11400                           
 11401  0E33                     _rdBlkRegCompleteHandler:	
 11402                           ;psect for function _rdBlkRegCompleteHandler
 11403                           
 11404  0E33                     i1l2946:	
 11405                           ;incstack = 0
 11406 ;; hardware stack exceeded
 11407                           ; Regs used in _rdBlkRegCompleteHandler: [wreg+fsr1l+fsr1h+status,2+status,0+pclath+csta
      +                          ck]
 11408                           
 11409                           
 11410                           ;mcc_generated_files/drivers/i2c_simple_master.c: 185: static i2c1_operations_t rdBlkReg
      +                          CompleteHandler(void *p);mcc_generated_files/drivers/i2c_simple_master.c: 186: {;mcc_gen
      +                          erated_files/drivers/i2c_simple_master.c: 187:     I2C1_SetBuffer(((buf_t *)p)->data,((b
      +                          uf_t*)p)->len);
 11411  0E33  0879               	movf	rdBlkRegCompleteHandler@p,w
 11412  0E34  0086               	movwf	6
 11413  0E35  0187               	clrf	7
 11414  0E36  3F40               	moviw [0]fsr1
 11415  0E37  00F0               	movwf	i1I2C1_SetBuffer@bufferSize
 11416  0E38  3F41               	moviw [1]fsr1
 11417  0E39  00F1               	movwf	i1I2C1_SetBuffer@bufferSize+1
 11418  0E3A  0879               	movf	rdBlkRegCompleteHandler@p,w
 11419  0E3B  3E02               	addlw	2
 11420  0E3C  0086               	movwf	6
 11421  0E3D  0187               	clrf	7
 11422  0E3E  0801               	movf	1,w
 11423  0E3F  318D  255C  318E   	fcall	i1_I2C1_SetBuffer
 11424                           
 11425                           ;mcc_generated_files/drivers/i2c_simple_master.c: 188:     I2C1_SetDataCompleteCallback(
      +                          ((void*)0),((void*)0));
 11426  0E42  3000               	movlw	0
 11427  0E43  00F5               	movwf	i1I2C1_SetDataCompleteCallback@cb
 11428  0E44  00F6               	movwf	i1I2C1_SetDataCompleteCallback@cb+1
 11429  0E45  01F7               	clrf	i1I2C1_SetDataCompleteCallback@ptr
 11430  0E46  318D  2534  318E   	fcall	i1_I2C1_SetDataCompleteCallback
 11431  0E49                     i1l2948:
 11432                           
 11433                           ;mcc_generated_files/drivers/i2c_simple_master.c: 189:     return I2C1_RESTART_READ;
 11434  0E49  3002               	movlw	2
 11435  0E4A                     i1l79:
 11436  0E4A  0008               	return
 11437  0E4B                     __end_of_rdBlkRegCompleteHandler:
 11438                           
 11439                           	psect	text76
 11440  0DB0                     __ptext76:	
 11441 ;; *************** function _wr2RegCompleteHandler *****************
 11442 ;; Defined at:
 11443 ;;		line 151 in file "mcc_generated_files/drivers/i2c_simple_master.c"
 11444 ;; Parameters:    Size  Location     Type
 11445 ;;  p               1    9[COMMON] PTR void 
 11446 ;;		 -> I2C1_ReadDataBlock@bufferBlock(3), I2C1_Write2ByteRegister@data(2), I2C1_Write1ByteRegister@data(1), I2C1_Read2B
      +yteRegister@returnValue(2), 
 11447 ;;		 -> I2C1_Read1ByteRegister@returnValue(1), i2c_readDataBlock@d(3), i2c_write2ByteRegister@data(2), i2c_read2ByteRegi
      +ster@result(2), 
 11448 ;;		 -> i2c_read1ByteRegister@d2(1), i2c_write1ByteRegister@data(1), NULL(0), 
 11449 ;; Auto vars:     Size  Location     Type
 11450 ;;		None
 11451 ;; Return value:  Size  Location     Type
 11452 ;;                  1    wreg      enum E360
 11453 ;; Registers used:
 11454 ;;		wreg, fsr1l, fsr1h, status,2, status,0, pclath, cstack
 11455 ;; Tracked objects:
 11456 ;;		On entry : 0/0
 11457 ;;		On exit  : 0/0
 11458 ;;		Unchanged: 0/0
 11459 ;; Data sizes:     COMMON   BANK0   BANK1   BANK2   BANK3   BANK4   BANK5   BANK6   BANK7   BANK8   BANK9  BANK10  BANK1
      +1  BANK12
 11460 ;;      Params:         1       0       0       0       0       0       0       0       0       0       0       0       
      +0       0
 11461 ;;      Locals:         0       0       0       0       0       0       0       0       0       0       0       0       
      +0       0
 11462 ;;      Temps:          0       0       0       0       0       0       0       0       0       0       0       0       
      +0       0
 11463 ;;      Totals:         1       0       0       0       0       0       0       0       0       0       0       0       
      +0       0
 11464 ;;Total ram usage:        1 bytes
 11465 ;; Hardware stack levels used: 1
 11466 ;; Hardware stack levels required when called: 2
 11467 ;; This function calls:
 11468 ;;		i1_I2C1_SetBuffer
 11469 ;;		i1_I2C1_SetDataCompleteCallback
 11470 ;; This function is called by:
 11471 ;;		_i2c_write2ByteRegister
 11472 ;;		_I2C1_DO_TX
 11473 ;;		_I2C1_DO_RX
 11474 ;;		_I2C1_DO_TX_EMPTY
 11475 ;;		_I2C1_DO_ADDRESS_NACK
 11476 ;;		_I2C1_DO_RX_EMPTY
 11477 ;; This function uses a non-reentrant model
 11478 ;;
 11479                           
 11480  0DB0                     _wr2RegCompleteHandler:	
 11481                           ;psect for function _wr2RegCompleteHandler
 11482                           
 11483  0DB0                     i1l2938:	
 11484                           ;incstack = 0
 11485 ;; hardware stack exceeded
 11486                           ; Regs used in _wr2RegCompleteHandler: [wreg+fsr1l+fsr1h+status,2+status,0+pclath+cstack
      +                          ]
 11487                           
 11488                           
 11489                           ;mcc_generated_files/drivers/i2c_simple_master.c: 151: static i2c1_operations_t wr2RegCo
      +                          mpleteHandler(void *p);mcc_generated_files/drivers/i2c_simple_master.c: 152: {;mcc_gener
      +                          ated_files/drivers/i2c_simple_master.c: 153:     I2C1_SetBuffer(p,2);
 11490  0DB0  3002               	movlw	2
 11491  0DB1  00F0               	movwf	i1I2C1_SetBuffer@bufferSize
 11492  0DB2  3000               	movlw	0
 11493  0DB3  00F1               	movwf	i1I2C1_SetBuffer@bufferSize+1
 11494  0DB4  0879               	movf	wr2RegCompleteHandler@p,w
 11495  0DB5  318D  255C  318D   	fcall	i1_I2C1_SetBuffer
 11496  0DB8                     i1l2940:
 11497                           
 11498                           ;mcc_generated_files/drivers/i2c_simple_master.c: 154:     I2C1_SetDataCompleteCallback(
      +                          ((void*)0),((void*)0));
 11499  0DB8  3000               	movlw	0
 11500  0DB9  00F5               	movwf	i1I2C1_SetDataCompleteCallback@cb
 11501  0DBA  00F6               	movwf	i1I2C1_SetDataCompleteCallback@cb+1
 11502  0DBB  01F7               	clrf	i1I2C1_SetDataCompleteCallback@ptr
 11503  0DBC  318D  2534  318D   	fcall	i1_I2C1_SetDataCompleteCallback
 11504  0DBF                     i1l2942:
 11505                           
 11506                           ;mcc_generated_files/drivers/i2c_simple_master.c: 155:     return I2C1_CONTINUE;
 11507  0DBF  3004               	movlw	4
 11508  0DC0                     i1l67:
 11509  0DC0  0008               	return
 11510  0DC1                     __end_of_wr2RegCompleteHandler:
 11511                           
 11512                           	psect	text77
 11513  0D9F                     __ptext77:	
 11514 ;; *************** function _rd2RegCompleteHandler *****************
 11515 ;; Defined at:
 11516 ;;		line 119 in file "mcc_generated_files/drivers/i2c_simple_master.c"
 11517 ;; Parameters:    Size  Location     Type
 11518 ;;  p               1    9[COMMON] PTR void 
 11519 ;;		 -> I2C1_ReadDataBlock@bufferBlock(3), I2C1_Write2ByteRegister@data(2), I2C1_Write1ByteRegister@data(1), I2C1_Read2B
      +yteRegister@returnValue(2), 
 11520 ;;		 -> I2C1_Read1ByteRegister@returnValue(1), i2c_readDataBlock@d(3), i2c_write2ByteRegister@data(2), i2c_read2ByteRegi
      +ster@result(2), 
 11521 ;;		 -> i2c_read1ByteRegister@d2(1), i2c_write1ByteRegister@data(1), NULL(0), 
 11522 ;; Auto vars:     Size  Location     Type
 11523 ;;		None
 11524 ;; Return value:  Size  Location     Type
 11525 ;;                  1    wreg      enum E360
 11526 ;; Registers used:
 11527 ;;		wreg, fsr1l, fsr1h, status,2, status,0, pclath, cstack
 11528 ;; Tracked objects:
 11529 ;;		On entry : 0/0
 11530 ;;		On exit  : 0/0
 11531 ;;		Unchanged: 0/0
 11532 ;; Data sizes:     COMMON   BANK0   BANK1   BANK2   BANK3   BANK4   BANK5   BANK6   BANK7   BANK8   BANK9  BANK10  BANK1
      +1  BANK12
 11533 ;;      Params:         1       0       0       0       0       0       0       0       0       0       0       0       
      +0       0
 11534 ;;      Locals:         0       0       0       0       0       0       0       0       0       0       0       0       
      +0       0
 11535 ;;      Temps:          0       0       0       0       0       0       0       0       0       0       0       0       
      +0       0
 11536 ;;      Totals:         1       0       0       0       0       0       0       0       0       0       0       0       
      +0       0
 11537 ;;Total ram usage:        1 bytes
 11538 ;; Hardware stack levels used: 1
 11539 ;; Hardware stack levels required when called: 2
 11540 ;; This function calls:
 11541 ;;		i1_I2C1_SetBuffer
 11542 ;;		i1_I2C1_SetDataCompleteCallback
 11543 ;; This function is called by:
 11544 ;;		_i2c_read2ByteRegister
 11545 ;;		_I2C1_DO_TX
 11546 ;;		_I2C1_DO_RX
 11547 ;;		_I2C1_DO_TX_EMPTY
 11548 ;;		_I2C1_DO_ADDRESS_NACK
 11549 ;;		_I2C1_DO_RX_EMPTY
 11550 ;; This function uses a non-reentrant model
 11551 ;;
 11552                           
 11553  0D9F                     _rd2RegCompleteHandler:	
 11554                           ;psect for function _rd2RegCompleteHandler
 11555                           
 11556  0D9F                     i1l2930:	
 11557                           ;incstack = 0
 11558 ;; hardware stack exceeded
 11559                           ; Regs used in _rd2RegCompleteHandler: [wreg+fsr1l+fsr1h+status,2+status,0+pclath+cstack
      +                          ]
 11560                           
 11561                           
 11562                           ;mcc_generated_files/drivers/i2c_simple_master.c: 119: static i2c1_operations_t rd2RegCo
      +                          mpleteHandler(void *p);mcc_generated_files/drivers/i2c_simple_master.c: 120: {;mcc_gener
      +                          ated_files/drivers/i2c_simple_master.c: 121:     I2C1_SetBuffer(p,2);
 11563  0D9F  3002               	movlw	2
 11564  0DA0  00F0               	movwf	i1I2C1_SetBuffer@bufferSize
 11565  0DA1  3000               	movlw	0
 11566  0DA2  00F1               	movwf	i1I2C1_SetBuffer@bufferSize+1
 11567  0DA3  0879               	movf	rd2RegCompleteHandler@p,w
 11568  0DA4  318D  255C  318D   	fcall	i1_I2C1_SetBuffer
 11569  0DA7                     i1l2932:
 11570                           
 11571                           ;mcc_generated_files/drivers/i2c_simple_master.c: 122:     I2C1_SetDataCompleteCallback(
      +                          ((void*)0),((void*)0));
 11572  0DA7  3000               	movlw	0
 11573  0DA8  00F5               	movwf	i1I2C1_SetDataCompleteCallback@cb
 11574  0DA9  00F6               	movwf	i1I2C1_SetDataCompleteCallback@cb+1
 11575  0DAA  01F7               	clrf	i1I2C1_SetDataCompleteCallback@ptr
 11576  0DAB  318D  2534  318D   	fcall	i1_I2C1_SetDataCompleteCallback
 11577  0DAE                     i1l2934:
 11578                           
 11579                           ;mcc_generated_files/drivers/i2c_simple_master.c: 123:     return I2C1_RESTART_READ;
 11580  0DAE  3002               	movlw	2
 11581  0DAF                     i1l55:
 11582  0DAF  0008               	return
 11583  0DB0                     __end_of_rd2RegCompleteHandler:
 11584                           
 11585                           	psect	text78
 11586  0D8E                     __ptext78:	
 11587 ;; *************** function _rd1RegCompleteHandler *****************
 11588 ;; Defined at:
 11589 ;;		line 81 in file "mcc_generated_files/drivers/i2c_simple_master.c"
 11590 ;; Parameters:    Size  Location     Type
 11591 ;;  p               1    9[COMMON] PTR void 
 11592 ;;		 -> I2C1_ReadDataBlock@bufferBlock(3), I2C1_Write2ByteRegister@data(2), I2C1_Write1ByteRegister@data(1), I2C1_Read2B
      +yteRegister@returnValue(2), 
 11593 ;;		 -> I2C1_Read1ByteRegister@returnValue(1), i2c_readDataBlock@d(3), i2c_write2ByteRegister@data(2), i2c_read2ByteRegi
      +ster@result(2), 
 11594 ;;		 -> i2c_read1ByteRegister@d2(1), i2c_write1ByteRegister@data(1), NULL(0), 
 11595 ;; Auto vars:     Size  Location     Type
 11596 ;;		None
 11597 ;; Return value:  Size  Location     Type
 11598 ;;                  1    wreg      enum E360
 11599 ;; Registers used:
 11600 ;;		wreg, fsr1l, fsr1h, status,2, status,0, pclath, cstack
 11601 ;; Tracked objects:
 11602 ;;		On entry : 0/0
 11603 ;;		On exit  : 0/0
 11604 ;;		Unchanged: 0/0
 11605 ;; Data sizes:     COMMON   BANK0   BANK1   BANK2   BANK3   BANK4   BANK5   BANK6   BANK7   BANK8   BANK9  BANK10  BANK1
      +1  BANK12
 11606 ;;      Params:         1       0       0       0       0       0       0       0       0       0       0       0       
      +0       0
 11607 ;;      Locals:         0       0       0       0       0       0       0       0       0       0       0       0       
      +0       0
 11608 ;;      Temps:          0       0       0       0       0       0       0       0       0       0       0       0       
      +0       0
 11609 ;;      Totals:         1       0       0       0       0       0       0       0       0       0       0       0       
      +0       0
 11610 ;;Total ram usage:        1 bytes
 11611 ;; Hardware stack levels used: 1
 11612 ;; Hardware stack levels required when called: 2
 11613 ;; This function calls:
 11614 ;;		i1_I2C1_SetBuffer
 11615 ;;		i1_I2C1_SetDataCompleteCallback
 11616 ;; This function is called by:
 11617 ;;		_i2c_read1ByteRegister
 11618 ;;		_I2C1_DO_TX
 11619 ;;		_I2C1_DO_RX
 11620 ;;		_I2C1_DO_TX_EMPTY
 11621 ;;		_I2C1_DO_ADDRESS_NACK
 11622 ;;		_I2C1_DO_RX_EMPTY
 11623 ;; This function uses a non-reentrant model
 11624 ;;
 11625                           
 11626  0D8E                     _rd1RegCompleteHandler:	
 11627                           ;psect for function _rd1RegCompleteHandler
 11628                           
 11629  0D8E                     i1l2922:	
 11630                           ;incstack = 0
 11631 ;; hardware stack exceeded
 11632                           ; Regs used in _rd1RegCompleteHandler: [wreg+fsr1l+fsr1h+status,2+status,0+pclath+cstack
      +                          ]
 11633                           
 11634                           
 11635                           ;mcc_generated_files/drivers/i2c_simple_master.c: 81: static i2c1_operations_t rd1RegCom
      +                          pleteHandler(void *p);mcc_generated_files/drivers/i2c_simple_master.c: 82: {;mcc_generat
      +                          ed_files/drivers/i2c_simple_master.c: 83:     I2C1_SetBuffer(p,1);
 11636  0D8E  3001               	movlw	1
 11637  0D8F  00F0               	movwf	i1I2C1_SetBuffer@bufferSize
 11638  0D90  3000               	movlw	0
 11639  0D91  00F1               	movwf	i1I2C1_SetBuffer@bufferSize+1
 11640  0D92  0879               	movf	rd1RegCompleteHandler@p,w
 11641  0D93  318D  255C  318D   	fcall	i1_I2C1_SetBuffer
 11642  0D96                     i1l2924:
 11643                           
 11644                           ;mcc_generated_files/drivers/i2c_simple_master.c: 84:     I2C1_SetDataCompleteCallback((
      +                          (void*)0),((void*)0));
 11645  0D96  3000               	movlw	0
 11646  0D97  00F5               	movwf	i1I2C1_SetDataCompleteCallback@cb
 11647  0D98  00F6               	movwf	i1I2C1_SetDataCompleteCallback@cb+1
 11648  0D99  01F7               	clrf	i1I2C1_SetDataCompleteCallback@ptr
 11649  0D9A  318D  2534  318D   	fcall	i1_I2C1_SetDataCompleteCallback
 11650  0D9D                     i1l2926:
 11651                           
 11652                           ;mcc_generated_files/drivers/i2c_simple_master.c: 85:     return I2C1_RESTART_READ;
 11653  0D9D  3002               	movlw	2
 11654  0D9E                     i1l40:
 11655  0D9E  0008               	return
 11656  0D9F                     __end_of_rd1RegCompleteHandler:
 11657                           
 11658                           	psect	text79
 11659  0D7D                     __ptext79:	
 11660 ;; *************** function _wr1RegCompleteHandler *****************
 11661 ;; Defined at:
 11662 ;;		line 34 in file "mcc_generated_files/drivers/i2c_simple_master.c"
 11663 ;; Parameters:    Size  Location     Type
 11664 ;;  p               1    9[COMMON] PTR void 
 11665 ;;		 -> I2C1_ReadDataBlock@bufferBlock(3), I2C1_Write2ByteRegister@data(2), I2C1_Write1ByteRegister@data(1), I2C1_Read2B
      +yteRegister@returnValue(2), 
 11666 ;;		 -> I2C1_Read1ByteRegister@returnValue(1), i2c_readDataBlock@d(3), i2c_write2ByteRegister@data(2), i2c_read2ByteRegi
      +ster@result(2), 
 11667 ;;		 -> i2c_read1ByteRegister@d2(1), i2c_write1ByteRegister@data(1), NULL(0), 
 11668 ;; Auto vars:     Size  Location     Type
 11669 ;;		None
 11670 ;; Return value:  Size  Location     Type
 11671 ;;                  1    wreg      enum E360
 11672 ;; Registers used:
 11673 ;;		wreg, fsr1l, fsr1h, status,2, status,0, pclath, cstack
 11674 ;; Tracked objects:
 11675 ;;		On entry : 0/0
 11676 ;;		On exit  : 0/0
 11677 ;;		Unchanged: 0/0
 11678 ;; Data sizes:     COMMON   BANK0   BANK1   BANK2   BANK3   BANK4   BANK5   BANK6   BANK7   BANK8   BANK9  BANK10  BANK1
      +1  BANK12
 11679 ;;      Params:         1       0       0       0       0       0       0       0       0       0       0       0       
      +0       0
 11680 ;;      Locals:         0       0       0       0       0       0       0       0       0       0       0       0       
      +0       0
 11681 ;;      Temps:          0       0       0       0       0       0       0       0       0       0       0       0       
      +0       0
 11682 ;;      Totals:         1       0       0       0       0       0       0       0       0       0       0       0       
      +0       0
 11683 ;;Total ram usage:        1 bytes
 11684 ;; Hardware stack levels used: 1
 11685 ;; Hardware stack levels required when called: 2
 11686 ;; This function calls:
 11687 ;;		i1_I2C1_SetBuffer
 11688 ;;		i1_I2C1_SetDataCompleteCallback
 11689 ;; This function is called by:
 11690 ;;		_i2c_write1ByteRegister
 11691 ;;		_I2C1_DO_TX
 11692 ;;		_I2C1_DO_RX
 11693 ;;		_I2C1_DO_TX_EMPTY
 11694 ;;		_I2C1_DO_ADDRESS_NACK
 11695 ;;		_I2C1_DO_RX_EMPTY
 11696 ;; This function uses a non-reentrant model
 11697 ;;
 11698                           
 11699  0D7D                     _wr1RegCompleteHandler:	
 11700                           ;psect for function _wr1RegCompleteHandler
 11701                           
 11702  0D7D                     i1l2914:	
 11703                           ;incstack = 0
 11704 ;; hardware stack exceeded
 11705                           ; Regs used in _wr1RegCompleteHandler: [wreg+fsr1l+fsr1h+status,2+status,0+pclath+cstack
      +                          ]
 11706                           
 11707                           
 11708                           ;mcc_generated_files/drivers/i2c_simple_master.c: 34: static i2c1_operations_t wr1RegCom
      +                          pleteHandler(void *p);mcc_generated_files/drivers/i2c_simple_master.c: 35: {;mcc_generat
      +                          ed_files/drivers/i2c_simple_master.c: 36:     I2C1_SetBuffer(p,1);
 11709  0D7D  3001               	movlw	1
 11710  0D7E  00F0               	movwf	i1I2C1_SetBuffer@bufferSize
 11711  0D7F  3000               	movlw	0
 11712  0D80  00F1               	movwf	i1I2C1_SetBuffer@bufferSize+1
 11713  0D81  0879               	movf	wr1RegCompleteHandler@p,w
 11714  0D82  318D  255C  318D   	fcall	i1_I2C1_SetBuffer
 11715  0D85                     i1l2916:
 11716                           
 11717                           ;mcc_generated_files/drivers/i2c_simple_master.c: 37:     I2C1_SetDataCompleteCallback((
      +                          (void*)0),((void*)0));
 11718  0D85  3000               	movlw	0
 11719  0D86  00F5               	movwf	i1I2C1_SetDataCompleteCallback@cb
 11720  0D87  00F6               	movwf	i1I2C1_SetDataCompleteCallback@cb+1
 11721  0D88  01F7               	clrf	i1I2C1_SetDataCompleteCallback@ptr
 11722  0D89  318D  2534  318D   	fcall	i1_I2C1_SetDataCompleteCallback
 11723  0D8C                     i1l2918:
 11724                           
 11725                           ;mcc_generated_files/drivers/i2c_simple_master.c: 38:     return I2C1_CONTINUE;
 11726  0D8C  3004               	movlw	4
 11727  0D8D                     i1l19:
 11728  0D8D  0008               	return
 11729  0D8E                     __end_of_wr1RegCompleteHandler:
 11730                           
 11731                           	psect	text80
 11732  0D6C                     __ptext80:	
 11733 ;; *************** function _wr2RegCompleteHandler@i2c1_master_example$F169 *****************
 11734 ;; Defined at:
 11735 ;;		line 163 in file "mcc_generated_files/examples/i2c1_master_example.c"
 11736 ;; Parameters:    Size  Location     Type
 11737 ;;  ptr             1    9[COMMON] PTR void 
 11738 ;;		 -> I2C1_ReadDataBlock@bufferBlock(3), I2C1_Write2ByteRegister@data(2), I2C1_Write1ByteRegister@data(1), I2C1_Read2B
      +yteRegister@returnValue(2), 
 11739 ;;		 -> I2C1_Read1ByteRegister@returnValue(1), i2c_readDataBlock@d(3), i2c_write2ByteRegister@data(2), i2c_read2ByteRegi
      +ster@result(2), 
 11740 ;;		 -> i2c_read1ByteRegister@d2(1), i2c_write1ByteRegister@data(1), NULL(0), 
 11741 ;; Auto vars:     Size  Location     Type
 11742 ;;		None
 11743 ;; Return value:  Size  Location     Type
 11744 ;;                  1    wreg      enum E360
 11745 ;; Registers used:
 11746 ;;		wreg, fsr1l, fsr1h, status,2, status,0, pclath, cstack
 11747 ;; Tracked objects:
 11748 ;;		On entry : 0/0
 11749 ;;		On exit  : 0/0
 11750 ;;		Unchanged: 0/0
 11751 ;; Data sizes:     COMMON   BANK0   BANK1   BANK2   BANK3   BANK4   BANK5   BANK6   BANK7   BANK8   BANK9  BANK10  BANK1
      +1  BANK12
 11752 ;;      Params:         1       0       0       0       0       0       0       0       0       0       0       0       
      +0       0
 11753 ;;      Locals:         0       0       0       0       0       0       0       0       0       0       0       0       
      +0       0
 11754 ;;      Temps:          0       0       0       0       0       0       0       0       0       0       0       0       
      +0       0
 11755 ;;      Totals:         1       0       0       0       0       0       0       0       0       0       0       0       
      +0       0
 11756 ;;Total ram usage:        1 bytes
 11757 ;; Hardware stack levels used: 1
 11758 ;; Hardware stack levels required when called: 2
 11759 ;; This function calls:
 11760 ;;		i1_I2C1_SetBuffer
 11761 ;;		i1_I2C1_SetDataCompleteCallback
 11762 ;; This function is called by:
 11763 ;;		_I2C1_Write2ByteRegister
 11764 ;;		_I2C1_DO_TX
 11765 ;;		_I2C1_DO_RX
 11766 ;;		_I2C1_DO_TX_EMPTY
 11767 ;;		_I2C1_DO_ADDRESS_NACK
 11768 ;;		_I2C1_DO_RX_EMPTY
 11769 ;; This function uses a non-reentrant model
 11770 ;;
 11771                           
 11772  0D6C                     _wr2RegCompleteHandler@i2c1_master_example$F169:	
 11773                           ;psect for function _wr2RegCompleteHandler@i2c1_master_example$F169
 11774                           
 11775  0D6C                     i1l2976:	
 11776                           ;incstack = 0
 11777 ;; hardware stack exceeded
 11778                           ; Regs used in _wr2RegCompleteHandler@i2c1_master_example$F169: [wreg+fsr1l+fsr1h+status
      +                          ,2+status,0+pclath+cstack]
 11779                           
 11780                           
 11781                           ;mcc_generated_files/examples/i2c1_master_example.c: 163: static i2c1_operations_t wr2Re
      +                          gCompleteHandler(void *ptr);mcc_generated_files/examples/i2c1_master_example.c: 164: {;m
      +                          cc_generated_files/examples/i2c1_master_example.c: 165:     I2C1_SetBuffer(ptr,2);
 11782  0D6C  3002               	movlw	2
 11783  0D6D  00F0               	movwf	i1I2C1_SetBuffer@bufferSize
 11784  0D6E  3000               	movlw	0
 11785  0D6F  00F1               	movwf	i1I2C1_SetBuffer@bufferSize+1
 11786  0D70  0879               	movf	wr2RegCompleteHandler@i2c1_master_example$F169@ptr,w
 11787  0D71  318D  255C  318D   	fcall	i1_I2C1_SetBuffer
 11788  0D74                     i1l2978:
 11789                           
 11790                           ;mcc_generated_files/examples/i2c1_master_example.c: 166:     I2C1_SetDataCompleteCallba
      +                          ck(((void*)0),((void*)0));
 11791  0D74  3000               	movlw	0
 11792  0D75  00F5               	movwf	i1I2C1_SetDataCompleteCallback@cb
 11793  0D76  00F6               	movwf	i1I2C1_SetDataCompleteCallback@cb+1
 11794  0D77  01F7               	clrf	i1I2C1_SetDataCompleteCallback@ptr
 11795  0D78  318D  2534  318D   	fcall	i1_I2C1_SetDataCompleteCallback
 11796  0D7B                     i1l2980:
 11797                           
 11798                           ;mcc_generated_files/examples/i2c1_master_example.c: 167:     return I2C1_CONTINUE;
 11799  0D7B  3004               	movlw	4
 11800  0D7C                     i1l198:
 11801  0D7C  0008               	return
 11802  0D7D                     __end_of_wr2RegCompleteHandler@i2c1_master_example$F169:
 11803                           
 11804                           	psect	text81
 11805  0D34                     __ptext81:	
 11806 ;; *************** function i1_I2C1_SetDataCompleteCallback *****************
 11807 ;; Defined at:
 11808 ;;		line 274 in file "mcc_generated_files/i2c1_master.c"
 11809 ;; Parameters:    Size  Location     Type
 11810 ;;  cb              2    5[COMMON] PTR FTN(PTR void ,)enum 
 11811 ;;		 -> Absolute function(1), rdBlkRegCompleteHandler@i2c1_master_example$F180(1), wr2RegCompleteHandler@i2c1_master_exa
      +mple$F169(1), wr1RegCompleteHandler@i2c1_master_example$F163(1), 
 11812 ;;		 -> rd2RegCompleteHandler@i2c1_master_example$F157(1), rd1RegCompleteHandler@i2c1_master_example$F146(1), rdBlkRegCo
      +mpleteHandler(1), wr2RegCompleteHandler(1), 
 11813 ;;		 -> rd2RegCompleteHandler(1), rd1RegCompleteHandler(1), wr1RegCompleteHandler(1), 
 11814 ;;  ptr             1    7[COMMON] PTR void 
 11815 ;;		 -> I2C1_ReadDataBlock@bufferBlock(3), I2C1_Write2ByteRegister@data(2), I2C1_Write1ByteRegister@data(1), I2C1_Read2B
      +yteRegister@returnValue(2), 
 11816 ;;		 -> I2C1_Read1ByteRegister@returnValue(1), i2c_readDataBlock@d(3), i2c_write2ByteRegister@data(2), i2c_read2ByteRegi
      +ster@result(2), 
 11817 ;;		 -> i2c_read1ByteRegister@d2(1), i2c_write1ByteRegister@data(1), NULL(0), 
 11818 ;; Auto vars:     Size  Location     Type
 11819 ;;		None
 11820 ;; Return value:  Size  Location     Type
 11821 ;;                  1    wreg      void 
 11822 ;; Registers used:
 11823 ;;		wreg, fsr1l, fsr1h, status,2, status,0, pclath, cstack
 11824 ;; Tracked objects:
 11825 ;;		On entry : 0/0
 11826 ;;		On exit  : 0/0
 11827 ;;		Unchanged: 0/0
 11828 ;; Data sizes:     COMMON   BANK0   BANK1   BANK2   BANK3   BANK4   BANK5   BANK6   BANK7   BANK8   BANK9  BANK10  BANK1
      +1  BANK12
 11829 ;;      Params:         3       0       0       0       0       0       0       0       0       0       0       0       
      +0       0
 11830 ;;      Locals:         0       0       0       0       0       0       0       0       0       0       0       0       
      +0       0
 11831 ;;      Temps:          1       0       0       0       0       0       0       0       0       0       0       0       
      +0       0
 11832 ;;      Totals:         4       0       0       0       0       0       0       0       0       0       0       0       
      +0       0
 11833 ;;Total ram usage:        4 bytes
 11834 ;; Hardware stack levels used: 1
 11835 ;; Hardware stack levels required when called: 1
 11836 ;; This function calls:
 11837 ;;		i1_I2C1_SetCallback
 11838 ;; This function is called by:
 11839 ;;		_wr1RegCompleteHandler
 11840 ;;		_rd1RegCompleteHandler
 11841 ;;		_rd2RegCompleteHandler
 11842 ;;		_wr2RegCompleteHandler
 11843 ;;		_rdBlkRegCompleteHandler
 11844 ;;		_rd1RegCompleteHandler@i2c1_master_example$F146
 11845 ;;		_rd2RegCompleteHandler@i2c1_master_example$F157
 11846 ;;		_wr1RegCompleteHandler@i2c1_master_example$F163
 11847 ;;		_wr2RegCompleteHandler@i2c1_master_example$F169
 11848 ;;		_rdBlkRegCompleteHandler@i2c1_master_example$F180
 11849 ;; This function uses a non-reentrant model
 11850 ;;
 11851                           
 11852  0D34                     i1_I2C1_SetDataCompleteCallback:	
 11853                           ;psect for function i1_I2C1_SetDataCompleteCallback
 11854                           
 11855  0D34                     i1l2912:	
 11856                           ;incstack = 0
 11857 ;; hardware stack exceeded
 11858                           ; Regs used in i1_I2C1_SetDataCompleteCallback: [wreg+fsr1l+fsr1h+status,2+status,0+pcla
      +                          th+cstack]
 11859                           
 11860                           
 11861                           ;mcc_generated_files/i2c1_master.c: 274: void I2C1_SetDataCompleteCallback(i2c1_callback
      +                          _t cb, void *ptr);mcc_generated_files/i2c1_master.c: 275: {;mcc_generated_files/i2c1_mas
      +                          ter.c: 276:     I2C1_SetCallback(I2C1_DATA_COMPLETE, cb, ptr);
 11862  0D34  0876               	movf	i1I2C1_SetDataCompleteCallback@cb+1,w
 11863  0D35  00F1               	movwf	i1I2C1_SetCallback@cb+1
 11864  0D36  0875               	movf	i1I2C1_SetDataCompleteCallback@cb,w
 11865  0D37  00F0               	movwf	i1I2C1_SetCallback@cb
 11866  0D38  0877               	movf	i1I2C1_SetDataCompleteCallback@ptr,w
 11867  0D39  00F8               	movwf	??i1_I2C1_SetDataCompleteCallback
 11868  0D3A  0878               	movf	??i1_I2C1_SetDataCompleteCallback,w
 11869  0D3B  00F2               	movwf	i1I2C1_SetCallback@ptr
 11870  0D3C  3000               	movlw	0
 11871  0D3D  318E  26DB  318D   	fcall	i1_I2C1_SetCallback
 11872  0D40                     i1l569:
 11873  0D40  0008               	return
 11874  0D41                     __end_ofi1_I2C1_SetDataCompleteCallback:
 11875                           
 11876                           	psect	text82
 11877  0EDB                     __ptext82:	
 11878 ;; *************** function i1_I2C1_SetCallback *****************
 11879 ;; Defined at:
 11880 ;;		line 304 in file "mcc_generated_files/i2c1_master.c"
 11881 ;; Parameters:    Size  Location     Type
 11882 ;;  idx             1    wreg     enum E7068
 11883 ;;  cb              2    0[COMMON] PTR FTN(PTR void ,)enum 
 11884 ;;		 -> Absolute function(1), rdBlkRegCompleteHandler@i2c1_master_example$F180(1), wr2RegCompleteHandler@i2c1_master_exa
      +mple$F169(1), wr1RegCompleteHandler@i2c1_master_example$F163(1), 
 11885 ;;		 -> rd2RegCompleteHandler@i2c1_master_example$F157(1), rd1RegCompleteHandler@i2c1_master_example$F146(1), rdBlkRegCo
      +mpleteHandler(1), wr2RegCompleteHandler(1), 
 11886 ;;		 -> rd2RegCompleteHandler(1), rd1RegCompleteHandler(1), wr1RegCompleteHandler(1), 
 11887 ;;  ptr             1    2[COMMON] PTR void 
 11888 ;;		 -> I2C1_ReadDataBlock@bufferBlock(3), I2C1_Write2ByteRegister@data(2), I2C1_Write1ByteRegister@data(1), I2C1_Read2B
      +yteRegister@returnValue(2), 
 11889 ;;		 -> I2C1_Read1ByteRegister@returnValue(1), i2c_readDataBlock@d(3), i2c_write2ByteRegister@data(2), i2c_read2ByteRegi
      +ster@result(2), 
 11890 ;;		 -> i2c_read1ByteRegister@d2(1), i2c_write1ByteRegister@data(1), NULL(0), 
 11891 ;; Auto vars:     Size  Location     Type
 11892 ;;  idx             1    4[COMMON] enum E7068
 11893 ;; Return value:  Size  Location     Type
 11894 ;;                  1    wreg      void 
 11895 ;; Registers used:
 11896 ;;		wreg, fsr1l, fsr1h, status,2, status,0
 11897 ;; Tracked objects:
 11898 ;;		On entry : 0/0
 11899 ;;		On exit  : 0/0
 11900 ;;		Unchanged: 0/0
 11901 ;; Data sizes:     COMMON   BANK0   BANK1   BANK2   BANK3   BANK4   BANK5   BANK6   BANK7   BANK8   BANK9  BANK10  BANK1
      +1  BANK12
 11902 ;;      Params:         3       0       0       0       0       0       0       0       0       0       0       0       
      +0       0
 11903 ;;      Locals:         1       0       0       0       0       0       0       0       0       0       0       0       
      +0       0
 11904 ;;      Temps:          1       0       0       0       0       0       0       0       0       0       0       0       
      +0       0
 11905 ;;      Totals:         5       0       0       0       0       0       0       0       0       0       0       0       
      +0       0
 11906 ;;Total ram usage:        5 bytes
 11907 ;; Hardware stack levels used: 1
 11908 ;; This function calls:
 11909 ;;		Nothing
 11910 ;; This function is called by:
 11911 ;;		i1_I2C1_SetDataCompleteCallback
 11912 ;; This function uses a non-reentrant model
 11913 ;;
 11914                           
 11915  0EDB                     i1_I2C1_SetCallback:	
 11916                           ;psect for function i1_I2C1_SetCallback
 11917                           
 11918                           
 11919                           ;incstack = 0
 11920 ;; hardware stack exceeded
 11921                           ; Regs used in i1_I2C1_SetCallback: [wreg+fsr1l+fsr1h+status,2+status,0]
 11922                           ;i1I2C1_SetCallback@idx stored from wreg
 11923  0EDB  00F4               	movwf	i1I2C1_SetCallback@idx
 11924  0EDC                     i1l2834:
 11925                           
 11926                           ;mcc_generated_files/i2c1_master.c: 304: static void I2C1_SetCallback(i2c1_callbackIndex
      +                          _t idx, i2c1_callback_t cb, void *ptr);mcc_generated_files/i2c1_master.c: 305: {;mcc_gen
      +                          erated_files/i2c1_master.c: 306:     if(cb)
 11927  0EDC  0870               	movf	i1I2C1_SetCallback@cb,w
 11928  0EDD  0471               	iorwf	i1I2C1_SetCallback@cb+1,w
 11929  0EDE  1903               	btfsc	3,2
 11930  0EDF  2EE1               	goto	u143_21
 11931  0EE0  2EE2               	goto	u143_20
 11932  0EE1                     u143_21:
 11933  0EE1  2EF3               	goto	i1l2838
 11934  0EE2                     u143_20:
 11935  0EE2                     i1l2836:
 11936                           
 11937                           ;mcc_generated_files/i2c1_master.c: 307:     {;mcc_generated_files/i2c1_master.c: 308:  
      +                                 I2C1_Status.callbackTable[idx] = cb;
 11938  0EE2  3574               	lslf	i1I2C1_SetCallback@idx,w
 11939  0EE3  3EA0               	addlw	(low (_I2C1_Status| 0))& (0+255)
 11940  0EE4  0086               	movwf	6
 11941  0EE5  0187               	clrf	7
 11942  0EE6  0870               	movf	i1I2C1_SetCallback@cb,w
 11943  0EE7  3FC0               	movwi [0]fsr1
 11944  0EE8  0871               	movf	i1I2C1_SetCallback@cb+1,w
 11945  0EE9  3FC1               	movwi [1]fsr1
 11946                           
 11947                           ;mcc_generated_files/i2c1_master.c: 309:         I2C1_Status.callbackPayload[idx] = ptr;
 11948  0EEA  0872               	movf	i1I2C1_SetCallback@ptr,w
 11949  0EEB  00F3               	movwf	??i1_I2C1_SetCallback
 11950  0EEC  0874               	movf	i1I2C1_SetCallback@idx,w
 11951  0EED  3EAC               	addlw	(low ((_I2C1_Status| 0+12)))& (0+255)
 11952  0EEE  0086               	movwf	6
 11953  0EEF  0187               	clrf	7
 11954  0EF0  0873               	movf	??i1_I2C1_SetCallback,w
 11955  0EF1  0081               	movwf	1
 11956                           
 11957                           ;mcc_generated_files/i2c1_master.c: 310:     }
 11958  0EF2  2F00               	goto	i1l589
 11959  0EF3                     i1l2838:
 11960                           
 11961                           ;mcc_generated_files/i2c1_master.c: 312:     {;mcc_generated_files/i2c1_master.c: 313:  
      +                                 I2C1_Status.callbackTable[idx] = I2C1_CallbackReturnStop;
 11962  0EF3  3574               	lslf	i1I2C1_SetCallback@idx,w
 11963  0EF4  3EA0               	addlw	(low (_I2C1_Status| 0))& (0+255)
 11964  0EF5  0086               	movwf	6
 11965  0EF6  0187               	clrf	7
 11966  0EF7  3057               	movlw	low _I2C1_CallbackReturnStop
 11967  0EF8  3FC0               	movwi [0]fsr1
 11968  0EF9  300C               	movlw	high _I2C1_CallbackReturnStop
 11969  0EFA  3FC1               	movwi [1]fsr1
 11970                           
 11971                           ;mcc_generated_files/i2c1_master.c: 314:         I2C1_Status.callbackPayload[idx] = ((vo
      +                          id*)0);
 11972  0EFB  0874               	movf	i1I2C1_SetCallback@idx,w
 11973  0EFC  3EAC               	addlw	(low ((_I2C1_Status| 0+12)))& (0+255)
 11974  0EFD  0086               	movwf	6
 11975  0EFE  0187               	clrf	7
 11976  0EFF  0181               	clrf	1
 11977  0F00                     i1l589:
 11978  0F00  0008               	return
 11979  0F01                     __end_ofi1_I2C1_SetCallback:
 11980                           
 11981                           	psect	text83
 11982  0D5C                     __ptext83:	
 11983 ;; *************** function i1_I2C1_SetBuffer *****************
 11984 ;; Defined at:
 11985 ;;		line 264 in file "mcc_generated_files/i2c1_master.c"
 11986 ;; Parameters:    Size  Location     Type
 11987 ;;  buffer          1    wreg     PTR void 
 11988 ;;		 -> i2c_write1ByteRegister@data.data(2), i2c_read1ByteRegister@d2.data(2), i2c_read2ByteRegister@result.data(2), i2c
      +_write2ByteRegister@data.data(2), 
 11989 ;;		 -> I2C1_Read1ByteRegister@returnValue.data(2), I2C1_Read2ByteRegister@returnValue.data(2), I2C1_Write1ByteRegister@
      +data.data(2), I2C1_Write2ByteRegister@data.data(2), 
 11990 ;;		 -> I2C1_ReadDataBlock@reg(1), I2C1_ReadDataBlock@bufferBlock(3), bufferBlock.data(2), I2C1_Write2ByteRegister@reg(1
      +), 
 11991 ;;		 -> I2C1_Write2ByteRegister@data(2), I2C1_Write1ByteRegister@reg(1), I2C1_Write1ByteRegister@data(1), I2C1_Read2Byte
      +Register@reg(1), 
 11992 ;;		 -> I2C1_Read2ByteRegister@returnValue(2), I2C1_Read1ByteRegister@reg(1), I2C1_Read1ByteRegister@returnValue(1), i2c
      +_readDataBlock@reg(1), 
 11993 ;;		 -> i2c_readDataBlock@d(3), d.data(2), i2c_write2ByteRegister@reg(1), i2c_write2ByteRegister@data(2), 
 11994 ;;		 -> i2c_read2ByteRegister@reg(1), i2c_read2ByteRegister@result(2), i2c_read1ByteRegister@reg(1), i2c_read1ByteRegist
      +er@d2(1), 
 11995 ;;		 -> i2c_write1ByteRegister@reg(1), i2c_write1ByteRegister@data(1), NULL(0), 
 11996 ;;  bufferSize      2    0[COMMON] unsigned int 
 11997 ;; Auto vars:     Size  Location     Type
 11998 ;;  buffer          1    3[COMMON] PTR void 
 11999 ;;		 -> i2c_write1ByteRegister@data.data(2), i2c_read1ByteRegister@d2.data(2), i2c_read2ByteRegister@result.data(2), i2c
      +_write2ByteRegister@data.data(2), 
 12000 ;;		 -> I2C1_Read1ByteRegister@returnValue.data(2), I2C1_Read2ByteRegister@returnValue.data(2), I2C1_Write1ByteRegister@
      +data.data(2), I2C1_Write2ByteRegister@data.data(2), 
 12001 ;;		 -> I2C1_ReadDataBlock@reg(1), I2C1_ReadDataBlock@bufferBlock(3), bufferBlock.data(2), I2C1_Write2ByteRegister@reg(1
      +), 
 12002 ;;		 -> I2C1_Write2ByteRegister@data(2), I2C1_Write1ByteRegister@reg(1), I2C1_Write1ByteRegister@data(1), I2C1_Read2Byte
      +Register@reg(1), 
 12003 ;;		 -> I2C1_Read2ByteRegister@returnValue(2), I2C1_Read1ByteRegister@reg(1), I2C1_Read1ByteRegister@returnValue(1), i2c
      +_readDataBlock@reg(1), 
 12004 ;;		 -> i2c_readDataBlock@d(3), d.data(2), i2c_write2ByteRegister@reg(1), i2c_write2ByteRegister@data(2), 
 12005 ;;		 -> i2c_read2ByteRegister@reg(1), i2c_read2ByteRegister@result(2), i2c_read1ByteRegister@reg(1), i2c_read1ByteRegist
      +er@d2(1), 
 12006 ;;		 -> i2c_write1ByteRegister@reg(1), i2c_write1ByteRegister@data(1), NULL(0), 
 12007 ;; Return value:  Size  Location     Type
 12008 ;;                  1    wreg      void 
 12009 ;; Registers used:
 12010 ;;		wreg
 12011 ;; Tracked objects:
 12012 ;;		On entry : 0/0
 12013 ;;		On exit  : 0/0
 12014 ;;		Unchanged: 0/0
 12015 ;; Data sizes:     COMMON   BANK0   BANK1   BANK2   BANK3   BANK4   BANK5   BANK6   BANK7   BANK8   BANK9  BANK10  BANK1
      +1  BANK12
 12016 ;;      Params:         2       0       0       0       0       0       0       0       0       0       0       0       
      +0       0
 12017 ;;      Locals:         1       0       0       0       0       0       0       0       0       0       0       0       
      +0       0
 12018 ;;      Temps:          1       0       0       0       0       0       0       0       0       0       0       0       
      +0       0
 12019 ;;      Totals:         4       0       0       0       0       0       0       0       0       0       0       0       
      +0       0
 12020 ;;Total ram usage:        4 bytes
 12021 ;; Hardware stack levels used: 1
 12022 ;; This function calls:
 12023 ;;		Nothing
 12024 ;; This function is called by:
 12025 ;;		_wr1RegCompleteHandler
 12026 ;;		_rd1RegCompleteHandler
 12027 ;;		_rd2RegCompleteHandler
 12028 ;;		_wr2RegCompleteHandler
 12029 ;;		_rdBlkRegCompleteHandler
 12030 ;;		_rd1RegCompleteHandler@i2c1_master_example$F146
 12031 ;;		_rd2RegCompleteHandler@i2c1_master_example$F157
 12032 ;;		_wr1RegCompleteHandler@i2c1_master_example$F163
 12033 ;;		_wr2RegCompleteHandler@i2c1_master_example$F169
 12034 ;;		_rdBlkRegCompleteHandler@i2c1_master_example$F180
 12035 ;; This function uses a non-reentrant model
 12036 ;;
 12037                           
 12038  0D5C                     i1_I2C1_SetBuffer:	
 12039                           ;psect for function i1_I2C1_SetBuffer
 12040                           
 12041                           
 12042                           ;incstack = 0
 12043                           ; Regs used in i1_I2C1_SetBuffer: [wreg]
 12044                           ;i1I2C1_SetBuffer@buffer stored from wreg
 12045  0D5C  00F3               	movwf	i1I2C1_SetBuffer@buffer
 12046  0D5D                     i1l2906:
 12047                           
 12048                           ;mcc_generated_files/i2c1_master.c: 264: void I2C1_SetBuffer(void *buffer, size_t buffer
      +                          Size);mcc_generated_files/i2c1_master.c: 265: {;mcc_generated_files/i2c1_master.c: 266: 
      +                              if(I2C1_Status.bufferFree)
 12049  0D5D  0021               	movlb	1	; select bank1
 12050  0D5E  1DBC               	btfss	(_I2C1_Status^(0+128)+28),3
 12051  0D5F  2D61               	goto	u160_21
 12052  0D60  2D62               	goto	u160_20
 12053  0D61                     u160_21:
 12054  0D61  2D6B               	goto	i1l566
 12055  0D62                     u160_20:
 12056  0D62                     i1l2908:
 12057                           
 12058                           ;mcc_generated_files/i2c1_master.c: 267:     {;mcc_generated_files/i2c1_master.c: 268:  
      +                                 I2C1_Status.data_ptr = buffer;
 12059  0D62  0873               	movf	i1I2C1_SetBuffer@buffer,w
 12060  0D63  00F2               	movwf	??i1_I2C1_SetBuffer
 12061  0D64  0872               	movf	??i1_I2C1_SetBuffer,w
 12062  0D65  00B7               	movwf	(low ((_I2C1_Status| 0+23)))^(0+128)
 12063                           
 12064                           ;mcc_generated_files/i2c1_master.c: 269:         I2C1_Status.data_length = bufferSize;
 12065  0D66  0871               	movf	i1I2C1_SetBuffer@bufferSize+1,w
 12066  0D67  00B9               	movwf	((_I2C1_Status+1)^(0+128)+24)
 12067  0D68  0870               	movf	i1I2C1_SetBuffer@bufferSize,w
 12068  0D69  00B8               	movwf	(_I2C1_Status^(0+128)+24)
 12069  0D6A                     i1l2910:
 12070                           
 12071                           ;mcc_generated_files/i2c1_master.c: 270:         I2C1_Status.bufferFree = 0;
 12072  0D6A  11BC               	bcf	(_I2C1_Status^(0+128)+28),3
 12073  0D6B                     i1l566:
 12074  0D6B  0008               	return
 12075  0D6C                     __end_ofi1_I2C1_SetBuffer:
 12076                           
 12077                           	psect	text84
 12078  0C5C                     __ptext84:	
 12079 ;; *************** function _I2C1_MasterStop *****************
 12080 ;; Defined at:
 12081 ;;		line 594 in file "mcc_generated_files/i2c1_master.c"
 12082 ;; Parameters:    Size  Location     Type
 12083 ;;		None
 12084 ;; Auto vars:     Size  Location     Type
 12085 ;;		None
 12086 ;; Return value:  Size  Location     Type
 12087 ;;                  1    wreg      void 
 12088 ;; Registers used:
 12089 ;;		None
 12090 ;; Tracked objects:
 12091 ;;		On entry : 0/0
 12092 ;;		On exit  : 0/0
 12093 ;;		Unchanged: 0/0
 12094 ;; Data sizes:     COMMON   BANK0   BANK1   BANK2   BANK3   BANK4   BANK5   BANK6   BANK7   BANK8   BANK9  BANK10  BANK1
      +1  BANK12
 12095 ;;      Params:         0       0       0       0       0       0       0       0       0       0       0       0       
      +0       0
 12096 ;;      Locals:         0       0       0       0       0       0       0       0       0       0       0       0       
      +0       0
 12097 ;;      Temps:          0       0       0       0       0       0       0       0       0       0       0       0       
      +0       0
 12098 ;;      Totals:         0       0       0       0       0       0       0       0       0       0       0       0       
      +0       0
 12099 ;;Total ram usage:        0 bytes
 12100 ;; Hardware stack levels used: 1
 12101 ;; This function calls:
 12102 ;;		Nothing
 12103 ;; This function is called by:
 12104 ;;		_I2C1_DO_SEND_STOP
 12105 ;; This function uses a non-reentrant model
 12106 ;;
 12107                           
 12108  0C5C                     _I2C1_MasterStop:	
 12109                           ;psect for function _I2C1_MasterStop
 12110                           
 12111  0C5C                     i1l2844:	
 12112                           ;incstack = 0
 12113                           ; Regs used in _I2C1_MasterStop: []
 12114                           
 12115                           
 12116                           ;mcc_generated_files/i2c1_master.c: 596:     SSP1CON2bits.PEN = 1;
 12117  0C5C  0024               	movlb	4	; select bank4
 12118  0C5D  1516               	bsf	22,2	;volatile
 12119  0C5E                     i1l732:
 12120  0C5E  0008               	return
 12121  0C5F                     __end_of_I2C1_MasterStop:
 12122                           
 12123                           	psect	text85
 12124  0C59                     __ptext85:	
 12125 ;; *************** function _I2C1_MasterEnableRestart *****************
 12126 ;; Defined at:
 12127 ;;		line 574 in file "mcc_generated_files/i2c1_master.c"
 12128 ;; Parameters:    Size  Location     Type
 12129 ;;		None
 12130 ;; Auto vars:     Size  Location     Type
 12131 ;;		None
 12132 ;; Return value:  Size  Location     Type
 12133 ;;                  1    wreg      void 
 12134 ;; Registers used:
 12135 ;;		None
 12136 ;; Tracked objects:
 12137 ;;		On entry : 0/0
 12138 ;;		On exit  : 0/0
 12139 ;;		Unchanged: 0/0
 12140 ;; Data sizes:     COMMON   BANK0   BANK1   BANK2   BANK3   BANK4   BANK5   BANK6   BANK7   BANK8   BANK9  BANK10  BANK1
      +1  BANK12
 12141 ;;      Params:         0       0       0       0       0       0       0       0       0       0       0       0       
      +0       0
 12142 ;;      Locals:         0       0       0       0       0       0       0       0       0       0       0       0       
      +0       0
 12143 ;;      Temps:          0       0       0       0       0       0       0       0       0       0       0       0       
      +0       0
 12144 ;;      Totals:         0       0       0       0       0       0       0       0       0       0       0       0       
      +0       0
 12145 ;;Total ram usage:        0 bytes
 12146 ;; Hardware stack levels used: 1
 12147 ;; This function calls:
 12148 ;;		Nothing
 12149 ;; This function is called by:
 12150 ;;		_I2C1_DO_SEND_RESTART_READ
 12151 ;;		_I2C1_DO_SEND_RESTART_WRITE
 12152 ;;		_I2C1_DO_SEND_RESTART
 12153 ;;		_I2C1_DO_RX_EMPTY
 12154 ;; This function uses a non-reentrant model
 12155 ;;
 12156                           
 12157  0C59                     _I2C1_MasterEnableRestart:	
 12158                           ;psect for function _I2C1_MasterEnableRestart
 12159                           
 12160  0C59                     i1l2842:	
 12161                           ;incstack = 0
 12162                           ; Regs used in _I2C1_MasterEnableRestart: []
 12163                           
 12164                           
 12165                           ;mcc_generated_files/i2c1_master.c: 576:     SSP1CON2bits.RSEN = 1;
 12166  0C59  0024               	movlb	4	; select bank4
 12167  0C5A  1496               	bsf	22,1	;volatile
 12168  0C5B                     i1l720:
 12169  0C5B  0008               	return
 12170  0C5C                     __end_of_I2C1_MasterEnableRestart:
 12171  007E                     btemp	set	126	;btemp
 12172  007E                     int$flags	set	126
 12173  007E                     wtemp0	set	126
 12174                           
 12175                           	psect	idloc
 12176                           
 12177                           ;Config register IDLOC0 @ 0x8000
 12178                           ;	unspecified, using default values
 12179  8000                     	org	32768
 12180  8000  3FFF               	dw	16383
 12181                           
 12182                           ;Config register IDLOC1 @ 0x8001
 12183                           ;	unspecified, using default values
 12184  8001                     	org	32769
 12185  8001  3FFF               	dw	16383
 12186                           
 12187                           ;Config register IDLOC2 @ 0x8002
 12188                           ;	unspecified, using default values
 12189  8002                     	org	32770
 12190  8002  3FFF               	dw	16383
 12191                           
 12192                           ;Config register IDLOC3 @ 0x8003
 12193                           ;	unspecified, using default values
 12194  8003                     	org	32771
 12195  8003  3FFF               	dw	16383
 12196                           
 12197                           	psect	config
 12198                           
 12199                           ;Config register CONFIG1 @ 0x8007
 12200                           ;	FEXTOSC External Oscillator mode Selection bits
 12201                           ;	FEXTOSC = OFF, Oscillator not enabled
 12202                           ;	Power-up default value for COSC bits
 12203                           ;	RSTOSC = HFINT1, HFINTOSC (1MHz)
 12204                           ;	Clock Out Enable bit
 12205                           ;	CLKOUTEN = OFF, CLKOUT function is disabled; I/O or oscillator function on OSC2
 12206                           ;	Clock Switch Enable bit
 12207                           ;	CSWEN = ON, Writing to NOSC and NDIV is allowed
 12208                           ;	Fail-Safe Clock Monitor Enable
 12209                           ;	FCMEN = ON, Fail-Safe Clock Monitor is enabled
 12210  8007                     	org	32775
 12211  8007  3FEC               	dw	16364
 12212                           
 12213                           ;Config register CONFIG2 @ 0x8008
 12214                           ;	Master Clear Enable bit
 12215                           ;	MCLRE = ON, MCLR/VPP pin function is MCLR; Weak pull-up enabled
 12216                           ;	Power-up Timer Enable bit
 12217                           ;	PWRTE = OFF, PWRT disabled
 12218                           ;	Watchdog Timer Enable bits
 12219                           ;	WDTE = OFF, WDT disabled; SWDTEN is ignored
 12220                           ;	Low-power BOR enable bit
 12221                           ;	LPBOREN = OFF, ULPBOR disabled
 12222                           ;	Brown-out Reset Enable bits
 12223                           ;	BOREN = ON, Brown-out Reset enabled, SBOREN bit ignored
 12224                           ;	Brown-out Reset Voltage selection bit
 12225                           ;	BORV = LOW, Brown-out voltage (Vbor) set to 2.45V
 12226                           ;	PPSLOCK bit One-Way Set Enable bit
 12227                           ;	PPS1WAY = ON, The PPSLOCK bit can be cleared and set only once; PPS registers remain l
      +                          ocked after one clear/set cycle
 12228                           ;	Stack Overflow/Underflow Reset Enable bit
 12229                           ;	STVREN = ON, Stack Overflow or Underflow will cause a Reset
 12230                           ;	Debugger enable bit
 12231                           ;	DEBUG = OFF, Background debugger disabled
 12232  8008                     	org	32776
 12233  8008  3FF3               	dw	16371
 12234                           
 12235                           ;Config register CONFIG3 @ 0x8009
 12236                           ;	User NVM self-write protection bits
 12237                           ;	WRT = OFF, Write protection off
 12238                           ;	Low Voltage Programming Enable bit
 12239                           ;	LVP = ON, Low Voltage programming enabled. MCLR/VPP pin function is MCLR. MCLRE config
      +                          uration bit is ignored.
 12240  8009                     	org	32777
 12241  8009  3FFF               	dw	16383
 12242                           
 12243                           ;Config register CONFIG4 @ 0x800A
 12244                           ;	User NVM Program Memory Code Protection bit
 12245                           ;	CP = OFF, User NVM code protection disabled
 12246                           ;	Data NVM Memory Code Protection bit
 12247                           ;	CPD = OFF, Data NVM code protection disabled
 12248  800A                     	org	32778
 12249  800A  3FFF               	dw	16383

Data Sizes:
    Strings     27
    Constant    32
    Data        2
    BSS         78
    Persistent  38
    Stack       0

Auto Spaces:
    Space          Size  Autos    Used
    COMMON           14     13      14
    BANK0            80     74      77
    BANK1            80     29      79
    BANK2            80      0      32
    BANK3            80      0       0
    BANK4            80      0       0
    BANK5            80      0       0
    BANK6            80      0       0
    BANK7            80      0       0
    BANK8            80      0       0
    BANK9            80      0       0
    BANK10           80      0       0
    BANK11           80      0       0
    BANK12           48      0       0

Pointer List with Targets:

    i2c_write1ByteRegister@data.data	PTR unsigned char  size(1) Largest target is 0

    i2c_read1ByteRegister@d2.data	PTR unsigned char  size(1) Largest target is 0

    i2c_read2ByteRegister@result.data	PTR unsigned char  size(1) Largest target is 0

    i2c_write2ByteRegister@data.data	PTR unsigned char  size(1) Largest target is 0

    I2C1_Read1ByteRegister@returnValue.data	PTR unsigned char  size(1) Largest target is 0

    I2C1_Read2ByteRegister@returnValue.data	PTR unsigned char  size(1) Largest target is 0

    I2C1_Write1ByteRegister@data.data	PTR unsigned char  size(1) Largest target is 0

    I2C1_Write2ByteRegister@data.data	PTR unsigned char  size(1) Largest target is 0

    I2C1_DO_TX$1991$0	PTR void  size(1) Largest target is 4
		 -> I2C1_ReadDataBlock@bufferBlock(COMMON[3]), I2C1_Write2ByteRegister@data(COMMON[2]), I2C1_Write1ByteRegister@data(COMMON[1]), I2C1_Read2ByteRegister@returnValue(COMMON[2]), 
		 -> I2C1_Read1ByteRegister@returnValue(COMMON[1]), i2c_readDataBlock@d(COMMON[3]), i2c_write2ByteRegister@data(COMMON[2]), i2c_read2ByteRegister@result(COMMON[2]), 
		 -> i2c_read1ByteRegister@d2(BANK0[1]), i2c_write1ByteRegister@data(BANK0[1]), NULL(NULL[0]), 

    I2C1_DO_TX$1996	PTR void  size(1) Largest target is 4
		 -> I2C1_ReadDataBlock@bufferBlock(COMMON[3]), I2C1_Write2ByteRegister@data(COMMON[2]), I2C1_Write1ByteRegister@data(COMMON[1]), I2C1_Read2ByteRegister@returnValue(COMMON[2]), 
		 -> I2C1_Read1ByteRegister@returnValue(COMMON[1]), i2c_readDataBlock@d(COMMON[3]), i2c_write2ByteRegister@data(COMMON[2]), i2c_read2ByteRegister@result(COMMON[2]), 
		 -> i2c_read1ByteRegister@d2(BANK0[1]), i2c_write1ByteRegister@data(BANK0[1]), NULL(NULL[0]), 

    I2C1_DO_TX$1991	PTR FTN(PTR void ,)enum E360 size(2) Largest target is 1
		 -> I2C1_CallbackReturnReset(), I2C1_CallbackReturnStop(), Absolute function(), rdBlkRegCompleteHandler@i2c1_master_example$F180(), 
		 -> wr2RegCompleteHandler@i2c1_master_example$F169(), wr1RegCompleteHandler@i2c1_master_example$F163(), rd2RegCompleteHandler@i2c1_master_example$F157(), rd1RegCompleteHandler@i2c1_master_example$F146(), 
		 -> rdBlkRegCompleteHandler(), wr2RegCompleteHandler(), rd2RegCompleteHandler(), rd1RegCompleteHandler(), 
		 -> wr1RegCompleteHandler(), 

    I2C1_MasterFsm$1990	const PTR FTN()enum E7050 size(2) Largest target is 1
		 -> I2C1_DO_ADDRESS_NACK(), I2C1_DO_RESET(), I2C1_DO_RX_NACK_RESTART(), I2C1_DO_RX_NACK_STOP(), 
		 -> I2C1_DO_RX_ACK(), I2C1_DO_SEND_STOP(), I2C1_DO_SEND_RESTART(), I2C1_DO_SEND_RESTART_WRITE(), 
		 -> I2C1_DO_SEND_RESTART_READ(), I2C1_DO_TX_EMPTY(), I2C1_DO_RCEN(), I2C1_DO_RX(), 
		 -> I2C1_DO_TX(), I2C1_DO_SEND_ADR_WRITE(), I2C1_DO_SEND_ADR_READ(), I2C1_DO_IDLE(), 

    I2C1_CallbackReturnStop@funPtr	PTR void  size(1) Largest target is 4
		 -> I2C1_ReadDataBlock@bufferBlock(COMMON[3]), I2C1_Write2ByteRegister@data(COMMON[2]), I2C1_Write1ByteRegister@data(COMMON[1]), I2C1_Read2ByteRegister@returnValue(COMMON[2]), 
		 -> I2C1_Read1ByteRegister@returnValue(COMMON[1]), i2c_readDataBlock@d(COMMON[3]), i2c_write2ByteRegister@data(COMMON[2]), i2c_read2ByteRegister@result(COMMON[2]), 
		 -> i2c_read1ByteRegister@d2(BANK0[1]), i2c_write1ByteRegister@data(BANK0[1]), NULL(NULL[0]), 

    I2C1_CallbackReturnReset@funPtr	PTR void  size(1) Largest target is 4
		 -> I2C1_ReadDataBlock@bufferBlock(COMMON[3]), I2C1_Write2ByteRegister@data(COMMON[2]), I2C1_Write1ByteRegister@data(COMMON[1]), I2C1_Read2ByteRegister@returnValue(COMMON[2]), 
		 -> I2C1_Read1ByteRegister@returnValue(COMMON[1]), i2c_readDataBlock@d(COMMON[3]), i2c_write2ByteRegister@data(COMMON[2]), i2c_read2ByteRegister@result(COMMON[2]), 
		 -> i2c_read1ByteRegister@d2(BANK0[1]), i2c_write1ByteRegister@data(BANK0[1]), NULL(NULL[0]), 

    cb$0	PTR void  size(1) Largest target is 4
		 -> I2C1_ReadDataBlock@bufferBlock(COMMON[3]), I2C1_Write2ByteRegister@data(COMMON[2]), I2C1_Write1ByteRegister@data(COMMON[1]), I2C1_Read2ByteRegister@returnValue(COMMON[2]), 
		 -> I2C1_Read1ByteRegister@returnValue(COMMON[1]), i2c_readDataBlock@d(COMMON[3]), i2c_write2ByteRegister@data(COMMON[2]), i2c_read2ByteRegister@result(COMMON[2]), 
		 -> i2c_read1ByteRegister@d2(BANK0[1]), i2c_write1ByteRegister@data(BANK0[1]), NULL(NULL[0]), 

    Absolute function$0	PTR void  size(1) Largest target is 4
		 -> I2C1_ReadDataBlock@bufferBlock(COMMON[3]), I2C1_Write2ByteRegister@data(COMMON[2]), I2C1_Write1ByteRegister@data(COMMON[1]), I2C1_Read2ByteRegister@returnValue(COMMON[2]), 
		 -> I2C1_Read1ByteRegister@returnValue(COMMON[1]), i2c_readDataBlock@d(COMMON[3]), i2c_write2ByteRegister@data(COMMON[2]), i2c_read2ByteRegister@result(COMMON[2]), 
		 -> i2c_read1ByteRegister@d2(BANK0[1]), i2c_write1ByteRegister@data(BANK0[1]), NULL(NULL[0]), 

    cb$0	PTR void  size(1) Largest target is 4
		 -> I2C1_ReadDataBlock@bufferBlock(COMMON[3]), I2C1_Write2ByteRegister@data(COMMON[2]), I2C1_Write1ByteRegister@data(COMMON[1]), I2C1_Read2ByteRegister@returnValue(COMMON[2]), 
		 -> I2C1_Read1ByteRegister@returnValue(COMMON[1]), i2c_readDataBlock@d(COMMON[3]), i2c_write2ByteRegister@data(COMMON[2]), i2c_read2ByteRegister@result(COMMON[2]), 
		 -> i2c_read1ByteRegister@d2(BANK0[1]), i2c_write1ByteRegister@data(BANK0[1]), NULL(NULL[0]), 

    S603$0$0	PTR void  size(1) Largest target is 4
		 -> I2C1_ReadDataBlock@bufferBlock(COMMON[3]), I2C1_Write2ByteRegister@data(COMMON[2]), I2C1_Write1ByteRegister@data(COMMON[1]), I2C1_Read2ByteRegister@returnValue(COMMON[2]), 
		 -> I2C1_Read1ByteRegister@returnValue(COMMON[1]), i2c_readDataBlock@d(COMMON[3]), i2c_write2ByteRegister@data(COMMON[2]), i2c_read2ByteRegister@result(COMMON[2]), 
		 -> i2c_read1ByteRegister@d2(BANK0[1]), i2c_write1ByteRegister@data(BANK0[1]), NULL(NULL[0]), 

    strlen@s	PTR const unsigned char  size(1) Largest target is 32
		 -> dbuf(BANK2[32]), 

    strlen@a	PTR const unsigned char  size(1) Largest target is 32
		 -> dbuf(BANK2[32]), 

    fputs@s	PTR const unsigned char  size(1) Largest target is 32
		 -> dbuf(BANK2[32]), 

    fputs@fp	PTR struct _IO_FILE size(1) Largest target is 0
		 -> NULL(NULL[0]), 

    S1571$source	PTR const unsigned char  size(1) Largest target is 0

    fputc@fp...source	PTR const unsigned char  size(1) Largest target is 0

    S1571$buffer	PTR unsigned char  size(1) Largest target is 0

    fputc@fp...buffer	PTR unsigned char  size(1) Largest target is 0

    fputc@fp	PTR struct _IO_FILE size(1) Largest target is 0
		 -> NULL(NULL[0]), 

    vfprintf@ap	PTR PTR void  size(1) Largest target is 1
		 -> printf@ap(BANK0[1]), 

    vfprintf@fp	PTR struct _IO_FILE size(1) Largest target is 0
		 -> NULL(NULL[0]), 

    vfprintf@fmt	PTR const unsigned char  size(2) Largest target is 9
		 -> STR_3(CODE[9]), STR_2(CODE[9]), STR_1(CODE[9]), 

    vfprintf@cfmt	PTR unsigned char  size(2) Largest target is 9
		 -> STR_3(CODE[9]), STR_2(CODE[9]), STR_1(CODE[9]), 

    vfpfcnvrt@fp	PTR struct _IO_FILE size(1) Largest target is 0
		 -> NULL(NULL[0]), 

    vfpfcnvrt@ap	PTR PTR void  size(1) Largest target is 1
		 -> printf@ap(BANK0[1]), 

    vfpfcnvrt@fmt	PTR PTR unsigned char  size(1) Largest target is 2
		 -> vfprintf@cfmt(BANK0[2]), 

    dtoa@fp	PTR struct _IO_FILE size(1) Largest target is 0
		 -> NULL(NULL[0]), 

    pad@fp	PTR struct _IO_FILE size(1) Largest target is 0
		 -> NULL(NULL[0]), 

    pad@buf	PTR unsigned char  size(1) Largest target is 32
		 -> dbuf(BANK2[32]), 

    printf@fmt	PTR const unsigned char  size(2) Largest target is 9
		 -> STR_3(CODE[9]), STR_2(CODE[9]), STR_1(CODE[9]), 

    printf@ap	PTR void [1] size(1) Largest target is 2
		 -> ?_printf(BANK1[2]), 

    I2C1_SetCallback@ptr	PTR void  size(1) Largest target is 4
		 -> I2C1_ReadDataBlock@bufferBlock(COMMON[3]), I2C1_Write2ByteRegister@data(COMMON[2]), I2C1_Write1ByteRegister@data(COMMON[1]), I2C1_Read2ByteRegister@returnValue(COMMON[2]), 
		 -> I2C1_Read1ByteRegister@returnValue(COMMON[1]), i2c_readDataBlock@d(COMMON[3]), i2c_write2ByteRegister@data(COMMON[2]), i2c_read2ByteRegister@result(COMMON[2]), 
		 -> i2c_read1ByteRegister@d2(BANK0[1]), i2c_write1ByteRegister@data(BANK0[1]), NULL(NULL[0]), 

    I2C1_SetCallback@cb	PTR FTN(PTR void ,)enum E360 size(2) Largest target is 1
		 -> Absolute function(), rdBlkRegCompleteHandler@i2c1_master_example$F180(), wr2RegCompleteHandler@i2c1_master_example$F169(), wr1RegCompleteHandler@i2c1_master_example$F163(), 
		 -> rd2RegCompleteHandler@i2c1_master_example$F157(), rd1RegCompleteHandler@i2c1_master_example$F146(), rdBlkRegCompleteHandler(), wr2RegCompleteHandler(), 
		 -> rd2RegCompleteHandler(), rd1RegCompleteHandler(), wr1RegCompleteHandler(), 

    I2C1_SetInterruptHandler@InterruptHandler	PTR FTN()void  size(2) Largest target is 1
		 -> I2C1_MasterIsr(), 

    MSSP1_InterruptHandler	PTR FTN()void  size(2) Largest target is 1
		 -> I2C1_MasterIsr(), Absolute function(), 

    I2C1_SetAddressNackCallback@ptr	PTR void  size(1) Largest target is 0
		 -> NULL(NULL[0]), 

    I2C1_SetAddressNackCallback@cb	PTR FTN(PTR void ,)enum E360 size(2) Largest target is 1
		 -> Absolute function(), 

    I2C1_SetDataCompleteCallback@ptr	PTR void  size(1) Largest target is 4
		 -> I2C1_ReadDataBlock@bufferBlock(COMMON[3]), I2C1_Write2ByteRegister@data(COMMON[2]), I2C1_Write1ByteRegister@data(COMMON[1]), I2C1_Read2ByteRegister@returnValue(COMMON[2]), 
		 -> I2C1_Read1ByteRegister@returnValue(COMMON[1]), i2c_readDataBlock@d(COMMON[3]), i2c_write2ByteRegister@data(COMMON[2]), i2c_read2ByteRegister@result(COMMON[2]), 
		 -> i2c_read1ByteRegister@d2(BANK0[1]), i2c_write1ByteRegister@data(BANK0[1]), NULL(NULL[0]), 

    I2C1_SetDataCompleteCallback@cb	PTR FTN(PTR void ,)enum E360 size(2) Largest target is 1
		 -> Absolute function(), rdBlkRegCompleteHandler@i2c1_master_example$F180(), wr2RegCompleteHandler@i2c1_master_example$F169(), wr1RegCompleteHandler@i2c1_master_example$F163(), 
		 -> rd2RegCompleteHandler@i2c1_master_example$F157(), rd1RegCompleteHandler@i2c1_master_example$F146(), rdBlkRegCompleteHandler(), wr2RegCompleteHandler(), 
		 -> rd2RegCompleteHandler(), rd1RegCompleteHandler(), wr1RegCompleteHandler(), 

    I2C1_SetBuffer@buffer	PTR void  size(1) Largest target is 4
		 -> I2C1_ReadDataBlock@reg(COMMON[1]), I2C1_ReadDataBlock@bufferBlock(COMMON[3]), I2C1_Write2ByteRegister@reg(COMMON[1]), I2C1_Write2ByteRegister@data(COMMON[2]), 
		 -> I2C1_Write1ByteRegister@reg(COMMON[1]), I2C1_Write1ByteRegister@data(COMMON[1]), I2C1_Read2ByteRegister@reg(COMMON[1]), I2C1_Read2ByteRegister@returnValue(COMMON[2]), 
		 -> I2C1_Read1ByteRegister@reg(COMMON[1]), I2C1_Read1ByteRegister@returnValue(COMMON[1]), i2c_readDataBlock@reg(COMMON[1]), i2c_readDataBlock@d(COMMON[3]), 
		 -> i2c_write2ByteRegister@reg(COMMON[1]), i2c_write2ByteRegister@data(COMMON[2]), i2c_read2ByteRegister@reg(COMMON[1]), i2c_read2ByteRegister@result(COMMON[2]), 
		 -> i2c_read1ByteRegister@reg(BANK0[1]), i2c_read1ByteRegister@d2(BANK0[1]), i2c_write1ByteRegister@reg(BANK0[1]), i2c_write1ByteRegister@data(BANK0[1]), 
		 -> NULL(NULL[0]), 

    S603$data_ptr	PTR unsigned char  size(1) Largest target is 4
		 -> I2C1_ReadDataBlock@reg(COMMON[1]), I2C1_ReadDataBlock@bufferBlock(COMMON[3]), I2C1_Write2ByteRegister@reg(COMMON[1]), I2C1_Write2ByteRegister@data(COMMON[2]), 
		 -> I2C1_Write1ByteRegister@reg(COMMON[1]), I2C1_Write1ByteRegister@data(COMMON[1]), I2C1_Read2ByteRegister@reg(COMMON[1]), I2C1_Read2ByteRegister@returnValue(COMMON[2]), 
		 -> I2C1_Read1ByteRegister@reg(COMMON[1]), I2C1_Read1ByteRegister@returnValue(COMMON[1]), i2c_readDataBlock@reg(COMMON[1]), i2c_readDataBlock@d(COMMON[3]), 
		 -> i2c_write2ByteRegister@reg(COMMON[1]), i2c_write2ByteRegister@data(COMMON[2]), i2c_read2ByteRegister@reg(COMMON[1]), i2c_read2ByteRegister@result(COMMON[2]), 
		 -> i2c_read1ByteRegister@reg(BANK0[1]), i2c_read1ByteRegister@d2(BANK0[1]), i2c_write1ByteRegister@reg(BANK0[1]), i2c_write1ByteRegister@data(BANK0[1]), 
		 -> NULL(NULL[0]), 

    I2C1_Status.data_ptr	PTR unsigned char  size(1) Largest target is 4
		 -> i2c_write1ByteRegister@data.data(COMMON[2]), i2c_read1ByteRegister@d2.data(COMMON[2]), i2c_read2ByteRegister@result.data(COMMON[2]), i2c_write2ByteRegister@data.data(COMMON[2]), 
		 -> I2C1_Read1ByteRegister@returnValue.data(COMMON[2]), I2C1_Read2ByteRegister@returnValue.data(COMMON[2]), I2C1_Write1ByteRegister@data.data(COMMON[2]), I2C1_Write2ByteRegister@data.data(COMMON[2]), 
		 -> I2C1_ReadDataBlock@reg(COMMON[1]), I2C1_ReadDataBlock@bufferBlock(COMMON[3]), bufferBlock.data(COMMON[2]), I2C1_Write2ByteRegister@reg(COMMON[1]), 
		 -> I2C1_Write2ByteRegister@data(COMMON[2]), I2C1_Write1ByteRegister@reg(COMMON[1]), I2C1_Write1ByteRegister@data(COMMON[1]), I2C1_Read2ByteRegister@reg(COMMON[1]), 
		 -> I2C1_Read2ByteRegister@returnValue(COMMON[2]), I2C1_Read1ByteRegister@reg(COMMON[1]), I2C1_Read1ByteRegister@returnValue(COMMON[1]), i2c_readDataBlock@reg(COMMON[1]), 
		 -> i2c_readDataBlock@d(COMMON[3]), d.data(COMMON[2]), i2c_write2ByteRegister@reg(COMMON[1]), i2c_write2ByteRegister@data(COMMON[2]), 
		 -> i2c_read2ByteRegister@reg(COMMON[1]), i2c_read2ByteRegister@result(COMMON[2]), i2c_read1ByteRegister@reg(BANK0[1]), i2c_read1ByteRegister@d2(BANK0[1]), 
		 -> i2c_write1ByteRegister@reg(BANK0[1]), i2c_write1ByteRegister@data(BANK0[1]), NULL(NULL[0]), 

    S603$callbackPayload	PTR void [6] size(1) Largest target is 4
		 -> I2C1_ReadDataBlock@bufferBlock(COMMON[3]), I2C1_Write2ByteRegister@data(COMMON[2]), I2C1_Write1ByteRegister@data(COMMON[1]), I2C1_Read2ByteRegister@returnValue(COMMON[2]), 
		 -> I2C1_Read1ByteRegister@returnValue(COMMON[1]), i2c_readDataBlock@d(COMMON[3]), i2c_write2ByteRegister@data(COMMON[2]), i2c_read2ByteRegister@result(COMMON[2]), 
		 -> i2c_read1ByteRegister@d2(BANK0[1]), i2c_write1ByteRegister@data(BANK0[1]), NULL(NULL[0]), 

    I2C1_Status.callbackPayload	PTR void [6] size(1) Largest target is 4
		 -> I2C1_ReadDataBlock@bufferBlock(COMMON[3]), I2C1_Write2ByteRegister@data(COMMON[2]), I2C1_Write1ByteRegister@data(COMMON[1]), I2C1_Read2ByteRegister@returnValue(COMMON[2]), 
		 -> I2C1_Read1ByteRegister@returnValue(COMMON[1]), i2c_readDataBlock@d(COMMON[3]), i2c_write2ByteRegister@data(COMMON[2]), i2c_read2ByteRegister@result(COMMON[2]), 
		 -> i2c_read1ByteRegister@d2(BANK0[1]), i2c_write1ByteRegister@data(BANK0[1]), NULL(NULL[0]), 

    S603$callbackTable	PTR FTN(PTR void ,)enum E360[6] size(2) Largest target is 1
		 -> I2C1_CallbackReturnReset(), I2C1_CallbackReturnStop(), Absolute function(), rdBlkRegCompleteHandler@i2c1_master_example$F180(), 
		 -> wr2RegCompleteHandler@i2c1_master_example$F169(), wr1RegCompleteHandler@i2c1_master_example$F163(), rd2RegCompleteHandler@i2c1_master_example$F157(), rd1RegCompleteHandler@i2c1_master_example$F146(), 
		 -> rdBlkRegCompleteHandler(), wr2RegCompleteHandler(), rd2RegCompleteHandler(), rd1RegCompleteHandler(), 
		 -> wr1RegCompleteHandler(), 

    I2C1_Status.callbackTable	PTR FTN(PTR void ,)enum E360[6] size(2) Largest target is 1
		 -> I2C1_CallbackReturnReset(), I2C1_CallbackReturnStop(), Absolute function(), rdBlkRegCompleteHandler@i2c1_master_example$F180(), 
		 -> wr2RegCompleteHandler@i2c1_master_example$F169(), wr1RegCompleteHandler@i2c1_master_example$F163(), rd2RegCompleteHandler@i2c1_master_example$F157(), rd1RegCompleteHandler@i2c1_master_example$F146(), 
		 -> rdBlkRegCompleteHandler(), wr2RegCompleteHandler(), rd2RegCompleteHandler(), rd1RegCompleteHandler(), 
		 -> wr1RegCompleteHandler(), 

    i2c1_fsmStateTable	const PTR FTN()enum E7050[16] size(2) Largest target is 1
		 -> I2C1_DO_ADDRESS_NACK(), I2C1_DO_RESET(), I2C1_DO_RX_NACK_RESTART(), I2C1_DO_RX_NACK_STOP(), 
		 -> I2C1_DO_RX_ACK(), I2C1_DO_SEND_STOP(), I2C1_DO_SEND_RESTART(), I2C1_DO_SEND_RESTART_WRITE(), 
		 -> I2C1_DO_SEND_RESTART_READ(), I2C1_DO_TX_EMPTY(), I2C1_DO_RCEN(), I2C1_DO_RX(), 
		 -> I2C1_DO_TX(), I2C1_DO_SEND_ADR_WRITE(), I2C1_DO_SEND_ADR_READ(), I2C1_DO_IDLE(), 

    EUSART_SetErrorHandler@interruptHandler	PTR FTN()void  size(2) Largest target is 1
		 -> EUSART_DefaultErrorHandler(), 

    EUSART_ErrorHandler	PTR FTN()void  size(2) Largest target is 1
		 -> Absolute function(), EUSART_DefaultErrorHandler(), 

    EUSART_SetOverrunErrorHandler@interruptHandler	PTR FTN()void  size(2) Largest target is 1
		 -> EUSART_DefaultOverrunErrorHandler(), 

    EUSART_OverrunErrorHandler	PTR FTN()void  size(2) Largest target is 1
		 -> Absolute function(), EUSART_DefaultOverrunErrorHandler(), 

    EUSART_SetFramingErrorHandler@interruptHandler	PTR FTN()void  size(2) Largest target is 1
		 -> EUSART_DefaultFramingErrorHandler(), 

    EUSART_FramingErrorHandler	PTR FTN()void  size(2) Largest target is 1
		 -> Absolute function(), EUSART_DefaultFramingErrorHandler(), 

    rdBlkRegCompleteHandler@i2c1_master_example$F180@ptr.data	PTR unsigned char  size(1) Largest target is 0

    rdBlkRegCompleteHandler@i2c1_master_example$F180@ptr	PTR void  size(1) Largest target is 4
		 -> I2C1_ReadDataBlock@bufferBlock(COMMON[3]), I2C1_Write2ByteRegister@data(COMMON[2]), I2C1_Write1ByteRegister@data(COMMON[1]), I2C1_Read2ByteRegister@returnValue(COMMON[2]), 
		 -> I2C1_Read1ByteRegister@returnValue(COMMON[1]), i2c_readDataBlock@d(COMMON[3]), i2c_write2ByteRegister@data(COMMON[2]), i2c_read2ByteRegister@result(COMMON[2]), 
		 -> i2c_read1ByteRegister@d2(BANK0[1]), i2c_write1ByteRegister@data(BANK0[1]), NULL(NULL[0]), 

    wr2RegCompleteHandler@i2c1_master_example$F169@ptr	PTR void  size(1) Largest target is 4
		 -> I2C1_ReadDataBlock@bufferBlock(COMMON[3]), I2C1_Write2ByteRegister@data(COMMON[2]), I2C1_Write1ByteRegister@data(COMMON[1]), I2C1_Read2ByteRegister@returnValue(COMMON[2]), 
		 -> I2C1_Read1ByteRegister@returnValue(COMMON[1]), i2c_readDataBlock@d(COMMON[3]), i2c_write2ByteRegister@data(COMMON[2]), i2c_read2ByteRegister@result(COMMON[2]), 
		 -> i2c_read1ByteRegister@d2(BANK0[1]), i2c_write1ByteRegister@data(BANK0[1]), NULL(NULL[0]), 

    wr1RegCompleteHandler@i2c1_master_example$F163@ptr	PTR void  size(1) Largest target is 4
		 -> I2C1_ReadDataBlock@bufferBlock(COMMON[3]), I2C1_Write2ByteRegister@data(COMMON[2]), I2C1_Write1ByteRegister@data(COMMON[1]), I2C1_Read2ByteRegister@returnValue(COMMON[2]), 
		 -> I2C1_Read1ByteRegister@returnValue(COMMON[1]), i2c_readDataBlock@d(COMMON[3]), i2c_write2ByteRegister@data(COMMON[2]), i2c_read2ByteRegister@result(COMMON[2]), 
		 -> i2c_read1ByteRegister@d2(BANK0[1]), i2c_write1ByteRegister@data(BANK0[1]), NULL(NULL[0]), 

    rd2RegCompleteHandler@i2c1_master_example$F157@ptr	PTR void  size(1) Largest target is 4
		 -> I2C1_ReadDataBlock@bufferBlock(COMMON[3]), I2C1_Write2ByteRegister@data(COMMON[2]), I2C1_Write1ByteRegister@data(COMMON[1]), I2C1_Read2ByteRegister@returnValue(COMMON[2]), 
		 -> I2C1_Read1ByteRegister@returnValue(COMMON[1]), i2c_readDataBlock@d(COMMON[3]), i2c_write2ByteRegister@data(COMMON[2]), i2c_read2ByteRegister@result(COMMON[2]), 
		 -> i2c_read1ByteRegister@d2(BANK0[1]), i2c_write1ByteRegister@data(BANK0[1]), NULL(NULL[0]), 

    rd1RegCompleteHandler@i2c1_master_example$F146@ptr	PTR void  size(1) Largest target is 4
		 -> I2C1_ReadDataBlock@bufferBlock(COMMON[3]), I2C1_Write2ByteRegister@data(COMMON[2]), I2C1_Write1ByteRegister@data(COMMON[1]), I2C1_Read2ByteRegister@returnValue(COMMON[2]), 
		 -> I2C1_Read1ByteRegister@returnValue(COMMON[1]), i2c_readDataBlock@d(COMMON[3]), i2c_write2ByteRegister@data(COMMON[2]), i2c_read2ByteRegister@result(COMMON[2]), 
		 -> i2c_read1ByteRegister@d2(BANK0[1]), i2c_write1ByteRegister@data(BANK0[1]), NULL(NULL[0]), 

    bufferBlock.data	PTR unsigned char  size(1) Largest target is 0

    d.data	PTR unsigned char  size(1) Largest target is 0

    S75$data	PTR unsigned char  size(1) Largest target is 0

    rdBlkRegCompleteHandler@p.data	PTR unsigned char  size(1) Largest target is 0

    rdBlkRegCompleteHandler@p	PTR void  size(1) Largest target is 4
		 -> I2C1_ReadDataBlock@bufferBlock(COMMON[3]), I2C1_Write2ByteRegister@data(COMMON[2]), I2C1_Write1ByteRegister@data(COMMON[1]), I2C1_Read2ByteRegister@returnValue(COMMON[2]), 
		 -> I2C1_Read1ByteRegister@returnValue(COMMON[1]), i2c_readDataBlock@d(COMMON[3]), i2c_write2ByteRegister@data(COMMON[2]), i2c_read2ByteRegister@result(COMMON[2]), 
		 -> i2c_read1ByteRegister@d2(BANK0[1]), i2c_write1ByteRegister@data(BANK0[1]), NULL(NULL[0]), 

    wr2RegCompleteHandler@p	PTR void  size(1) Largest target is 4
		 -> I2C1_ReadDataBlock@bufferBlock(COMMON[3]), I2C1_Write2ByteRegister@data(COMMON[2]), I2C1_Write1ByteRegister@data(COMMON[1]), I2C1_Read2ByteRegister@returnValue(COMMON[2]), 
		 -> I2C1_Read1ByteRegister@returnValue(COMMON[1]), i2c_readDataBlock@d(COMMON[3]), i2c_write2ByteRegister@data(COMMON[2]), i2c_read2ByteRegister@result(COMMON[2]), 
		 -> i2c_read1ByteRegister@d2(BANK0[1]), i2c_write1ByteRegister@data(BANK0[1]), NULL(NULL[0]), 

    rd2RegCompleteHandler@p	PTR void  size(1) Largest target is 4
		 -> I2C1_ReadDataBlock@bufferBlock(COMMON[3]), I2C1_Write2ByteRegister@data(COMMON[2]), I2C1_Write1ByteRegister@data(COMMON[1]), I2C1_Read2ByteRegister@returnValue(COMMON[2]), 
		 -> I2C1_Read1ByteRegister@returnValue(COMMON[1]), i2c_readDataBlock@d(COMMON[3]), i2c_write2ByteRegister@data(COMMON[2]), i2c_read2ByteRegister@result(COMMON[2]), 
		 -> i2c_read1ByteRegister@d2(BANK0[1]), i2c_write1ByteRegister@data(BANK0[1]), NULL(NULL[0]), 

    rd1RegCompleteHandler@p	PTR void  size(1) Largest target is 4
		 -> I2C1_ReadDataBlock@bufferBlock(COMMON[3]), I2C1_Write2ByteRegister@data(COMMON[2]), I2C1_Write1ByteRegister@data(COMMON[1]), I2C1_Read2ByteRegister@returnValue(COMMON[2]), 
		 -> I2C1_Read1ByteRegister@returnValue(COMMON[1]), i2c_readDataBlock@d(COMMON[3]), i2c_write2ByteRegister@data(COMMON[2]), i2c_read2ByteRegister@result(COMMON[2]), 
		 -> i2c_read1ByteRegister@d2(BANK0[1]), i2c_write1ByteRegister@data(BANK0[1]), NULL(NULL[0]), 

    wr1RegCompleteHandler@p	PTR void  size(1) Largest target is 4
		 -> I2C1_ReadDataBlock@bufferBlock(COMMON[3]), I2C1_Write2ByteRegister@data(COMMON[2]), I2C1_Write1ByteRegister@data(COMMON[1]), I2C1_Read2ByteRegister@returnValue(COMMON[2]), 
		 -> I2C1_Read1ByteRegister@returnValue(COMMON[1]), i2c_readDataBlock@d(COMMON[3]), i2c_write2ByteRegister@data(COMMON[2]), i2c_read2ByteRegister@result(COMMON[2]), 
		 -> i2c_read1ByteRegister@d2(BANK0[1]), i2c_write1ByteRegister@data(BANK0[1]), NULL(NULL[0]), 


Critical Paths under _main in COMMON

    None.

Critical Paths under _INTERRUPT_InterruptManager in COMMON

    _I2C1_MasterFsm->_I2C1_DO_ADDRESS_NACK
    _I2C1_MasterFsm->_I2C1_DO_RX
    _I2C1_MasterFsm->_I2C1_DO_TX
    _I2C1_MasterFsm->_I2C1_DO_TX_EMPTY
    _I2C1_DO_TX_EMPTY->_I2C1_CallbackReturnReset
    _I2C1_DO_TX_EMPTY->_I2C1_CallbackReturnStop
    _I2C1_DO_TX_EMPTY->_rd1RegCompleteHandler
    _I2C1_DO_TX_EMPTY->_rd1RegCompleteHandler@i2c1_master_example$F146
    _I2C1_DO_TX_EMPTY->_rd2RegCompleteHandler
    _I2C1_DO_TX_EMPTY->_rd2RegCompleteHandler@i2c1_master_example$F157
    _I2C1_DO_TX_EMPTY->_rdBlkRegCompleteHandler
    _I2C1_DO_TX_EMPTY->_rdBlkRegCompleteHandler@i2c1_master_example$F180
    _I2C1_DO_TX_EMPTY->_wr1RegCompleteHandler
    _I2C1_DO_TX_EMPTY->_wr1RegCompleteHandler@i2c1_master_example$F163
    _I2C1_DO_TX_EMPTY->_wr2RegCompleteHandler
    _I2C1_DO_TX_EMPTY->_wr2RegCompleteHandler@i2c1_master_example$F169
    _I2C1_DO_TX->_I2C1_CallbackReturnReset
    _I2C1_DO_TX->_I2C1_CallbackReturnStop
    _I2C1_DO_TX->_rd1RegCompleteHandler
    _I2C1_DO_TX->_rd1RegCompleteHandler@i2c1_master_example$F146
    _I2C1_DO_TX->_rd2RegCompleteHandler
    _I2C1_DO_TX->_rd2RegCompleteHandler@i2c1_master_example$F157
    _I2C1_DO_TX->_rdBlkRegCompleteHandler
    _I2C1_DO_TX->_rdBlkRegCompleteHandler@i2c1_master_example$F180
    _I2C1_DO_TX->_wr1RegCompleteHandler
    _I2C1_DO_TX->_wr1RegCompleteHandler@i2c1_master_example$F163
    _I2C1_DO_TX->_wr2RegCompleteHandler
    _I2C1_DO_TX->_wr2RegCompleteHandler@i2c1_master_example$F169
    _I2C1_DO_SEND_ADR_WRITE->_I2C1_MasterSendTxData
    _I2C1_DO_RX->_I2C1_CallbackReturnReset
    _I2C1_DO_RX->_I2C1_CallbackReturnStop
    _I2C1_DO_RX->_rd1RegCompleteHandler
    _I2C1_DO_RX->_rd1RegCompleteHandler@i2c1_master_example$F146
    _I2C1_DO_RX->_rd2RegCompleteHandler
    _I2C1_DO_RX->_rd2RegCompleteHandler@i2c1_master_example$F157
    _I2C1_DO_RX->_rdBlkRegCompleteHandler
    _I2C1_DO_RX->_rdBlkRegCompleteHandler@i2c1_master_example$F180
    _I2C1_DO_RX->_wr1RegCompleteHandler
    _I2C1_DO_RX->_wr1RegCompleteHandler@i2c1_master_example$F163
    _I2C1_DO_RX->_wr2RegCompleteHandler
    _I2C1_DO_RX->_wr2RegCompleteHandler@i2c1_master_example$F169
    _I2C1_DO_ADDRESS_NACK->_I2C1_CallbackReturnReset
    _I2C1_DO_ADDRESS_NACK->_I2C1_CallbackReturnStop
    _I2C1_DO_ADDRESS_NACK->_rd1RegCompleteHandler
    _I2C1_DO_ADDRESS_NACK->_rd1RegCompleteHandler@i2c1_master_example$F146
    _I2C1_DO_ADDRESS_NACK->_rd2RegCompleteHandler
    _I2C1_DO_ADDRESS_NACK->_rd2RegCompleteHandler@i2c1_master_example$F157
    _I2C1_DO_ADDRESS_NACK->_rdBlkRegCompleteHandler
    _I2C1_DO_ADDRESS_NACK->_rdBlkRegCompleteHandler@i2c1_master_example$F180
    _I2C1_DO_ADDRESS_NACK->_wr1RegCompleteHandler
    _I2C1_DO_ADDRESS_NACK->_wr1RegCompleteHandler@i2c1_master_example$F163
    _I2C1_DO_ADDRESS_NACK->_wr2RegCompleteHandler
    _I2C1_DO_ADDRESS_NACK->_wr2RegCompleteHandler@i2c1_master_example$F169
    _wr2RegCompleteHandler@i2c1_master_example$F169->i1_I2C1_SetDataCompleteCallback
    _wr2RegCompleteHandler->i1_I2C1_SetDataCompleteCallback
    _wr1RegCompleteHandler@i2c1_master_example$F163->i1_I2C1_SetDataCompleteCallback
    _wr1RegCompleteHandler->i1_I2C1_SetDataCompleteCallback
    _rdBlkRegCompleteHandler@i2c1_master_example$F180->i1_I2C1_SetDataCompleteCallback
    _rdBlkRegCompleteHandler->i1_I2C1_SetDataCompleteCallback
    _rd2RegCompleteHandler@i2c1_master_example$F157->i1_I2C1_SetDataCompleteCallback
    _rd2RegCompleteHandler->i1_I2C1_SetDataCompleteCallback
    _rd1RegCompleteHandler@i2c1_master_example$F146->i1_I2C1_SetDataCompleteCallback
    _rd1RegCompleteHandler->i1_I2C1_SetDataCompleteCallback
    i1_I2C1_SetDataCompleteCallback->i1_I2C1_SetCallback

Critical Paths under _main in BANK0

    _i2c_write1ByteRegister->_I2C1_SetAddressNackCallback
    _i2c_write1ByteRegister->_I2C1_SetDataCompleteCallback
    _EUSART_Initialize->_EUSART_SetErrorHandler
    _EUSART_Initialize->_EUSART_SetFramingErrorHandler
    _EUSART_Initialize->_EUSART_SetOverrunErrorHandler
    _I2CSIMPLE_example->_printf
    _printf->_vfprintf
    _vfprintf->_vfpfcnvrt
    _vfpfcnvrt->_dtoa
    _dtoa->___aodiv
    _dtoa->_pad
    _pad->_fputs
    _fputs->_fputc
    _fputc->_putch
    _putch->_EUSART_Write
    _abs->___aomod
    _i2c_read1ByteRegister->_I2C1_SetAddressNackCallback
    _i2c_read1ByteRegister->_I2C1_SetDataCompleteCallback
    _I2C1_SetDataCompleteCallback->_I2C1_SetCallback
    _I2C1_SetAddressNackCallback->_I2C1_SetCallback
    _I2C1_Open->_I2C1_SetInterruptHandler
    _I2C1_MasterWrite->_I2C1_MasterOperation

Critical Paths under _INTERRUPT_InterruptManager in BANK0

    _I2C1_MasterIsr->_I2C1_MasterFsm

Critical Paths under _main in BANK1

    _main->_I2CSIMPLE_example
    _I2CSIMPLE_example->_printf
    _printf->_vfprintf
    _vfprintf->_vfpfcnvrt

Critical Paths under _INTERRUPT_InterruptManager in BANK1

    None.

Critical Paths under _main in BANK2

    None.

Critical Paths under _INTERRUPT_InterruptManager in BANK2

    None.

Critical Paths under _main in BANK3

    None.

Critical Paths under _INTERRUPT_InterruptManager in BANK3

    None.

Critical Paths under _main in BANK4

    None.

Critical Paths under _INTERRUPT_InterruptManager in BANK4

    None.

Critical Paths under _main in BANK5

    None.

Critical Paths under _INTERRUPT_InterruptManager in BANK5

    None.

Critical Paths under _main in BANK6

    None.

Critical Paths under _INTERRUPT_InterruptManager in BANK6

    None.

Critical Paths under _main in BANK7

    None.

Critical Paths under _INTERRUPT_InterruptManager in BANK7

    None.

Critical Paths under _main in BANK8

    None.

Critical Paths under _INTERRUPT_InterruptManager in BANK8

    None.

Critical Paths under _main in BANK9

    None.

Critical Paths under _INTERRUPT_InterruptManager in BANK9

    None.

Critical Paths under _main in BANK10

    None.

Critical Paths under _INTERRUPT_InterruptManager in BANK10

    None.

Critical Paths under _main in BANK11

    None.

Critical Paths under _INTERRUPT_InterruptManager in BANK11

    None.

Critical Paths under _main in BANK12

    None.

Critical Paths under _INTERRUPT_InterruptManager in BANK12

    None.

Call Graph Tables:

 ---------------------------------------------------------------------------------
 (Depth) Function   	        Calls       Base Space   Used Autos Params    Refs
 ---------------------------------------------------------------------------------
 (0) _main                                                 2     2      0   27035
                                             27 BANK1      2     2      0
                  _I2CSIMPLE_example
                  _SYSTEM_Initialize
             _i2c_write1ByteRegister
 ---------------------------------------------------------------------------------
 (1) _i2c_write1ByteRegister                               4     2      2    9254
                                             12 BANK0      4     2      2
                         _I2C1_Close
                   _I2C1_MasterWrite
                          _I2C1_Open
        _I2C1_SetAddressNackCallback
                     _I2C1_SetBuffer
       _I2C1_SetDataCompleteCallback
 ---------------------------------------------------------------------------------
 (1) _SYSTEM_Initialize                                    0     0      0     294
                  _EUSART_Initialize
                    _I2C1_Initialize
              _OSCILLATOR_Initialize
             _PIN_MANAGER_Initialize
                     _PMD_Initialize
                     _WDT_Initialize
 ---------------------------------------------------------------------------------
 (2) _WDT_Initialize                                       0     0      0       0
 ---------------------------------------------------------------------------------
 (2) _PMD_Initialize                                       0     0      0       0
 ---------------------------------------------------------------------------------
 (2) _PIN_MANAGER_Initialize                               0     0      0       0
 ---------------------------------------------------------------------------------
 (2) _OSCILLATOR_Initialize                                0     0      0       0
 ---------------------------------------------------------------------------------
 (2) _I2C1_Initialize                                      0     0      0       0
 ---------------------------------------------------------------------------------
 (2) _EUSART_Initialize                                    0     0      0     294
             _EUSART_SetErrorHandler
      _EUSART_SetFramingErrorHandler
      _EUSART_SetOverrunErrorHandler
 ---------------------------------------------------------------------------------
 (3) _EUSART_SetOverrunErrorHandler                        2     0      2      98
                                              3 BANK0      2     0      2
 ---------------------------------------------------------------------------------
 (3) _EUSART_SetFramingErrorHandler                        2     0      2      98
                                              3 BANK0      2     0      2
 ---------------------------------------------------------------------------------
 (3) _EUSART_SetErrorHandler                               2     0      2      98
                                              3 BANK0      2     0      2
 ---------------------------------------------------------------------------------
 (1) _I2CSIMPLE_example                                   11    11      0   17487
                                             16 BANK1     11    11      0
              _i2c_read1ByteRegister
                             _printf
 ---------------------------------------------------------------------------------
 (2) _printf                                               8     4      4    7887
                                             72 BANK0      2     2      0
                                             12 BANK1      4     0      4
                           _vfprintf
 ---------------------------------------------------------------------------------
 (3) _vfprintf                                             8     5      3    7536
                                             67 BANK0      5     5      0
                                              9 BANK1      3     0      3
                          _vfpfcnvrt
 ---------------------------------------------------------------------------------
 (4) _vfpfcnvrt                                           40    38      2    7098
                                             60 BANK0      7     5      2
                                              0 BANK1      9     9      0
                               _dtoa
                              _fputc
 ---------------------------------------------------------------------------------
 (5) _dtoa                                                30    22      8    5389
                                             30 BANK0     30    22      8
                            ___aodiv
                            ___aomod
                                _abs
                                _pad
 ---------------------------------------------------------------------------------
 (6) _pad                                                  9     6      3    3158
                                             21 BANK0      9     6      3
                              _fputc
                              _fputs
                             _strlen
 ---------------------------------------------------------------------------------
 (7) _strlen                                               5     3      2     166
                                              3 BANK0      5     3      2
 ---------------------------------------------------------------------------------
 (7) _fputs                                                8     7      1    1398
                                             13 BANK0      8     7      1
                              _fputc
 ---------------------------------------------------------------------------------
 (5) _fputc                                                8     5      3    1006
                                              5 BANK0      8     5      3
                              _putch
 ---------------------------------------------------------------------------------
 (6) _putch                                                1     1      0      62
                                              4 BANK0      1     1      0
                       _EUSART_Write
 ---------------------------------------------------------------------------------
 (7) _EUSART_Write                                         1     1      0      31
                                              3 BANK0      1     1      0
 ---------------------------------------------------------------------------------
 (6) _abs                                                  4     2      2     183
                                             22 BANK0      4     2      2
                            ___aomod (ARG)
 ---------------------------------------------------------------------------------
 (6) ___aomod                                             19     3     16     613
                                              3 BANK0     19     3     16
 ---------------------------------------------------------------------------------
 (6) ___aodiv                                             27    11     16     625
                                              3 BANK0     27    11     16
 ---------------------------------------------------------------------------------
 (2) _i2c_read1ByteRegister                                7     6      1    9498
                                             12 BANK0      7     6      1
                         _I2C1_Close
                   _I2C1_MasterWrite
                          _I2C1_Open
        _I2C1_SetAddressNackCallback
                     _I2C1_SetBuffer
       _I2C1_SetDataCompleteCallback
 ---------------------------------------------------------------------------------
 (2) _I2C1_SetDataCompleteCallback                         4     1      3    3478
                                              8 BANK0      4     1      3
                   _I2C1_SetCallback
 ---------------------------------------------------------------------------------
 (2) _I2C1_SetBuffer                                       4     2      2    2400
                                              3 BANK0      4     2      2
 ---------------------------------------------------------------------------------
 (2) _I2C1_SetAddressNackCallback                          4     1      3    2782
                                              8 BANK0      4     1      3
                   _I2C1_SetCallback
 ---------------------------------------------------------------------------------
 (3) _I2C1_SetCallback                                     5     2      3     914
                                              3 BANK0      5     2      3
 ---------------------------------------------------------------------------------
 (2) _I2C1_Open                                            3     3      0     144
                                              5 BANK0      3     3      0
                _I2C1_MasterClearIrq
               _I2C1_MasterEnableIrq
                    _I2C1_MasterOpen
           _I2C1_SetInterruptHandler
 ---------------------------------------------------------------------------------
 (3) _I2C1_SetInterruptHandler                             2     0      2      98
                                              3 BANK0      2     0      2
 ---------------------------------------------------------------------------------
 (3) _I2C1_MasterOpen                                      0     0      0       0
 ---------------------------------------------------------------------------------
 (3) _I2C1_MasterEnableIrq                                 0     0      0       0
 ---------------------------------------------------------------------------------
 (2) _I2C1_MasterWrite                                     0     0      0      46
               _I2C1_MasterOperation
 ---------------------------------------------------------------------------------
 (3) _I2C1_MasterOperation                                 3     3      0      46
                                              3 BANK0      3     3      0
                   _I2C1_MasterStart
 ---------------------------------------------------------------------------------
 (4) _I2C1_MasterStart                                     0     0      0       0
 ---------------------------------------------------------------------------------
 (2) _I2C1_Close                                           2     2      0      24
                                              3 BANK0      2     2      0
                _I2C1_MasterClearIrq
                   _I2C1_MasterClose
              _I2C1_MasterDisableIrq
 ---------------------------------------------------------------------------------
 (3) _I2C1_MasterDisableIrq                                0     0      0       0
 ---------------------------------------------------------------------------------
 (3) _I2C1_MasterClose                                     0     0      0       0
 ---------------------------------------------------------------------------------
 (3) _I2C1_MasterClearIrq                                  0     0      0       0
 ---------------------------------------------------------------------------------
 Estimated maximum stack depth 7
 ---------------------------------------------------------------------------------
 (Depth) Function   	        Calls       Base Space   Used Autos Params    Refs
 ---------------------------------------------------------------------------------
 (11) _INTERRUPT_InterruptManager                          0     0      0   45142
                   Absolute function *
                     _I2C1_MasterIsr *
 ---------------------------------------------------------------------------------
 (12) _I2C1_MasterIsr                                      0     0      0   45142
                     _I2C1_MasterFsm
 ---------------------------------------------------------------------------------
 (13) _I2C1_MasterFsm                                      3     3      0   45142
                                              0 BANK0      3     3      0
               _I2C1_DO_ADDRESS_NACK *
                       _I2C1_DO_IDLE *
                       _I2C1_DO_RCEN *
                      _I2C1_DO_RESET *
                         _I2C1_DO_RX *
                     _I2C1_DO_RX_ACK *
            _I2C1_DO_RX_NACK_RESTART *
               _I2C1_DO_RX_NACK_STOP *
              _I2C1_DO_SEND_ADR_READ *
             _I2C1_DO_SEND_ADR_WRITE *
               _I2C1_DO_SEND_RESTART *
          _I2C1_DO_SEND_RESTART_READ *
         _I2C1_DO_SEND_RESTART_WRITE *
                  _I2C1_DO_SEND_STOP *
                         _I2C1_DO_TX *
                   _I2C1_DO_TX_EMPTY *
                  _I2C1_MasterIsNack
              i1_I2C1_MasterClearIrq
 ---------------------------------------------------------------------------------
 (14) i1_I2C1_MasterClearIrq                               0     0      0       0
 ---------------------------------------------------------------------------------
 (14) _I2C1_DO_TX_EMPTY                                    3     3      0   11269
                                             10 COMMON     3     3      0
                   Absolute function *
           _I2C1_CallbackReturnReset *
            _I2C1_CallbackReturnStop *
               _I2C1_DO_SEND_RESTART
                  _I2C1_DO_SEND_STOP
                  _I2C1_MasterSetIrq
              _rd1RegCompleteHandler *
_rd1RegCompleteHandler@i2c1_master_e *
              _rd2RegCompleteHandler *
_rd2RegCompleteHandler@i2c1_master_e *
            _rdBlkRegCompleteHandler *
_rdBlkRegCompleteHandler@i2c1_master *
              _wr1RegCompleteHandler *
_wr1RegCompleteHandler@i2c1_master_e *
              _wr2RegCompleteHandler *
_wr2RegCompleteHandler@i2c1_master_e *
 ---------------------------------------------------------------------------------
 (15) _I2C1_MasterSetIrq                                   0     0      0       0
 ---------------------------------------------------------------------------------
 (14) _I2C1_DO_TX                                          3     3      0   11291
                                             10 COMMON     3     3      0
                   Absolute function *
           _I2C1_CallbackReturnReset *
            _I2C1_CallbackReturnStop *
          _I2C1_DO_SEND_RESTART_READ
         _I2C1_DO_SEND_RESTART_WRITE
                  _I2C1_DO_SEND_STOP
                  _I2C1_MasterIsNack
              _I2C1_MasterSendTxData
              _rd1RegCompleteHandler *
_rd1RegCompleteHandler@i2c1_master_e *
              _rd2RegCompleteHandler *
_rd2RegCompleteHandler@i2c1_master_e *
            _rdBlkRegCompleteHandler *
_rdBlkRegCompleteHandler@i2c1_master *
              _wr1RegCompleteHandler *
_wr1RegCompleteHandler@i2c1_master_e *
              _wr2RegCompleteHandler *
_wr2RegCompleteHandler@i2c1_master_e *
 ---------------------------------------------------------------------------------
 (14) _I2C1_MasterIsNack                                   0     0      0       0
 ---------------------------------------------------------------------------------
 (15) _I2C1_DO_SEND_RESTART_WRITE                          0     0      0       0
           _I2C1_MasterEnableRestart
 ---------------------------------------------------------------------------------
 (15) _I2C1_DO_SEND_RESTART_READ                           0     0      0       0
           _I2C1_MasterEnableRestart
 ---------------------------------------------------------------------------------
 (14) _I2C1_DO_SEND_ADR_WRITE                              0     0      0      22
              _I2C1_MasterSendTxData
 ---------------------------------------------------------------------------------
 (14) _I2C1_DO_SEND_ADR_READ                               0     0      0      22
              _I2C1_MasterSendTxData
 ---------------------------------------------------------------------------------
 (15) _I2C1_MasterSendTxData                               1     1      0      22
                                              0 COMMON     1     1      0
 ---------------------------------------------------------------------------------
 (14) _I2C1_DO_RX_ACK                                      0     0      0       0
                 _I2C1_MasterSendAck
 ---------------------------------------------------------------------------------
 (14) _I2C1_DO_RX                                          3     3      0   11269
                                             10 COMMON     3     3      0
                   Absolute function *
           _I2C1_CallbackReturnReset *
            _I2C1_CallbackReturnStop *
            _I2C1_DO_RX_NACK_RESTART
               _I2C1_DO_RX_NACK_STOP
               _I2C1_MasterGetRxData
                 _I2C1_MasterSendAck
              _rd1RegCompleteHandler *
_rd1RegCompleteHandler@i2c1_master_e *
              _rd2RegCompleteHandler *
_rd2RegCompleteHandler@i2c1_master_e *
            _rdBlkRegCompleteHandler *
_rdBlkRegCompleteHandler@i2c1_master *
              _wr1RegCompleteHandler *
_wr1RegCompleteHandler@i2c1_master_e *
              _wr2RegCompleteHandler *
_wr2RegCompleteHandler@i2c1_master_e *
 ---------------------------------------------------------------------------------
 (15) _I2C1_MasterSendAck                                  0     0      0       0
 ---------------------------------------------------------------------------------
 (15) _I2C1_MasterGetRxData                                0     0      0       0
 ---------------------------------------------------------------------------------
 (14) _I2C1_DO_RX_NACK_STOP                                0     0      0       0
                _I2C1_MasterSendNack
 ---------------------------------------------------------------------------------
 (14) _I2C1_DO_RX_NACK_RESTART                             0     0      0       0
                _I2C1_MasterSendNack
 ---------------------------------------------------------------------------------
 (15) _I2C1_MasterSendNack                                 0     0      0       0
 ---------------------------------------------------------------------------------
 (14) _I2C1_DO_RESET                                       0     0      0       0
 ---------------------------------------------------------------------------------
 (14) _I2C1_DO_RCEN                                        0     0      0       0
                 _I2C1_MasterStartRx
 ---------------------------------------------------------------------------------
 (15) _I2C1_MasterStartRx                                  0     0      0       0
 ---------------------------------------------------------------------------------
 (14) _I2C1_DO_IDLE                                        0     0      0       0
 ---------------------------------------------------------------------------------
 (14) _I2C1_DO_ADDRESS_NACK                                3     3      0   11269
                                             10 COMMON     3     3      0
                   Absolute function *
           _I2C1_CallbackReturnReset *
            _I2C1_CallbackReturnStop *
               _I2C1_DO_SEND_RESTART
                  _I2C1_DO_SEND_STOP
              _rd1RegCompleteHandler *
_rd1RegCompleteHandler@i2c1_master_e *
              _rd2RegCompleteHandler *
_rd2RegCompleteHandler@i2c1_master_e *
            _rdBlkRegCompleteHandler *
_rdBlkRegCompleteHandler@i2c1_master *
              _wr1RegCompleteHandler *
_wr1RegCompleteHandler@i2c1_master_e *
              _wr2RegCompleteHandler *
_wr2RegCompleteHandler@i2c1_master_e *
 ---------------------------------------------------------------------------------
 (15) _wr2RegCompleteHandler@i2c1_master_example$F169      1     0      1    1096
                                              9 COMMON     1     0      1
                   i1_I2C1_SetBuffer
     i1_I2C1_SetDataCompleteCallback
 ---------------------------------------------------------------------------------
 (15) _wr2RegCompleteHandler                               1     0      1    1096
                                              9 COMMON     1     0      1
                   i1_I2C1_SetBuffer
     i1_I2C1_SetDataCompleteCallback
 ---------------------------------------------------------------------------------
 (15) _wr1RegCompleteHandler@i2c1_master_example$F163      1     0      1    1096
                                              9 COMMON     1     0      1
                   i1_I2C1_SetBuffer
     i1_I2C1_SetDataCompleteCallback
 ---------------------------------------------------------------------------------
 (15) _wr1RegCompleteHandler                               1     0      1    1096
                                              9 COMMON     1     0      1
                   i1_I2C1_SetBuffer
     i1_I2C1_SetDataCompleteCallback
 ---------------------------------------------------------------------------------
 (15) _rdBlkRegCompleteHandler@i2c1_master_example$F180    1     0      1    1118
                                              9 COMMON     1     0      1
                   i1_I2C1_SetBuffer
     i1_I2C1_SetDataCompleteCallback
 ---------------------------------------------------------------------------------
 (15) _rdBlkRegCompleteHandler                             1     0      1    1118
                                              9 COMMON     1     0      1
                   i1_I2C1_SetBuffer
     i1_I2C1_SetDataCompleteCallback
 ---------------------------------------------------------------------------------
 (15) _rd2RegCompleteHandler@i2c1_master_example$F157      1     0      1    1096
                                              9 COMMON     1     0      1
                   i1_I2C1_SetBuffer
     i1_I2C1_SetDataCompleteCallback
 ---------------------------------------------------------------------------------
 (15) _rd2RegCompleteHandler                               1     0      1    1096
                                              9 COMMON     1     0      1
                   i1_I2C1_SetBuffer
     i1_I2C1_SetDataCompleteCallback
 ---------------------------------------------------------------------------------
 (15) _rd1RegCompleteHandler@i2c1_master_example$F146      1     0      1    1096
                                              9 COMMON     1     0      1
                   i1_I2C1_SetBuffer
     i1_I2C1_SetDataCompleteCallback
 ---------------------------------------------------------------------------------
 (15) _rd1RegCompleteHandler                               1     0      1    1096
                                              9 COMMON     1     0      1
                   i1_I2C1_SetBuffer
     i1_I2C1_SetDataCompleteCallback
 ---------------------------------------------------------------------------------
 (16) i1_I2C1_SetDataCompleteCallback                      4     1      3     770
                                              5 COMMON     4     1      3
                 i1_I2C1_SetCallback
 ---------------------------------------------------------------------------------
 (17) i1_I2C1_SetCallback                                  5     2      3     206
                                              0 COMMON     5     2      3
 ---------------------------------------------------------------------------------
 (16) i1_I2C1_SetBuffer                                    4     2      2     304
                                              0 COMMON     4     2      2
 ---------------------------------------------------------------------------------
 (15) _I2C1_DO_SEND_STOP                                   0     0      0       0
                    _I2C1_MasterStop
 ---------------------------------------------------------------------------------
 (16) _I2C1_MasterStop                                     0     0      0       0
 ---------------------------------------------------------------------------------
 (15) _I2C1_DO_SEND_RESTART                                0     0      0       0
           _I2C1_MasterEnableRestart
 ---------------------------------------------------------------------------------
 (16) _I2C1_MasterEnableRestart                            0     0      0       0
 ---------------------------------------------------------------------------------
 (15) _I2C1_CallbackReturnStop                             1     0      1       0
                                              9 COMMON     1     0      1
 ---------------------------------------------------------------------------------
 (15) _I2C1_CallbackReturnReset                            1     0      1     265
                                              9 COMMON     1     0      1
 ---------------------------------------------------------------------------------
 (15) Absolute function(Fake)                              1     0      1       0
 ---------------------------------------------------------------------------------
 Estimated maximum stack depth 17
 ---------------------------------------------------------------------------------

 Call Graph Graphs:

 _main (ROOT)
   _I2CSIMPLE_example
     _i2c_read1ByteRegister
       _I2C1_Close
         _I2C1_MasterClearIrq
         _I2C1_MasterClose
         _I2C1_MasterDisableIrq
       _I2C1_MasterWrite
         _I2C1_MasterOperation
           _I2C1_MasterStart
       _I2C1_Open
         _I2C1_MasterClearIrq
         _I2C1_MasterEnableIrq
         _I2C1_MasterOpen
         _I2C1_SetInterruptHandler
       _I2C1_SetAddressNackCallback
         _I2C1_SetCallback
       _I2C1_SetBuffer
       _I2C1_SetDataCompleteCallback
         _I2C1_SetCallback
     _printf
       _vfprintf
         _vfpfcnvrt
           _dtoa
             ___aodiv
             ___aomod
             _abs
               ___aomod (ARG)
             _pad
               _fputc
                 _putch
                   _EUSART_Write
               _fputs
                 _fputc
               _strlen
           _fputc
   _SYSTEM_Initialize
     _EUSART_Initialize
       _EUSART_SetErrorHandler
       _EUSART_SetFramingErrorHandler
       _EUSART_SetOverrunErrorHandler
     _I2C1_Initialize
     _OSCILLATOR_Initialize
     _PIN_MANAGER_Initialize
     _PMD_Initialize
     _WDT_Initialize
   _i2c_write1ByteRegister
     _I2C1_Close
     _I2C1_MasterWrite
     _I2C1_Open
     _I2C1_SetAddressNackCallback
     _I2C1_SetBuffer
     _I2C1_SetDataCompleteCallback

 _INTERRUPT_InterruptManager (ROOT)
   Absolute function(Fake) *
   _I2C1_MasterIsr *
     _I2C1_MasterFsm
       _I2C1_DO_ADDRESS_NACK *
         Absolute function(Fake) *
         _I2C1_CallbackReturnReset *
         _I2C1_CallbackReturnStop *
         _I2C1_DO_SEND_RESTART *
           _I2C1_MasterEnableRestart
         _I2C1_DO_SEND_STOP *
           _I2C1_MasterStop
         _rd1RegCompleteHandler *
           i1_I2C1_SetBuffer
           i1_I2C1_SetDataCompleteCallback
             i1_I2C1_SetCallback
         _rd1RegCompleteHandler@i2c1_master_example$F146 *
           i1_I2C1_SetBuffer
           i1_I2C1_SetDataCompleteCallback
         _rd2RegCompleteHandler *
           i1_I2C1_SetBuffer
           i1_I2C1_SetDataCompleteCallback
         _rd2RegCompleteHandler@i2c1_master_example$F157 *
           i1_I2C1_SetBuffer
           i1_I2C1_SetDataCompleteCallback
         _rdBlkRegCompleteHandler *
           i1_I2C1_SetBuffer
           i1_I2C1_SetDataCompleteCallback
         _rdBlkRegCompleteHandler@i2c1_master_example$F180 *
           i1_I2C1_SetBuffer
           i1_I2C1_SetDataCompleteCallback
         _wr1RegCompleteHandler *
           i1_I2C1_SetBuffer
           i1_I2C1_SetDataCompleteCallback
         _wr1RegCompleteHandler@i2c1_master_example$F163 *
           i1_I2C1_SetBuffer
           i1_I2C1_SetDataCompleteCallback
         _wr2RegCompleteHandler *
           i1_I2C1_SetBuffer
           i1_I2C1_SetDataCompleteCallback
         _wr2RegCompleteHandler@i2c1_master_example$F169 *
           i1_I2C1_SetBuffer
           i1_I2C1_SetDataCompleteCallback
       _I2C1_DO_IDLE *
       _I2C1_DO_RCEN *
         _I2C1_MasterStartRx
       _I2C1_DO_RESET *
       _I2C1_DO_RX *
         Absolute function(Fake) *
         _I2C1_CallbackReturnReset *
         _I2C1_CallbackReturnStop *
         _I2C1_DO_RX_NACK_RESTART *
           _I2C1_MasterSendNack
         _I2C1_DO_RX_NACK_STOP *
           _I2C1_MasterSendNack
         _I2C1_MasterGetRxData *
         _I2C1_MasterSendAck *
         _rd1RegCompleteHandler *
         _rd1RegCompleteHandler@i2c1_master_example$F146 *
         _rd2RegCompleteHandler *
         _rd2RegCompleteHandler@i2c1_master_example$F157 *
         _rdBlkRegCompleteHandler *
         _rdBlkRegCompleteHandler@i2c1_master_example$F180 *
         _wr1RegCompleteHandler *
         _wr1RegCompleteHandler@i2c1_master_example$F163 *
         _wr2RegCompleteHandler *
         _wr2RegCompleteHandler@i2c1_master_example$F169 *
       _I2C1_DO_RX_ACK *
         _I2C1_MasterSendAck
       _I2C1_DO_RX_NACK_RESTART *
       _I2C1_DO_RX_NACK_STOP *
       _I2C1_DO_SEND_ADR_READ *
         _I2C1_MasterSendTxData
       _I2C1_DO_SEND_ADR_WRITE *
         _I2C1_MasterSendTxData
       _I2C1_DO_SEND_RESTART *
       _I2C1_DO_SEND_RESTART_READ *
         _I2C1_MasterEnableRestart
       _I2C1_DO_SEND_RESTART_WRITE *
         _I2C1_MasterEnableRestart
       _I2C1_DO_SEND_STOP *
       _I2C1_DO_TX *
         Absolute function(Fake) *
         _I2C1_CallbackReturnReset *
         _I2C1_CallbackReturnStop *
         _I2C1_DO_SEND_RESTART_READ *
         _I2C1_DO_SEND_RESTART_WRITE *
         _I2C1_DO_SEND_STOP *
         _I2C1_MasterIsNack *
         _I2C1_MasterSendTxData *
         _rd1RegCompleteHandler *
         _rd1RegCompleteHandler@i2c1_master_example$F146 *
         _rd2RegCompleteHandler *
         _rd2RegCompleteHandler@i2c1_master_example$F157 *
         _rdBlkRegCompleteHandler *
         _rdBlkRegCompleteHandler@i2c1_master_example$F180 *
         _wr1RegCompleteHandler *
         _wr1RegCompleteHandler@i2c1_master_example$F163 *
         _wr2RegCompleteHandler *
         _wr2RegCompleteHandler@i2c1_master_example$F169 *
       _I2C1_DO_TX_EMPTY *
         Absolute function(Fake) *
         _I2C1_CallbackReturnReset *
         _I2C1_CallbackReturnStop *
         _I2C1_DO_SEND_RESTART *
         _I2C1_DO_SEND_STOP *
         _I2C1_MasterSetIrq *
         _rd1RegCompleteHandler *
         _rd1RegCompleteHandler@i2c1_master_example$F146 *
         _rd2RegCompleteHandler *
         _rd2RegCompleteHandler@i2c1_master_example$F157 *
         _rdBlkRegCompleteHandler *
         _rdBlkRegCompleteHandler@i2c1_master_example$F180 *
         _wr1RegCompleteHandler *
         _wr1RegCompleteHandler@i2c1_master_example$F163 *
         _wr2RegCompleteHandler *
         _wr2RegCompleteHandler@i2c1_master_example$F169 *
       _I2C1_MasterIsNack *
       i1_I2C1_MasterClearIrq *

 Address spaces:
Name               Size   Autos  Total    Cost      Usage
BIGRAM             3F0      0       0       0        0.0%
EEDATA             100      0       0       0        0.0%
NULL                 0      0       0       0        0.0%
CODE                 0      0       0       0        0.0%
BITCOMMON            E      0       0       1        0.0%
BITSFR0              0      0       0       1        0.0%
SFR0                 0      0       0       1        0.0%
COMMON               E      D       E       2      100.0%
BITSFR1              0      0       0       2        0.0%
SFR1                 0      0       0       2        0.0%
BITSFR2              0      0       0       3        0.0%
SFR2                 0      0       0       3        0.0%
STACK                0      0       0       3        0.0%
BITBANK0            50      0       0       4        0.0%
BITSFR3              0      0       0       4        0.0%
SFR3                 0      0       0       4        0.0%
BANK0               50     4A      4D       5       96.2%
BITSFR4              0      0       0       5        0.0%
SFR4                 0      0       0       5        0.0%
BITBANK1            50      0       0       6        0.0%
BITSFR5              0      0       0       6        0.0%
SFR5                 0      0       0       6        0.0%
BANK1               50     1D      4F       7       98.8%
BITSFR6              0      0       0       7        0.0%
SFR6                 0      0       0       7        0.0%
BITBANK2            50      0       0       8        0.0%
BITSFR7              0      0       0       8        0.0%
SFR7                 0      0       0       8        0.0%
BANK2               50      0      20       9       40.0%
BITSFR8              0      0       0       9        0.0%
SFR8                 0      0       0       9        0.0%
BITBANK3            50      0       0      10        0.0%
BITSFR9              0      0       0      10        0.0%
SFR9                 0      0       0      10        0.0%
BANK3               50      0       0      11        0.0%
BITSFR10             0      0       0      11        0.0%
SFR10                0      0       0      11        0.0%
BITBANK4            50      0       0      12        0.0%
BITSFR11             0      0       0      12        0.0%
SFR11                0      0       0      12        0.0%
BANK4               50      0       0      13        0.0%
BITSFR12             0      0       0      13        0.0%
SFR12                0      0       0      13        0.0%
BITBANK5            50      0       0      14        0.0%
BITSFR13             0      0       0      14        0.0%
SFR13                0      0       0      14        0.0%
BANK5               50      0       0      15        0.0%
BITSFR14             0      0       0      15        0.0%
SFR14                0      0       0      15        0.0%
BITBANK6            50      0       0      16        0.0%
BITSFR15             0      0       0      16        0.0%
SFR15                0      0       0      16        0.0%
BANK6               50      0       0      17        0.0%
BITSFR16             0      0       0      17        0.0%
SFR16                0      0       0      17        0.0%
BITBANK7            50      0       0      18        0.0%
BITSFR17             0      0       0      18        0.0%
SFR17                0      0       0      18        0.0%
BANK7               50      0       0      19        0.0%
BITSFR18             0      0       0      19        0.0%
SFR18                0      0       0      19        0.0%
BITSFR19             0      0       0      20        0.0%
SFR19                0      0       0      20        0.0%
ABS                  0      0      CA      20        0.0%
BITBANK8            50      0       0      21        0.0%
BITSFR20             0      0       0      21        0.0%
SFR20                0      0       0      21        0.0%
BANK8               50      0       0      22        0.0%
BITSFR21             0      0       0      22        0.0%
SFR21                0      0       0      22        0.0%
BITBANK9            50      0       0      23        0.0%
BITSFR22             0      0       0      23        0.0%
SFR22                0      0       0      23        0.0%
BANK9               50      0       0      24        0.0%
BITSFR23             0      0       0      24        0.0%
SFR23                0      0       0      24        0.0%
BITBANK10           50      0       0      25        0.0%
BITSFR24             0      0       0      25        0.0%
SFR24                0      0       0      25        0.0%
BANK10              50      0       0      26        0.0%
BITSFR25             0      0       0      26        0.0%
SFR25                0      0       0      26        0.0%
BITBANK11           50      0       0      27        0.0%
BITSFR26             0      0       0      27        0.0%
SFR26                0      0       0      27        0.0%
BANK11              50      0       0      28        0.0%
BITSFR27             0      0       0      28        0.0%
SFR27                0      0       0      28        0.0%
BITBANK12           30      0       0      29        0.0%
BITSFR28             0      0       0      29        0.0%
SFR28                0      0       0      29        0.0%
BANK12              30      0       0      30        0.0%
BITSFR29             0      0       0      30        0.0%
SFR29                0      0       0      30        0.0%
BITSFR30             0      0       0      31        0.0%
SFR30                0      0       0      31        0.0%
DATA                 0      0      CA      31        0.0%
BITSFR31             0      0       0      32        0.0%
SFR31                0      0       0      32        0.0%


Microchip Technology PIC Macro Assembler V2.35 build 20211206165544 
Symbol Table                                                                                   Wed Mar 01 14:34:57 2023

                                                      l52 0644  
                                                      l28 07BD  
                                                     l228 0547  
                                                     l332 0D29  
                                                     l405 0D2C  
                                                     l414 0CDA  
                                                     l335 0C89  
                                                     l408 0D33  
                                                     l432 0D05  
                                                     l329 0E06  
                                                     l426 0D0E  
                                                     l338 0CEA  
                                                     l429 0D17  
                                                     l381 0F26  
                                                     l285 0751  
                                                     l711 0C70  
                                                     l543 0690  
                                                     l553 0EB9  
                                                     l547 0EDA  
                                                     l539 0D20  
                                                     l708 0D4D  
                                                     l750 0C79  
                                                     l566 0E32  
                                                     l559 0CC0  
                                                     l575 0D5B  
                                                     l584 0CFC  
                                                     l729 0C76  
                                                     l569 07FF  
                                                     l756 0C73  
                                                     l589 0F4D  
                                                     l759 0C6D  
                                   ?_I2C1_MasterOperation 0070  
                                                     _abs 0E7E  
                                                     _pad 0548  
                          ?_EUSART_SetFramingErrorHandler 0023  
                                                     wreg 0009  
                                  ?_I2C1_MasterSendTxData 0070  
                                    _I2C1_DO_RX_NACK_STOP 0CAD  
                               ?_I2C1_MasterEnableRestart 0070  
                                    I2C1_SetBuffer@buffer 0026  
                                  ?i1_I2C1_MasterClearIrq 0070  
                                                    ?_abs 0036  
                                                    l1060 02A7  
                                 ??_rd2RegCompleteHandler 007A  
                                                    l1061 02B8  
                                                    l3000 0D49  
                                                    l1073 0489  
                                                    l3010 0C6E  
                                                    l3002 0D4C  
                                                    l1074 049A  
                                                    l3020 0EAB  
                                                    l3012 0E9C  
                                                    l3022 0EAF  
                                                    l3014 0EA3  
                                                    l3006 0C77  
                                                    l3030 0F29  
                                                    l1502 0E99  
                                                    l1423 0E1B  
                                                    l3008 0C71  
                                                    l3200 0ECF  
                                                    l3024 0EB4  
                                                    l3016 0EA4  
                                                    l3032 0F2F  
                                                    l4000 0576  
                                                    l3202 0ED2  
                                                    l3018 0EA6  
                                                    l3026 0EB7  
                                                    l3034 0F40  
                                                    l1514 0719  
                                                    l1522 0F76  
                                                    l4002 0589  
                                                    l1450 0562  
                                                    l4010 004A  
                                                    l3210 0D0F  
                                                    l3204 0ED8  
                                                    l3140 0E1E  
                                                    l4020 00AB  
                                                    l4012 005A  
                                                    l4100 0385  
                                                    l3212 0CFD  
                                                    l1453 0584  
                                                    l3150 064E  
                                                    l3142 0E23  
                                                    l4006 0E7E  
                                                    l1454 0591  
                                                    l4030 00D3  
                                                    l4022 00B1  
                                                    l4014 006D  
                                                    l1455 059D  
                                                    l1463 00B9  
                                                    l3160 0666  
                                                    l3152 0654  
                                                    l3144 0E31  
                                                    l3400 061C  
                                                    l4008 0E8C  
                                                    l1528 0E7D  
                                                    l4040 0112  
                                                    l4032 00D6  
                                                    l1464 00CF  
                                                    l4024 00C1  
                                                    l4016 0073  
                                                    l4104 0388  
                                                    l4120 07EC  
                                                    l4112 07C0  
                                                    l3208 0D06  
                                                    l1481 01B3  
                                                    l3170 0676  
                                                    l3162 0667  
                                                    l3154 0655  
                                                    l3146 07F2  
                                                    l3410 063D  
                                                    l3402 0627  
                                                    l4042 014D  
                                                    l4050 017A  
                                                    l4034 00DB  
                                                    l4026 00C7  
                                                    l4018 0096  
                                                    l1458 0091  
                                                    l4106 03A3  
                                                    l4114 07C8  
                                                    l4130 049B  
                                                    l1467 013F  
                                                    l1459 009B  
                                                    l3172 067B  
                                                    l3164 066C  
                                                    l3156 0656  
                                                    l3180 068E  
                                                    l3148 0647  
                                                    l3412 0643  
                                                    l3404 0633  
                                                    l4060 0194  
                                                    l4052 0181  
                                                    l4044 015A  
                                                    l4036 010A  
                                                    l4028 00CB  
                                                    l4116 07CC  
                                                    l4124 0E07  
                                                    l4140 0523  
                                                    l4132 04EA  
                                                    l3500 078B  
                                                    l3190 0EBA  
                                                    l3174 0683  
                                                    l3166 0670  
                                                    l3158 0661  
                                                    l4062 0198  
                                                    l4054 0185  
                                                    l4046 0167  
                                                    l4038 010E  
                                                    l4070 02CD  
                                                    l4118 07E2  
                                                    l4126 0E0C  
                                                    l4142 052F  
                                                    l4134 04F9  
                                                    l3430 0725  
                                                    l3422 071A  
                                                    l3510 07B5  
                                                    l3502 078B  
                                                    l4150 0756  
                                                    l1495 07F1  
                                                    l3192 0EC2  
                                                    l3176 0686  
                                                    l3168 0675  
                                                    l3184 0D4E  
                                                    l3408 0639  
                                                    l4056 0189  
                                                    l4064 01A1  
                                                    l4048 0175  
                                                    l1488 03AD  
                                                    l4080 0303  
                                                    l4072 02D5  
                                                    l4144 053B  
                                                    l4136 0508  
                                                    l3440 0739  
                                                    l3432 0728  
                                                    l3424 071E  
                                                    l3504 0795  
                                                    l4152 0757  
                                                    l3194 0EC3  
                                                    l3186 0CBC  
                                                    l3178 0689  
                                                    l4058 018F  
                                                    l4090 0362  
                                                    l4082 030B  
                                                    l4074 02DB  
                                                    l4138 0517  
                                                    l3450 0745  
                                                    l3442 073B  
                                                    l3434 072A  
                                                    l3426 0721  
                                                    l3530 0DF7  
                                                    l3506 07A1  
                                                    l4154 0767  
                                                    l4146 0752  
                                                    l1499 0E99  
                                                    l3196 0EC9  
                                                    l4092 036A  
                                                    l4084 0327  
                                                    l4076 02E0  
                                                    l4068 02BB  
                                                    l3452 0747  
                                                    l3444 073E  
                                                    l3436 0734  
                                                    l3428 0723  
                                                    l3460 0CE3  
                                                    l3532 0DFA  
                                                    l3508 07AA  
                                                    l4156 0777  
                                                    l4148 0755  
                                                    l3198 0ECC  
                                                    l4094 0377  
                                                    l4078 02F2  
                                                    l3462 0D18  
                                                    l3470 0D21  
                                                    l3454 074A  
                                                    l3446 0740  
                                                    l3438 0737  
                                                    l3534 0DFD  
                                                    l4158 077A  
                                                    l2840 0C74  
                                                    l4088 0351  
                                                    l3480 0F01  
                                                    l3464 0D1A  
                                                    l3472 0D24  
                                                    l3456 074C  
                                                    l3448 0742  
                                                    l3536 0E00  
                                                    l3528 0DF4  
                                                    l3394 05FD  
                                                    l4098 037D  
                                                    l3482 0F0C  
                                                    l3466 0D1C  
                                                    l3474 0D25  
                                                    l3458 074E  
                                                    l3538 0E03  
                                                    l3396 0607  
                                                    l3388 05F5  
                                                    l3900 0F50  
                                                    l3484 0F14  
                                                    l3468 0D1F  
                                                    l3476 0D28  
                                                    l3398 0613  
                                                    l3902 0F53  
                                                    l3910 0E6A  
                                                    l3486 0F1C  
                                                    l3478 0C86  
                                                    ?_pad 0035  
                                                    l3920 01B6  
                                                    l3904 0F61  
                                                    l3912 0E6E  
                                                    l3488 0F24  
                                                    l3930 0211  
                                                    l3922 01C0  
                                                    l3906 0F66  
                                                    l3914 0E77  
                                                    l3940 0237  
                                                    l3932 021C  
                                                    l3924 01E2  
                                                    l3908 0E65  
                                                    l2990 0CF4  
                                                    l3950 0276  
                                                    l3942 023B  
                                                    l3934 0228  
                                                    l3926 01ED  
                                                    l3918 01B4  
                                                    l2992 0C6B  
                                                    l3944 0243  
                                                    l3936 022B  
                                                    l3952 0284  
                                                    l3928 020C  
                                                    l3960 03BA  
                                                    l3880 0D2C  
                                                    l2994 0D41  
                                                    l3954 0289  
                                                    l3946 0265  
                                                    l3938 0233  
                                                    l3970 0416  
                                                    l3962 03DC  
                                                    l3882 0D30  
                                                    l3890 06E2  
                                                    l2996 0D46  
                                                    l3948 0275  
                                                    l3980 0458  
                                                    l3972 041E  
                                                    l3964 03E7  
                                                    l3956 03AE  
                                                    l3884 0CD6  
                                                    l3892 06E7  
                                                    l2998 0D47  
                                                    l3974 0422  
                                                    l3982 0466  
                                                    l3966 0406  
                                                    l3958 03B0  
                                                    l3894 06F1  
                                                    l3886 06D7  
                                                    l3990 0556  
                                                    l3984 046B  
                                                    l3976 0426  
                                                    l3968 0413  
                                                    l3896 070F  
                                                    l3888 06DD  
                                                    l3992 055B  
                                                    l3978 0448  
                                                    l3994 0560  
                                                    l3986 054A  
                                                    l3996 0565  
                                                    l3988 054E  
                                                    l3998 0571  
                                                    STR_1 1020  
                                                    STR_2 1029  
                                                    STR_3 1032  
                                                    u2200 070F  
                                                    u2201 070E  
                                                    u2210 0F76  
                                                    u2211 0F75  
                                                    u2300 0265  
                                                    u2220 0E77  
                                                    u2301 0264  
                                                    u2205 070B  
                                                    u2221 0E76  
                                                    _LATA 010C  
                                                    u2310 0284  
                                                    u2230 01C0  
                                                    _LATB 010D  
                                                    u2311 0283  
                                                    u2231 01BF  
                                                    _LATC 010E  
                                                    u2320 0289  
                                                    u2400 0448  
                                                    u2160 0D30  
                                                    u2321 0288  
                                                    u2305 0261  
                                                    u2401 0447  
                                                    u2161 0D2F  
                                                    u1610 0D46  
                                                    u2250 01ED  
                                                    u2410 0466  
                                                    u2170 06DD  
                                                    u1611 0D45  
                                                    u2251 01EC  
                                                    u2411 0465  
                                                    u2171 06DC  
                                                    u1620 0EA3  
                                                    u1700 064E  
                                                    u2420 046B  
                                                    u2340 03BA  
                                                    u2180 06E2  
                                                    u2500 0066  
                                                    u1621 0EA2  
                                                    u1701 064D  
                                                    u2421 046A  
                                                    u2405 0444  
                                                    u2341 03B9  
                                                    u2181 06E1  
                                                    u1710 0EC2  
                                                    u1630 0EAB  
                                                    u2270 0219  
                                                    u2190 06F1  
                                                    u2510 0073  
                                                    u1711 0EC1  
                                                    u1631 0EAA  
                                                    u2191 06F0  
                                                    u2511 0072  
                                                    u1640 0F2F  
                                                    u2280 0228  
                                                    u2360 03E7  
                                                    u2440 054E  
                                                    u2600 0175  
                                                    u1641 0F2E  
                                                    u2281 0227  
                                                    u2361 03E6  
                                                    u2441 054D  
                                                    u2601 0174  
                                                    u2290 023B  
                                                    u2450 055B  
                                                    u2610 017A  
                                                    u2530 0096  
                                                    u2291 023A  
                                                    u2451 055A  
                                                    u2611 0179  
                                                    u2531 0095  
                                                    u2380 0413  
                                                    u2460 0584  
                                                    u2620 0181  
                                                    u2540 00AB  
                                                    u1820 0795  
                                                    u2381 0412  
                                                    u2461 0583  
                                                    u2621 0180  
                                                    u2605 0171  
                                                    u2541 00AA  
                                                    u1821 0794  
                                                    u2390 0426  
                                                    u2470 0589  
                                                    u2630 0185  
                                                    u2550 00C7  
                                                    u1830 07BD  
                                                    u2391 0425  
                                                    u2471 0588  
                                                    u2631 0184  
                                                    u2551 00C6  
                                                    u1831 07BC  
                                                    u1760 0607  
                                                    u2480 0E8C  
                                                    u2640 018F  
                                                    u2560 00CB  
                                                    u1761 0606  
                                                    u2481 0E8B  
                                                    u2465 0580  
                                                    u2641 018E  
                                                    u2561 00CA  
                                                    u2545 00A7  
                                                    u1690 0E23  
                                                    u1770 0633  
                                                    u2570 014D  
                                                    u2490 0065  
                                                    u2650 02CD  
                                                    u1691 0E22  
                                                    u1771 0632  
                                                    u2571 014C  
                                                    u2491 0063  
                                                    u2651 02CC  
                                                    u2707 0780  
                                                    u1780 0638  
                                                    u2580 015A  
                                                    u2660 02F2  
                                                    u1781 0637  
                                                    u2485 0E88  
                                                    u2581 0159  
                                                    u2661 02F1  
                                                    u2717 051D  
                                                    u1790 0643  
                                                    u2590 0167  
                                                    u2670 0303  
                                                    u1791 0642  
                                                    u2591 0166  
                                                    u2575 0149  
                                                    u2671 0302  
                                                    u2680 0362  
                                                    u2681 0361  
                                                    u2690 07EC  
                                                    u2595 0163  
                                                    u2691 07EB  
                                                    _PMD0 0911  
                                                    _PMD1 0912  
                                                    _PMD2 0913  
                                                    _PMD3 0914  
                                                    i1l40 0D9E  
                                                    _PMD4 0915  
                                                    _PMD5 0916  
                                                    i1l19 0D8D  
                                                    i1l55 0DAF  
                                                    i1l67 0DC0  
                                                    i1l79 0E4A  
                                                    _WPUA 020C  
                                                    _WPUB 020D  
                                                    _WPUC 020E  
                                 ??_wr2RegCompleteHandler 007A  
                                        ??_I2C1_MasterFsm 0020  
                                        ??_I2C1_MasterIsr 007D  
                               ??_I2C1_CallbackReturnStop 007A  
                                                    abs@a 0036  
                                                    _dbuf 0120  
                                                    _main 0752  
                                                    _dtoa 0048  
                                                    _prec 00C1  
                                                    _nout 00BD  
                                                    pad@i 0039  
                                                    pad@p 0036  
                                                    fsr0h 0005  
                                                    fsr1h 0007  
                                                    indf0 0000  
                                                    fsr0l 0004  
                                                    indf1 0001  
                                                    fsr1l 0006  
                                                    pad@w 003B  
                                                    btemp 007E  
                                                    start 0028  
                                        ??_I2C1_SetBuffer 0025  
                           I2C1_CallbackReturnStop@funPtr 0079  
                                                   ??_abs 0038  
                                                   ??_pad 0038  
                                  _i2c_write1ByteRegister 0789  
                                           ?_EUSART_Write 0070  
                           __end_of_OSCILLATOR_Initialize 0D2A  
                                         __end_of___aodiv 02B9  
                                       __end_of_I2C1_Open 0691  
                                                   ?_main 0070  
                                                   ?_dtoa 003E  
                                         __end_of___aomod 049B  
                                                   i1l201 0E62  
                                                   i1l192 0DE2  
                                                   i1l602 0CF3  
                                                   i1l195 0DF3  
                                                   i1l611 05F2  
                                                   i1l189 0DD1  
                                                   i1l605 0CE2  
                                                   i1l198 0D7C  
                                                   i1l720 0C5B  
                                                   i1l608 05D6  
                                                   i1l624 06AE  
                                                   i1l625 06D6  
                                                   i1l714 0C64  
                                                   i1l642 0FFF  
                                                   i1l732 0C5E  
                                                   i1l636 0CD3  
                                                   i1l660 0C98  
                                                   i1l741 0C7D  
                                                   i1l717 0C8E  
                                                   i1l566 0D6B  
                                                   i1l726 0C61  
                                                   i1l735 0CC6  
                                                   i1l663 0C9D  
                                                   i1l672 0CAC  
                                                   i1l592 0C85  
                                                   i1l569 0D40  
                                                   i1l681 0CBB  
                                                   i1l738 0C81  
                                                   i1l762 0C67  
                                                   i1l666 0CA2  
                                                   i1l675 0CB1  
                                                   i1l596 0FD0  
                                                   i1l589 0F00  
                                                   i1l669 0CA7  
                                                   i1l678 0CB6  
                                                   i1l695 0C58  
                                                   i1l599 0C93  
                                                   i1l687 0FA2  
                                                   i1l759 0C6A  
                                                   i1l783 001B  
                                                   i1l784 0026  
                                                   i1l698 0003  
                                                   i1l788 0026  
                              __end_of_i2c1_fsmStateTable 1020  
                                                   _OSCEN 091D  
                                            vfpfcnvrt@fmt 005C  
                                  ??_I2C1_MasterEnableIrq 0023  
                                                   _TRISA 008C  
                                                   _TRISB 008D  
                                                   _TRISC 008E  
                                  ??_I2C1_MasterGetRxData 0070  
                                                   _RXPPS 0E24  
                                   ?_I2C1_DO_RX_NACK_STOP 0070  
                              ??_I2C1_CallbackReturnReset 007A  
                                       ??_I2C1_MasterOpen 0023  
                                       ??_I2C1_MasterStop 0070  
                                       ??_I2C1_Initialize 0023  
                                                   _flags 006A  
                                          _WDT_Initialize 0C86  
                                                   _fputc 06D7  
                                I2CSIMPLE_example@total_x 00E1  
                                I2CSIMPLE_example@total_y 00E3  
                                I2CSIMPLE_example@total_z 00E5  
                                                   _fputs 0F4E  
                                                   pad@fp 003D  
                                                   _width 00BF  
                                                   _putch 0CD4  
                                   _i2c_read1ByteRegister 05F3  
                                                   dtoa@d 003E  
                                                   dtoa@i 005A  
                                                   dtoa@n 0052  
                                                   dtoa@p 004C  
                                                   dtoa@s 0050  
                                                   dtoa@w 004E  
       rd1RegCompleteHandler@i2c1_master_example$F146@ptr 0079  
       wr1RegCompleteHandler@i2c1_master_example$F163@ptr 0079  
                                                   pclath 000A  
     rdBlkRegCompleteHandler@i2c1_master_example$F180@ptr 0079  
       rd2RegCompleteHandler@i2c1_master_example$F157@ptr 0079  
       wr2RegCompleteHandler@i2c1_master_example$F169@ptr 0079  
                               i2c_write1ByteRegister@reg 002C  
                                                   status 0003  
                                                   wtemp0 007E  
                                            ??_I2C1_DO_RX 007A  
                                            ??_I2C1_DO_TX 007A  
                                    i1I2C1_SetCallback@cb 0070  
                                  ??_I2C1_DO_ADDRESS_NACK 007A  
                                            ??_I2C1_Close 0023  
                                         __initialization 002A  
                                            __end_of_main 0789  
                                            __end_of_dtoa 01B4  
                                          ??_EUSART_Write 0023  
                             ?_INTERRUPT_InterruptManager 0070  
                                  ??_I2C1_MasterOperation 0023  
                                                  ??_main 00E7  
                                                  ??_dtoa 0046  
                                      __end_of_I2C1_DO_RX 06D7  
                                      __end_of_I2C1_DO_TX 05F3  
                                  __end_of_WDT_Initialize 0C8A  
                                      __end_of_I2C1_Close 0EDB  
                       _EUSART_DefaultFramingErrorHandler 0000  
                              _EUSART_OverrunErrorHandler 00EB  
                                                  ?_fputc 0025  
                                                  ?_fputs 002D  
                                                  _ANSELA 018C  
                                                  ?_putch 0070  
                                                  _ANSELB 018D  
                                                  _ANSELC 018E  
                                                  _RC1REG 0199  
                                                  _RC1PPS 0EA1  
                                                  _RC1STA 019D  
                                                  _RC2PPS 0EA2  
                                                  _RB7PPS 0E9F  
                                                  i1l3040 0C8B  
                                                  _ODCONA 028C  
                                                  i1l3042 0C94  
                                                  i1l3050 0C9C  
                                                  _ODCONB 028D  
                                                  _ODCONC 028E  
                                                  i1l3060 0C62  
                                                  i1l3036 0CC1  
                                                  i1l3044 0C97  
                                                  i1l3214 0C8F  
                                                  i1l3222 0CEB  
                                                  i1l3230 0CDB  
                                                  i1l3054 0CA3  
                                                  i1l3064 0C7E  
                                                  i1l3320 0FDB  
                                                  i1l3312 0FD1  
                                                  i1l3216 0C91  
                                                  i1l3224 0CED  
                                                  i1l3232 0CDD  
                                                  i1l3304 0CCD  
                                                  i1l3048 0C99  
                                                  i1l3080 0C9E  
                                                  i1l3056 0CA6  
                                                  i1l3072 0CAD  
                                                  i1l3314 0FD4  
                                                  i1l3330 0FE1  
                                                  i1l3218 0C92  
                                                  i1l3226 0CF2  
                                                  i1l3234 0CE1  
                                                  i1l3250 05AF  
                                                  i1l3242 05A7  
                                                  i1l3306 0CCF  
                                                  i1l3082 0CA1  
                                                  i1l3074 0CB0  
                                                  i1l3066 0CB2  
                                                  i1l3092 0002  
                                                  i1l3324 0FDD  
                                                  i1l3260 05E4  
                                                  i1l3308 0CD2  
                                                  i1l3340 0CAB  
                                                  i1l3068 0CB5  
                                                  i1l3078 0C5F  
                                                  i1l3086 0C65  
                                                  i1l3318 0FD8  
                                                  i1l3262 05EF  
                                                  i1l3246 05AB  
                                                  i1l3238 059E  
                                                  i1l3088 0C57  
                                                  i1l3264 05F1  
                                                  i1l3256 05B3  
                                                  i1l3280 06AC  
                                                  i1l3272 0691  
                                                  i1l3344 0CB7  
                                                  i1l3360 0F82  
                                                  i1l3352 0F77  
                                                  i1l3258 05D8  
                                                  i1l3290 06B4  
                                                  i1l3274 069B  
                                                  i1l3338 0CA8  
                                                  i1l3346 0CB9  
                                                  i1l3354 0F79  
                                                  i1l3276 069F  
                                                  i1l3348 0CBA  
                                                  i1l3356 0F7E  
                                                  i1l2910 0D6A  
                                                  i1l3286 06B0  
                                                  i1l3278 06A9  
                                                  i1l4270 0F9A  
                                                  i1l3366 0F86  
                                                  i1l2912 0D34  
                                                  i1l4272 06C8  
                                                  i1l3296 06B8  
                                                  i1l3552 0C82  
                                                  u211_20 000A  
                                                  u211_21 0009  
                                                  i1l2842 0C59  
                                                  i1l2906 0D5D  
                                                  i1l2834 0EDC  
                                                  i1l2914 0D7D  
                                                  i1l2922 0D8E  
                                                  i1l2930 0D9F  
                                                  i1l4274 05C8  
                                                  i1l3386 0C68  
                                                  i1l3490 0FA3  
                                                  i1l2844 0C5C  
                                                  i1l2908 0D62  
                                                  i1l2836 0EE2  
                                                  i1l2916 0D85  
                                                  i1l2924 0D96  
                                                  i1l2932 0DA7  
                                                  i1l2940 0DB8  
                                                  i1l4276 0FF1  
                                                  i1l3492 0FA6  
                                                  i1l2838 0EF3  
                                                  i1l2918 0D8C  
                                                  i1l2926 0D9D  
                                                  i1l2934 0DAE  
                                                  i1l2942 0DBF  
                                                  i1l2846 0C7A  
                                                  i1l3494 0FAB  
                                                  i1l3750 0014  
                                                  i1l2952 0DC1  
                                                  i1l2960 0DD2  
                                                  i1l3496 0FB3  
                                                  i1l3752 0020  
                                                  u212_20 000F  
                                                  i1l3744 0006  
                                                  u212_21 000E  
                                                  i1l2938 0DB0  
                                                  i1l2946 0E33  
                                                  i1l2954 0DC9  
                                                  i1l2962 0DDA  
                                                  i1l2970 0DEB  
                                                  i1l3498 0FB9  
                                                  i1l3746 000A  
                                                  i1l2980 0D7B  
                                                  i1l2948 0E49  
                                                  i1l2956 0DD0  
                                                  i1l2964 0DE1  
                                                  i1l2972 0DF2  
                                                  i1l3748 000F  
                                                  i1l2976 0D6C  
                                                  i1l2968 0DE3  
                                                  i1l2984 0E4B  
                                                  u213_20 0014  
                                                  u213_21 0013  
                                                  i1l2978 0D74  
                                                  i1l2986 0E61  
                                                  u214_20 0020  
                                                  u214_21 001F  
                                                  u143_20 0EE2  
                                                  u215_20 0025  
                                                  u143_21 0EE1  
                                                  u215_21 0024  
                                                  u160_20 0D62  
                                                  u160_21 0D61  
                                                  _INLVLA 038C  
                                                  _INLVLB 038D  
                                                  _INLVLC 038E  
                                                  u172_20 05A6  
                                                  u180_20 0FAB  
                                                  u172_21 05A5  
                                                  u180_21 0FAA  
                                                  u173_20 05EF  
                                                  u181_20 0FB3  
                                                  u173_21 05EE  
                                                  u181_21 0FB2  
                                                  u174_20 06A9  
                                                  u174_21 06A8  
                                                  _OSCFRQ 091F  
                                                  u224lld 01DF  
                                                  u233lld 02A7  
                                                  u226lld 020C  
                                                  u243lld 0489  
                                                  u235lld 03D9  
                                                  u252lld 0091  
                                                  u237lld 0406  
                                                  _TX1REG 019A  
                                                  _WDTCON 0097  
                                                  _TX1STA 019E  
                                       ?_I2C1_MasterClose 0070  
                                rdBlkRegCompleteHandler@p 0079  
                                 ??_I2C1_MasterDisableIrq 0023  
                                       ?_I2C1_MasterStart 0070  
                                       ?_I2C1_MasterWrite 0070  
                                      ??_I2C1_MasterClose 0023  
                                        _I2C1_DO_TX_EMPTY 0FD1  
                                      ??_I2C1_MasterStart 0023  
                                      ??_I2C1_MasterWrite 0026  
                                            vfprintf@cfmt 0066  
                                               ??___aodiv 0033  
                                               ??___aomod 0033  
                                __end_ofi1_I2C1_SetBuffer 0D6C  
                                                  _printf 0E07  
                                                  pad@buf 0035  
                                                  dtoa@fp 004B  
                                ??_I2C1_DO_SEND_ADR_WRITE 0071  
                                                  _strlen 0E63  
                                       ?_I2C1_SetCallback 0023  
                                  ??_I2C1_DO_RX_NACK_STOP 0070  
                        __end_of_I2C1_SetInterruptHandler 0CFD  
                                   _I2C1_DO_SEND_ADR_READ 0CEB  
                                                  fputc@c 0025  
                                          _PMD_Initialize 0CE3  
                                                  fputs@c 0031  
                                                  fputs@i 0032  
                                                  fputs@s 0034  
                                            __pdataCOMMON 007D  
                           ?_I2C1_SetDataCompleteCallback 0028  
                        ??i1_I2C1_SetDataCompleteCallback 0078  
                         ?i1_I2C1_SetDataCompleteCallback 0075  
                              i2c_write1ByteRegister@data 002D  
                                      ??_I2C1_SetCallback 0026  
                                         ?_WDT_Initialize 0070  
                                        __end_of_vfprintf 07F2  
                                  ?_i2c_read1ByteRegister 002C  
                I2C1_SetInterruptHandler@InterruptHandler 0023  
                                 _I2C1_DO_RX_NACK_RESTART 0CB2  
                                   i1I2C1_SetCallback@idx 0074  
                                   i1I2C1_SetCallback@ptr 0072  
                                       _SYSTEM_Initialize 0DF4  
                          I2C1_SetDataCompleteCallback@cb 0028  
                                 __end_of__initialization 0044  
                         I2C1_MasterOperation@returnValue 0025  
                                      ?_SYSTEM_Initialize 0070  
                                 _rdBlkRegCompleteHandler 0E33  
                                          __pcstackCOMMON 0070  
                                            __pidataBANK0 0C55  
                                     ??_SYSTEM_Initialize 0025  
                        __end_of_I2C1_MasterEnableRestart 0C5C  
                                           __end_of_fputc 071A  
                                           __end_of_fputs 0F77  
                                           __end_of_putch 0CDB  
                                  __end_of_PMD_Initialize 0CEB  
                            ??_I2C1_DO_SEND_RESTART_WRITE 0070  
                                 ??_I2C1_MasterSendTxData 0070  
                                 ??i1_I2C1_MasterClearIrq 0070  
                                   __end_of_I2C1_DO_RESET 0CBC  
                         ??_EUSART_SetOverrunErrorHandler 0025  
                                                 ??_fputc 0028  
                               __end_of_SYSTEM_Initialize 0E07  
                                                 ??_fputs 002E  
                                                 ??_putch 0024  
                                              __pbssBANK0 006A  
                                              __pbssBANK1 00A0  
                                              __pbssBANK2 0120  
                                    __end_of_EUSART_Write 0D34  
                           __end_of_rd2RegCompleteHandler 0DB0  
                                    I2C1_Open@returnValue 0027  
                           __end_of_wr2RegCompleteHandler 0DC1  
                                   _rd1RegCompleteHandler 0D8E  
                                       _I2C1_DO_SEND_STOP 0CA3  
                                   _wr1RegCompleteHandler 0D7D  
                                              __pmaintext 0752  
                                 ?_i2c_write1ByteRegister 002C  
                                      ?_I2C1_DO_SEND_STOP 0070  
                                         _I2C1_MasterOpen 0D41  
                                              __pintentry 0004  
                                         _I2C1_MasterStop 0C5C  
                                         _I2C1_Initialize 0D18  
                                                 ?_printf 00D8  
                                         ?_PMD_Initialize 0070  
                                  ?_I2C1_DO_SEND_ADR_READ 0070  
                                     ??_I2C1_DO_SEND_STOP 0070  
                                                 ?_strlen 0023  
                                       _I2C1_MasterIsNack 0CC1  
                                                 _SP1BRGH 019C  
                                                 _SP1BRGL 019B  
                                                 _OSCCON1 0919  
                                                 _OSCCON3 091B  
                                               _I2C1_Open 0645  
                               ??_I2C1_DO_RX_NACK_RESTART 0070  
                                                 _OSCTUNE 091E  
                                       _I2C1_MasterSetIrq 0C65  
                                                 _SSP1ADD 0212  
                                                 _SLRCONA 030C  
                                                 _SLRCONB 030D  
                                                 _SLRCONC 030E  
                                                 _SSP1BUF 0211  
                                _I2C1_SetInterruptHandler 0CF4  
                                      ?_I2C1_MasterIsNack 0070  
                              ?_I2C1_DO_SEND_RESTART_READ 0070  
                                ??_EUSART_SetErrorHandler 0025  
                           i2c_write1ByteRegister@address 002F  
                          ??_I2C1_SetDataCompleteCallback 002B  
                                      ?_I2C1_MasterSetIrq 0070  
                                      _i2c1_fsmStateTable 1000  
                                     ??_I2C1_MasterIsNack 0070  
  __end_of_rd1RegCompleteHandler@i2c1_master_example$F146 0DD2  
          _rd1RegCompleteHandler@i2c1_master_example$F146 0DC1  
  __end_of_wr1RegCompleteHandler@i2c1_master_example$F163 0DF4  
          _wr1RegCompleteHandler@i2c1_master_example$F163 0DE3  
__end_of_rdBlkRegCompleteHandler@i2c1_master_example$F180 0E63  
        _rdBlkRegCompleteHandler@i2c1_master_example$F180 0E4B  
  __end_of_rd2RegCompleteHandler@i2c1_master_example$F157 0DE3  
          _rd2RegCompleteHandler@i2c1_master_example$F157 0DD2  
  __end_of_wr2RegCompleteHandler@i2c1_master_example$F169 0D7D  
          _wr2RegCompleteHandler@i2c1_master_example$F169 0D6C  
                               __end_of_I2C1_DO_SEND_STOP 0CA8  
                               ??_rdBlkRegCompleteHandler 007A  
                                      I2C1_SetCallback@cb 0023  
                                     ??_I2C1_MasterSetIrq 0070  
                          __end_of_i2c_write1ByteRegister 07BE  
                                                 ___aodiv 01B4  
                                                 ___aomod 03AE  
                                               ?_vfprintf 00D5  
                                           ?_I2C1_DO_IDLE 0070  
                                           ?_I2C1_DO_RCEN 0070  
                                                 __ptext1 0789  
                                                 __ptext2 0DF4  
                                                 __ptext3 0C86  
                                                 __ptext4 0CE3  
                                                 __ptext5 071A  
                                                 __ptext6 0D21  
                                                 __ptext7 0D18  
                                                 __ptext8 0F01  
                                                 __ptext9 0D0F  
                                _I2C1_MasterEnableRestart 0C59  
                               __end_of_I2C1_MasterIsNack 0CC7  
                            ?_I2C1_SetAddressNackCallback 0028  
                                           _receiveData17 006C  
                                   _OSCILLATOR_Initialize 0D21  
                                           _receiveDataxh 00CA  
                                           _receiveDatayh 00C8  
                                           _receiveDataxl 00CB  
                                           _receiveDatazh 00C6  
                                           _receiveDatayl 00C9  
                                           _receiveDatazl 00C7  
                               __end_of_I2C1_MasterSetIrq 0C68  
                                __end_of_I2C1_DO_TX_EMPTY 1000  
                                ??_PIN_MANAGER_Initialize 0023  
                                              ?_I2C1_Open 0070  
                                ?_I2C1_CallbackReturnStop 0079  
                                 i2c_read1ByteRegister@d2 0032  
                                                 clrloop0 0CC8  
                       __end_of_I2C1_DO_SEND_RESTART_READ 0C99  
                                    end_of_initialization 0044  
                              __end_of_I2C1_MasterSendAck 0C82  
                                     _I2C1_MasterClearIrq 0C6B  
                   __end_of_EUSART_SetOverrunErrorHandler 0D18  
                           _EUSART_SetOverrunErrorHandler 0D0F  
                                                 fputc@fp 0027  
                              __end_of_I2C1_MasterStartRx 0C62  
                                                 fputs@fp 002D  
                                  ?_rd1RegCompleteHandler 0079  
                                  _I2C1_DO_SEND_ADR_WRITE 0CDB  
                            __end_of_I2C1_DO_SEND_RESTART 0CA3  
                                       _EUSART_Initialize 0F01  
                                 __end_of_I2C1_MasterOpen 0D4E  
                                  ?_wr1RegCompleteHandler 0079  
                                 __end_of_I2C1_MasterStop 0C5F  
                                 __end_of_I2C1_Initialize 0D21  
                               ?_I2C1_CallbackReturnReset 0079  
                           __end_of_I2C1_MasterDisableIrq 0C74  
                                             _I2C1_Status 00A0  
                                      ?_EUSART_Initialize 0070  
                                       __end_of_vfpfcnvrt 03AE  
                                     _I2C1_MasterSendNack 0C7A  
                     __end_of_I2C1_SetAddressNackCallback 0D5C  
                             _I2C1_SetAddressNackCallback 0D4E  
                                              ??_vfprintf 0063  
                                    ?_I2C1_MasterClearIrq 0070  
                                          ??_I2C1_DO_IDLE 0070  
                                          ??_I2C1_DO_RCEN 0070  
                      __end_of_I2C1_DO_SEND_RESTART_WRITE 0C9E  
                              _I2C1_DO_SEND_RESTART_WRITE 0C99  
                                                 strlen@a 0026  
                                                 strlen@s 0027  
                                     ??_EUSART_Initialize 0025  
                                       ?i1_I2C1_SetBuffer 0070  
                                        ??_WDT_Initialize 0023  
                         __end_of_rdBlkRegCompleteHandler 0E4B  
                                      ??i1_I2C1_SetBuffer 0072  
                                 ??_i2c_read1ByteRegister 002D  
                           ??_I2C1_SetAddressNackCallback 002B  
                         I2C1_SetDataCompleteCallback@ptr 002A  
                       i1I2C1_SetDataCompleteCallback@ptr 0077  
                          I2C1_CallbackReturnReset@funPtr 0079  
                                    ?_I2C1_MasterSendNack 0070  
                     ?_rd1RegCompleteHandler@strlen$F1710 0079  
                     ?_wr1RegCompleteHandler@strlen$F1702 0079  
                    ??_rd1RegCompleteHandler@strlen$F1712 007A  
                    ??_wr1RegCompleteHandler@strlen$F1704 007A  
                   ?_rdBlkRegCompleteHandler@strlen$F1727 0079  
                  ??_rdBlkRegCompleteHandler@strlen$F1729 007A  
                               __end_of_EUSART_Initialize 0F27  
                  __end_ofi1_I2C1_SetDataCompleteCallback 0D41  
                          i1_I2C1_SetDataCompleteCallback 0D34  
                                   ??_I2C1_MasterClearIrq 0023  
                              _EUSART_DefaultErrorHandler 0000  
                                             vfpfcnvrt@ap 005D  
                                             vfpfcnvrt@fp 00D4  
                                             vfpfcnvrt@ll 00CC  
                                          _I2C1_DO_RX_ACK 0CA8  
                                           __pidataCOMMON 0C56  
                                            _EUSART_Write 0D2A  
                                  ?_OSCILLATOR_Initialize 0070  
                         __end_of_I2C1_CallbackReturnStop 0C59  
                                          __end_of_printf 0E1C  
                           __end_of_I2C1_MasterSendTxData 0C8F  
                                          __end_of_strlen 0E7E  
                                     start_initialization 002A  
                                             ??_I2C1_Open 0025  
                                             __end_of_abs 0E9A  
                           __end_ofi1_I2C1_MasterClearIrq 0C6B  
                                             __end_of_pad 059E  
                                   ??_I2C1_MasterSendNack 0070  
                                             putch@txData 0024  
                                  rd1RegCompleteHandler@p 0079  
                                I2C1_SetBuffer@bufferSize 0023  
                                        ?_I2C1_MasterOpen 0070  
                                        ?_I2C1_MasterStop 0070  
                                        ?_I2C1_Initialize 0070  
                          ?_EUSART_SetOverrunErrorHandler 0023  
                                             vfprintf@fmt 00D5  
                              _EUSART_FramingErrorHandler 00ED  
                                        ??_PMD_Initialize 0023  
                            i2c_read1ByteRegister@address 002E  
                                  __end_of_I2C1_DO_RX_ACK 0CAD  
                                  _EUSART_SetErrorHandler 0CFD  
                                  wr1RegCompleteHandler@p 0079  
                                 ??_I2C1_DO_SEND_ADR_READ 0070  
                              __end_ofi1_I2C1_SetCallback 0F01  
                                             __pdataBANK0 006C  
                              ??_I2C1_SetInterruptHandler 0025  
                                                ??_printf 0068  
                                                ??_strlen 0025  
                                        I2C1_Open@address 0026  
                                    _I2C1_DO_SEND_RESTART 0C9E  
                                               ___latbits 0002  
                                           __pcstackBANK0 0020  
                                           __pcstackBANK1 00CC  
                                        ___aodiv@dividend 002B  
                             ??_I2C1_DO_SEND_RESTART_READ 0070  
                              i1I2C1_SetBuffer@bufferSize 0070  
                                    __end_of_I2C1_DO_IDLE 0C94  
                                    __end_of_I2C1_DO_RCEN 0CD4  
                           I2C1_SetAddressNackCallback@cb 0028  
                                               __pnvBANK1 00E9  
                                   _rd2RegCompleteHandler 0D9F  
                                       _I2CSIMPLE_example 049B  
                                  _PIN_MANAGER_Initialize 071A  
                                   _wr2RegCompleteHandler 0DB0  
                                               _dtoa$1639 0049  
                                  _MSSP1_InterruptHandler 00C3  
                              ??_I2C1_MasterEnableRestart 0070  
                                      ?_I2CSIMPLE_example 0070  
                                          _I2C1_MasterFsm 0FA3  
                                          _I2C1_MasterIsr 0C82  
                                                ?___aodiv 0023  
                                                ?___aomod 0023  
                                         ?_I2C1_DO_RX_ACK 0070  
                                        ___aodiv@quotient 0036  
                                        _I2C1_MasterClose 0C6E  
                                          _I2C1_SetBuffer 0E1C  
                            ??_INTERRUPT_InterruptManager 007D  
                                     ??_I2CSIMPLE_example 00DC  
                                        _I2C1_MasterStart 0C74  
                                        _I2C1_MasterWrite 0CBC  
                                                _BAUD1CON 019F  
                                         _receiveDataFIFO 007D  
                                   ?_I2C1_DO_SEND_RESTART 0070  
                                       ?_I2C1_DO_TX_EMPTY 0070  
                        __end_of_I2C1_CallbackReturnReset 0004  
                                      ??_I2C1_DO_TX_EMPTY 007A  
                                 ??_rd1RegCompleteHandler 007A  
                                 ?_I2C1_DO_SEND_ADR_WRITE 0070  
                               I2C1_MasterSendTxData@data 0070  
                                 ??_wr1RegCompleteHandler 007A  
                                        _I2C1_SetCallback 0F27  
                               __end_of_I2CSIMPLE_example 0548  
                                  i2c_read1ByteRegister@e 002F  
                  EUSART_SetErrorHandler@interruptHandler 0023  
                                  i2c_read1ByteRegister@x 0030  
                                              _I2C1_DO_RX 0691  
                                              _I2C1_DO_TX 059E  
                                               clear_ram0 0CC7  
                                                _PIE1bits 0091  
                                       _eusartRxLastError 00C5  
                                              _I2C1_Close 0EBA  
                                  __end_of_I2C1_MasterFsm 0FD1  
                                  __end_of_I2C1_MasterIsr 0C86  
                            __end_of_I2C1_MasterEnableIrq 0C7A  
                            __end_of_I2C1_MasterGetRxData 0C65  
                                                _PIR1bits 0011  
                         ??_EUSART_SetFramingErrorHandler 0025  
                                      _I2C1_MasterSendAck 0C7E  
                               _I2C1_DO_SEND_RESTART_READ 0C94  
                                                _SSP1CON1 0215  
                                                _SSP1CON2 0216  
                       _EUSART_DefaultOverrunErrorHandler 0000  
                                  __end_of_I2C1_SetBuffer 0E33  
                                                _SSP1STAT 0214  
                    __end_of_I2C1_SetDataCompleteCallback 0800  
                            _I2C1_SetDataCompleteCallback 07F2  
                                      _I2C1_MasterStartRx 0C5F  
                                               _vfpfcnvrt 02B9  
                             ?_I2C1_DO_SEND_RESTART_WRITE 0070  
                                     ?_I2C1_MasterSendAck 0070  
                                ?_I2C1_DO_RX_NACK_RESTART 0070  
                                     ?_I2C1_MasterStartRx 0070  
                            __end_of_I2C1_DO_ADDRESS_NACK 0FA3  
                           __end_of_i2c_read1ByteRegister 0645  
                          __end_of_I2C1_DO_SEND_ADR_WRITE 0CE3  
                                           _I2C1_DO_RESET 0CB7  
                                   I2C1_Close@returnValue 0024  
                                ?_rdBlkRegCompleteHandler 0079  
                                     I2C1_SetCallback@idx 0027  
                                     I2C1_SetCallback@ptr 0025  
                                    ??_I2C1_MasterSendAck 0070  
                                  ?_rd2RegCompleteHandler 0079  
                            __end_of_I2C1_MasterOperation 0EBA  
                                  ?_wr2RegCompleteHandler 0079  
                                    ??_I2C1_MasterStartRx 0070  
                                         ?_I2C1_MasterFsm 0070  
                                         ?_I2C1_MasterIsr 0070  
                                              vfprintf@ap 00D7  
                                              vfprintf@fp 0065  
                                   _I2C1_MasterDisableIrq 0C71  
                                 ??_OSCILLATOR_Initialize 0023  
                                     _EUSART_ErrorHandler 00E9  
                     ?_wr2RegCompleteHandler@strlen$F1721 0079  
                    ??_wr2RegCompleteHandler@strlen$F1723 007A  
                     ?_rd2RegCompleteHandler@strlen$F1715 0079  
                    ??_rd2RegCompleteHandler@strlen$F1717 007A  
                                         ?_I2C1_SetBuffer 0023  
                                              ?_vfpfcnvrt 005C  
                                         ___aodiv@divisor 0023  
                                         ___aodiv@counter 0034  
                                  ??_I2C1_DO_SEND_RESTART 0070  
                                          ?_I2C1_DO_RESET 0070  
                                                __ptext10 0D06  
                                                __ptext11 0CFD  
                                                __ptext20 06D7  
                                                __ptext12 049B  
                                                __ptext21 0CD4  
                                                __ptext13 0E07  
                                                __ptext30 0F27  
                                                __ptext22 0D2A  
                                                __ptext14 07BE  
                                                __ptext31 0645  
                                                __ptext23 0E7E  
                                                __ptext15 02B9  
                                                __ptext40 0C6E  
                                                __ptext32 0CF4  
                                                __ptext24 03AE  
                                                __ptext16 0048  
                                                __ptext41 0C6B  
                                                __ptext33 0D41  
                                                __ptext25 01B4  
                                                __ptext17 0548  
                                                __ptext50 0CA8  
                                                __ptext34 0C77  
                                                __ptext26 05F3  
                                                __ptext18 0E63  
                                                __ptext51 0CA3  
                                                __ptext43 0C82  
                                                __ptext35 0CBC  
                                                __ptext27 07F2  
                                                __ptext19 0F4E  
                                                __ptext60 0C8F  
                                                __ptext52 0C9E  
                                                __ptext44 0FA3  
                                                __ptext36 0E9A  
                                                __ptext28 0E1C  
                                                __ptext61 0FD1  
                                                __ptext53 0C99  
                                                __ptext45 0C68  
                                                __ptext37 0C74  
                                                __ptext29 0D4E  
                                                __ptext70 0C57  
                                                __ptext62 0C65  
                                                __ptext54 0C94  
                                                __ptext46 0F77  
                                                __ptext38 0EBA  
                                                __ptext71 0E4B  
                                                __ptext63 0CC1  
                                                __ptext55 0CCD  
                                                __ptext47 0CB7  
                                                __ptext39 0C71  
                                                __ptext80 0D6C  
                                                __ptext72 0DE3  
                                                __ptext64 0C8A  
                                                __ptext56 0691  
                                                __ptext48 0CB2  
                                                __ptext81 0D34  
                                                __ptext73 0DD2  
                                                __ptext65 0C7E  
                                                __ptext57 059E  
                                                __ptext49 0CAD  
                                                __ptext82 0EDB  
                                                __ptext74 0DC1  
                                                __ptext66 0C62  
                                                __ptext58 0CDB  
                                                __ptext83 0D5C  
                                                __ptext75 0E33  
                                                __ptext67 0C7A  
                                                __ptext59 0CEB  
                                                __ptext84 0C5C  
                                                __ptext76 0DB0  
                                                __ptext68 0C5F  
                                                __ptext85 0C59  
                                                __ptext77 0D9F  
                                                __ptext69 0002  
                                                __ptext78 0D8E  
                                                __ptext79 0D7D  
                                            _SSP1CON1bits 0215  
                                            _SSP1CON2bits 0216  
                                ??_i2c_write1ByteRegister 002E  
                                _I2C1_CallbackReturnReset 0002  
                                             ?_I2C1_DO_RX 0070  
                                             ?_I2C1_DO_TX 0070  
                             __end_of_I2C1_MasterClearIrq 0C6E  
                            __end_of_I2C1_DO_RX_NACK_STOP 0CB2  
                                             ?_I2C1_Close 0070  
                                 ?_EUSART_SetErrorHandler 0023  
                                              _RC1STAbits 019D  
           EUSART_SetOverrunErrorHandler@interruptHandler 0023  
                                                int$flags 007E  
                         __end_of_I2C1_DO_RX_NACK_RESTART 0CB7  
                                I2C1_MasterOperation@read 0024  
                                                _vfprintf 07BE  
                      __end_of_INTERRUPT_InterruptManager 0028  
                              _INTERRUPT_InterruptManager 0004  
                                               printf@fmt 00D8  
                   __end_of_EUSART_SetFramingErrorHandler 0D0F  
                           _EUSART_SetFramingErrorHandler 0D06  
                                            _SSP1STATbits 0214  
                                i2c_read1ByteRegister@reg 002C  
                           __end_of_I2C1_DO_SEND_ADR_READ 0CF4  
                                            _I2C1_DO_IDLE 0C8F  
                                            _I2C1_DO_RCEN 0CCD  
                                        ___aomod@dividend 002B  
                             __end_of_I2C1_MasterSendNack 0C7E  
                                              _INTCONbits 000B  
                          I2C1_SetAddressNackCallback@ptr 002A  
                                    _I2C1_MasterEnableIrq 0C77  
                                      i1_I2C1_SetCallback 0EDB  
                                    _I2C1_MasterGetRxData 0C62  
                                   _I2C1_MasterSendTxData 0C8A  
                                   i1_I2C1_MasterClearIrq 0C68  
                                                intlevel1 0000  
                                __end_of_I2C1_MasterClose 0C71  
                                  rd2RegCompleteHandler@p 0079  
                                     ?i1_I2C1_SetCallback 0070  
                                 ?_PIN_MANAGER_Initialize 0070  
                                __end_of_I2C1_MasterStart 0C77  
                                __end_of_I2C1_MasterWrite 0CC1  
                          __end_of_EUSART_SetErrorHandler 0D06  
                                        ??_I2C1_DO_RX_ACK 0070  
                                 _I2C1_CallbackReturnStop 0C57  
                                    _I2C1_DO_ADDRESS_NACK 0F77  
                                  ?_I2C1_MasterDisableIrq 0070  
                                                printf@ap 0069  
                                  wr2RegCompleteHandler@p 0079  
           EUSART_SetFramingErrorHandler@interruptHandler 0023  
                                         ___aomod@divisor 0023  
                                             ??_vfpfcnvrt 005E  
                                         ___aomod@counter 0034  
                                    ??i1_I2C1_SetCallback 0073  
                                           __pstringtext1 1000  
                                           __pstringtext2 1020  
                                           __pstringtext3 1029  
                                           __pstringtext4 1032  
                                           __pstringtext5 0000  
                                __end_of_I2C1_SetCallback 0F4E  
                        i1I2C1_SetDataCompleteCallback@cb 0075  
                                              _SSP1DATPPS 0E21  
                                              _SSP1CLKPPS 0E20  
                                         ??_I2C1_DO_RESET 0070  
                                    _I2C1_MasterOperation 0E9A  
                                   ?_I2C1_MasterEnableIrq 0070  
                                   ?_I2C1_MasterGetRxData 0070  
                                  i1I2C1_SetBuffer@buffer 0073  
                                              _TX1STAbits 019E  
                                      EUSART_Write@txData 0023  
                                            ___aodiv@sign 0035  
                                        i1_I2C1_SetBuffer 0D5C  
                          __end_of_PIN_MANAGER_Initialize 0752  
                               ?_I2C1_SetInterruptHandler 0023  
                           __end_of_rd1RegCompleteHandler 0D9F  
                           __end_of_wr1RegCompleteHandler 0D8E  
                                            ___aomod@sign 0035  
                                   ?_I2C1_DO_ADDRESS_NACK 0070  
